
_build/eink-advanced_s130.elf:     file format elf32-littlearm

Sections:
Idx Name          Size      VMA       LMA       File off  Algn
  0 .text         00005c58  0001b000  0001b000  0000b000  2**2
                  CONTENTS, ALLOC, LOAD, READONLY, CODE
  1 .ARM.exidx    00000008  00020c58  00020c58  00010c58  2**2
                  CONTENTS, ALLOC, LOAD, READONLY, DATA
  2 .data         00003f88  20002800  00020c60  00012800  2**2
                  CONTENTS, ALLOC, LOAD, DATA
  3 .bss          00000b48  20006788  00024be8  00016788  2**2
                  ALLOC
  4 .heap         00000100  200072d0  200072d0  00016788  2**3
                  CONTENTS, READONLY
  5 .stack_dummy  00000c00  200072d0  200072d0  00016888  2**3
                  CONTENTS, READONLY
  6 .ARM.attributes 00000028  00000000  00000000  00017488  2**0
                  CONTENTS, READONLY
  7 .comment      0000006e  00000000  00000000  000174b0  2**0
                  CONTENTS, READONLY
  8 .debug_frame  0000031c  00000000  00000000  00017520  2**2
                  CONTENTS, READONLY, DEBUGGING

Disassembly of section .text:

0001b000 <__Vectors>:
   1b000:	8000      	strh	r0, [r0, #0]
   1b002:	2000      	movs	r0, #0
   1b004:	b139      	cbz	r1, 1b016 <__Vectors+0x16>
   1b006:	0001      	movs	r1, r0
   1b008:	b179      	cbz	r1, 1b02a <__Vectors+0x2a>
   1b00a:	0001      	movs	r1, r0
   1b00c:	b17b      	cbz	r3, 1b02e <__Vectors+0x2e>
   1b00e:	0001      	movs	r1, r0
	...
   1b02c:	b17d      	cbz	r5, 1b04e <__Vectors+0x4e>
   1b02e:	0001      	movs	r1, r0
	...
   1b038:	b17f      	cbz	r7, 1b05a <__Vectors+0x5a>
   1b03a:	0001      	movs	r1, r0
   1b03c:	b181      	cbz	r1, 1b060 <__Vectors+0x60>
   1b03e:	0001      	movs	r1, r0
   1b040:	b185      	cbz	r5, 1b064 <__Vectors+0x64>
   1b042:	0001      	movs	r1, r0
   1b044:	b187      	cbz	r7, 1b068 <__Vectors+0x68>
   1b046:	0001      	movs	r1, r0
   1b048:	b189      	cbz	r1, 1b06e <__Vectors+0x6e>
   1b04a:	0001      	movs	r1, r0
   1b04c:	ce39      	ldmia	r6!, {r0, r3, r4, r5}
   1b04e:	0001      	movs	r1, r0
   1b050:	b18d      	cbz	r5, 1b076 <__Vectors+0x76>
   1b052:	0001      	movs	r1, r0
   1b054:	0000      	movs	r0, r0
   1b056:	0000      	movs	r0, r0
   1b058:	cf19      	ldmia	r7!, {r0, r3, r4}
   1b05a:	0001      	movs	r1, r0
   1b05c:	b191      	cbz	r1, 1b084 <__Vectors+0x84>
   1b05e:	0001      	movs	r1, r0
   1b060:	b193      	cbz	r3, 1b088 <__Vectors+0x88>
   1b062:	0001      	movs	r1, r0
   1b064:	b195      	cbz	r5, 1b08c <__Vectors+0x8c>
   1b066:	0001      	movs	r1, r0
   1b068:	b197      	cbz	r7, 1b090 <__Vectors+0x90>
   1b06a:	0001      	movs	r1, r0
   1b06c:	b199      	cbz	r1, 1b096 <__Vectors+0x96>
   1b06e:	0001      	movs	r1, r0
   1b070:	b19b      	cbz	r3, 1b09a <__Vectors+0x9a>
   1b072:	0001      	movs	r1, r0
   1b074:	b19d      	cbz	r5, 1b09e <__Vectors+0x9e>
   1b076:	0001      	movs	r1, r0
   1b078:	b19f      	cbz	r7, 1b0a2 <__Vectors+0xa2>
   1b07a:	0001      	movs	r1, r0
   1b07c:	b1a1      	cbz	r1, 1b0a8 <__Vectors+0xa8>
   1b07e:	0001      	movs	r1, r0
   1b080:	b1a3      	cbz	r3, 1b0ac <__Vectors+0xac>
   1b082:	0001      	movs	r1, r0
   1b084:	bee1      	bkpt	0x00e1
   1b086:	0001      	movs	r1, r0
   1b088:	b1a7      	cbz	r7, 1b0b4 <__Vectors+0xb4>
   1b08a:	0001      	movs	r1, r0
   1b08c:	0000      	movs	r0, r0
   1b08e:	0000      	movs	r0, r0
   1b090:	bf99      	ittee	ls
   1b092:	0001      	movls	r1, r0
   1b094:	b1ab      	cbz	r3, 1b0c2 <_mainCRTStartup+0x2>	; unpredictable <IT:ls>
   1b096:	0001      	movhi	r1, r0
   1b098:	b565      	pushhi	{r0, r2, r5, r6, lr}
   1b09a:	0001      	movs	r1, r0
   1b09c:	b1af      	cbz	r7, 1b0ca <_mainCRTStartup+0xa>
   1b09e:	0001      	movs	r1, r0
   1b0a0:	b1b1      	cbz	r1, 1b0d0 <_mainCRTStartup+0x10>
   1b0a2:	0001      	movs	r1, r0
   1b0a4:	b1b3      	cbz	r3, 1b0d4 <_mainCRTStartup+0x14>
   1b0a6:	0001      	movs	r1, r0
	...

0001b0c0 <_mainCRTStartup>:
   1b0c0:	4b16      	ldr	r3, [pc, #88]	; (1b11c <_mainCRTStartup+0x5c>)
   1b0c2:	2b00      	cmp	r3, #0
   1b0c4:	d100      	bne.n	1b0c8 <_mainCRTStartup+0x8>
   1b0c6:	4b14      	ldr	r3, [pc, #80]	; (1b118 <_mainCRTStartup+0x58>)
   1b0c8:	469d      	mov	sp, r3
   1b0ca:	2240      	movs	r2, #64	; 0x40
   1b0cc:	0292      	lsls	r2, r2, #10
   1b0ce:	1a9a      	subs	r2, r3, r2
   1b0d0:	4692      	mov	sl, r2
   1b0d2:	2100      	movs	r1, #0
   1b0d4:	468b      	mov	fp, r1
   1b0d6:	460f      	mov	r7, r1
   1b0d8:	4813      	ldr	r0, [pc, #76]	; (1b128 <_mainCRTStartup+0x68>)
   1b0da:	4a14      	ldr	r2, [pc, #80]	; (1b12c <_mainCRTStartup+0x6c>)
   1b0dc:	1a12      	subs	r2, r2, r0
   1b0de:	f004 fd11 	bl	1fb04 <memset>
   1b0e2:	4b0f      	ldr	r3, [pc, #60]	; (1b120 <_mainCRTStartup+0x60>)
   1b0e4:	2b00      	cmp	r3, #0
   1b0e6:	d000      	beq.n	1b0ea <_mainCRTStartup+0x2a>
   1b0e8:	4798      	blx	r3
   1b0ea:	4b0e      	ldr	r3, [pc, #56]	; (1b124 <_mainCRTStartup+0x64>)
   1b0ec:	2b00      	cmp	r3, #0
   1b0ee:	d000      	beq.n	1b0f2 <_mainCRTStartup+0x32>
   1b0f0:	4798      	blx	r3
   1b0f2:	2000      	movs	r0, #0
   1b0f4:	2100      	movs	r1, #0
   1b0f6:	0004      	movs	r4, r0
   1b0f8:	000d      	movs	r5, r1
   1b0fa:	480d      	ldr	r0, [pc, #52]	; (1b130 <_mainCRTStartup+0x70>)
   1b0fc:	2800      	cmp	r0, #0
   1b0fe:	d002      	beq.n	1b106 <_mainCRTStartup+0x46>
   1b100:	480c      	ldr	r0, [pc, #48]	; (1b134 <_mainCRTStartup+0x74>)
   1b102:	e000      	b.n	1b106 <_mainCRTStartup+0x46>
   1b104:	bf00      	nop
   1b106:	f004 fca5 	bl	1fa54 <__libc_init_array>
   1b10a:	0020      	movs	r0, r4
   1b10c:	0029      	movs	r1, r5
   1b10e:	f000 f957 	bl	1b3c0 <main>
   1b112:	f004 fc89 	bl	1fa28 <exit>
   1b116:	46c0      	nop			; (mov r8, r8)
   1b118:	0000      	movs	r0, r0
   1b11a:	0008      	movs	r0, r1
   1b11c:	8000      	strh	r0, [r0, #0]
   1b11e:	2000      	movs	r0, #0
	...
   1b128:	6788      	str	r0, [r1, #120]	; 0x78
   1b12a:	2000      	movs	r0, #0
   1b12c:	72d0      	strb	r0, [r2, #11]
   1b12e:	2000      	movs	r0, #0
	...

0001b138 <Reset_Handler>:
   1b138:	4809      	ldr	r0, [pc, #36]	; (1b160 <.flash_to_ram_loop_end+0x8>)
   1b13a:	6802      	ldr	r2, [r0, #0]
   1b13c:	2103      	movs	r1, #3
   1b13e:	430a      	orrs	r2, r1
   1b140:	6002      	str	r2, [r0, #0]
   1b142:	4908      	ldr	r1, [pc, #32]	; (1b164 <.flash_to_ram_loop_end+0xc>)
   1b144:	4a08      	ldr	r2, [pc, #32]	; (1b168 <.flash_to_ram_loop_end+0x10>)
   1b146:	4b09      	ldr	r3, [pc, #36]	; (1b16c <.flash_to_ram_loop_end+0x14>)
   1b148:	1a9b      	subs	r3, r3, r2
   1b14a:	dd05      	ble.n	1b158 <.flash_to_ram_loop_end>
   1b14c:	2400      	movs	r4, #0

0001b14e <.flash_to_ram_loop>:
   1b14e:	5908      	ldr	r0, [r1, r4]
   1b150:	5110      	str	r0, [r2, r4]
   1b152:	3404      	adds	r4, #4
   1b154:	429c      	cmp	r4, r3
   1b156:	dbfa      	blt.n	1b14e <.flash_to_ram_loop>

0001b158 <.flash_to_ram_loop_end>:
   1b158:	4805      	ldr	r0, [pc, #20]	; (1b170 <.flash_to_ram_loop_end+0x18>)
   1b15a:	4780      	blx	r0
   1b15c:	4805      	ldr	r0, [pc, #20]	; (1b174 <.flash_to_ram_loop_end+0x1c>)
   1b15e:	4700      	bx	r0
   1b160:	0524      	lsls	r4, r4, #20
   1b162:	4000      	ands	r0, r0
   1b164:	0c60      	lsrs	r0, r4, #17
   1b166:	0002      	movs	r2, r0
   1b168:	2800      	cmp	r0, #0
   1b16a:	2000      	movs	r0, #0
   1b16c:	6788      	str	r0, [r1, #120]	; 0x78
   1b16e:	2000      	movs	r0, #0
   1b170:	b1b5      	cbz	r5, 1b1a0 <CCM_AAR_IRQHandler>
   1b172:	0001      	movs	r1, r0
   1b174:	b0c1      	sub	sp, #260	; 0x104
   1b176:	0001      	movs	r1, r0

0001b178 <NMI_Handler>:
   1b178:	e7fe      	b.n	1b178 <NMI_Handler>

0001b17a <HardFault_Handler>:
   1b17a:	e7fe      	b.n	1b17a <HardFault_Handler>

0001b17c <SVC_Handler>:
   1b17c:	e7fe      	b.n	1b17c <SVC_Handler>

0001b17e <PendSV_Handler>:
   1b17e:	e7fe      	b.n	1b17e <PendSV_Handler>

0001b180 <SysTick_Handler>:
   1b180:	e7fe      	b.n	1b180 <SysTick_Handler>

0001b182 <DEF_IRQHandler>:
   1b182:	e7fe      	b.n	1b182 <DEF_IRQHandler>

0001b184 <POWER_CLOCK_IRQHandler>:
   1b184:	e7fe      	b.n	1b184 <POWER_CLOCK_IRQHandler>

0001b186 <RADIO_IRQHandler>:
   1b186:	e7fe      	b.n	1b186 <RADIO_IRQHandler>

0001b188 <UART0_IRQHandler>:
   1b188:	e7fe      	b.n	1b188 <UART0_IRQHandler>
   1b18a:	e7fe      	b.n	1b18a <UART0_IRQHandler+0x2>

0001b18c <SPI1_TWI1_IRQHandler>:
   1b18c:	e7fe      	b.n	1b18c <SPI1_TWI1_IRQHandler>
   1b18e:	e7fe      	b.n	1b18e <SPI1_TWI1_IRQHandler+0x2>

0001b190 <ADC_IRQHandler>:
   1b190:	e7fe      	b.n	1b190 <ADC_IRQHandler>

0001b192 <TIMER0_IRQHandler>:
   1b192:	e7fe      	b.n	1b192 <TIMER0_IRQHandler>

0001b194 <TIMER1_IRQHandler>:
   1b194:	e7fe      	b.n	1b194 <TIMER1_IRQHandler>

0001b196 <TIMER2_IRQHandler>:
   1b196:	e7fe      	b.n	1b196 <TIMER2_IRQHandler>

0001b198 <RTC0_IRQHandler>:
   1b198:	e7fe      	b.n	1b198 <RTC0_IRQHandler>

0001b19a <TEMP_IRQHandler>:
   1b19a:	e7fe      	b.n	1b19a <TEMP_IRQHandler>

0001b19c <RNG_IRQHandler>:
   1b19c:	e7fe      	b.n	1b19c <RNG_IRQHandler>

0001b19e <ECB_IRQHandler>:
   1b19e:	e7fe      	b.n	1b19e <ECB_IRQHandler>

0001b1a0 <CCM_AAR_IRQHandler>:
   1b1a0:	e7fe      	b.n	1b1a0 <CCM_AAR_IRQHandler>

0001b1a2 <WDT_IRQHandler>:
   1b1a2:	e7fe      	b.n	1b1a2 <WDT_IRQHandler>
   1b1a4:	e7fe      	b.n	1b1a4 <WDT_IRQHandler+0x2>

0001b1a6 <QDEC_IRQHandler>:
   1b1a6:	e7fe      	b.n	1b1a6 <QDEC_IRQHandler>
   1b1a8:	e7fe      	b.n	1b1a8 <QDEC_IRQHandler+0x2>

0001b1aa <SWI1_IRQHandler>:
   1b1aa:	e7fe      	b.n	1b1aa <SWI1_IRQHandler>
   1b1ac:	e7fe      	b.n	1b1ac <SWI1_IRQHandler+0x2>

0001b1ae <SWI3_IRQHandler>:
   1b1ae:	e7fe      	b.n	1b1ae <SWI3_IRQHandler>

0001b1b0 <SWI4_IRQHandler>:
   1b1b0:	e7fe      	b.n	1b1b0 <SWI4_IRQHandler>

0001b1b2 <SWI5_IRQHandler>:
   1b1b2:	e7fe      	b.n	1b1b2 <SWI5_IRQHandler>

0001b1b4 <SystemInit>:
   1b1b4:	4b2d      	ldr	r3, [pc, #180]	; (1b26c <SystemInit+0xb8>)
   1b1b6:	b510      	push	{r4, lr}
   1b1b8:	781a      	ldrb	r2, [r3, #0]
   1b1ba:	2a01      	cmp	r2, #1
   1b1bc:	d119      	bne.n	1b1f2 <SystemInit+0x3e>
   1b1be:	4a2c      	ldr	r2, [pc, #176]	; (1b270 <SystemInit+0xbc>)
   1b1c0:	6812      	ldr	r2, [r2, #0]
   1b1c2:	0712      	lsls	r2, r2, #28
   1b1c4:	d115      	bne.n	1b1f2 <SystemInit+0x3e>
   1b1c6:	4a2b      	ldr	r2, [pc, #172]	; (1b274 <SystemInit+0xc0>)
   1b1c8:	24e0      	movs	r4, #224	; 0xe0
   1b1ca:	6811      	ldr	r1, [r2, #0]
   1b1cc:	22f0      	movs	r2, #240	; 0xf0
   1b1ce:	0008      	movs	r0, r1
   1b1d0:	4010      	ands	r0, r2
   1b1d2:	4221      	tst	r1, r4
   1b1d4:	d10b      	bne.n	1b1ee <SystemInit+0x3a>
   1b1d6:	4928      	ldr	r1, [pc, #160]	; (1b278 <SystemInit+0xc4>)
   1b1d8:	6809      	ldr	r1, [r1, #0]
   1b1da:	4211      	tst	r1, r2
   1b1dc:	d109      	bne.n	1b1f2 <SystemInit+0x3e>
   1b1de:	4927      	ldr	r1, [pc, #156]	; (1b27c <SystemInit+0xc8>)
   1b1e0:	4a27      	ldr	r2, [pc, #156]	; (1b280 <SystemInit+0xcc>)
   1b1e2:	6011      	str	r1, [r2, #0]
   1b1e4:	2180      	movs	r1, #128	; 0x80
   1b1e6:	4a27      	ldr	r2, [pc, #156]	; (1b284 <SystemInit+0xd0>)
   1b1e8:	0209      	lsls	r1, r1, #8
   1b1ea:	6011      	str	r1, [r2, #0]
   1b1ec:	e001      	b.n	1b1f2 <SystemInit+0x3e>
   1b1ee:	2830      	cmp	r0, #48	; 0x30
   1b1f0:	d0f1      	beq.n	1b1d6 <SystemInit+0x22>
   1b1f2:	781a      	ldrb	r2, [r3, #0]
   1b1f4:	2a01      	cmp	r2, #1
   1b1f6:	d10d      	bne.n	1b214 <SystemInit+0x60>
   1b1f8:	491d      	ldr	r1, [pc, #116]	; (1b270 <SystemInit+0xbc>)
   1b1fa:	6809      	ldr	r1, [r1, #0]
   1b1fc:	0709      	lsls	r1, r1, #28
   1b1fe:	d109      	bne.n	1b214 <SystemInit+0x60>
   1b200:	20f0      	movs	r0, #240	; 0xf0
   1b202:	491c      	ldr	r1, [pc, #112]	; (1b274 <SystemInit+0xc0>)
   1b204:	6809      	ldr	r1, [r1, #0]
   1b206:	4001      	ands	r1, r0
   1b208:	2940      	cmp	r1, #64	; 0x40
   1b20a:	d103      	bne.n	1b214 <SystemInit+0x60>
   1b20c:	491a      	ldr	r1, [pc, #104]	; (1b278 <SystemInit+0xc4>)
   1b20e:	6809      	ldr	r1, [r1, #0]
   1b210:	4201      	tst	r1, r0
   1b212:	d023      	beq.n	1b25c <SystemInit+0xa8>
   1b214:	681b      	ldr	r3, [r3, #0]
   1b216:	b2db      	uxtb	r3, r3
   1b218:	2b01      	cmp	r3, #1
   1b21a:	d125      	bne.n	1b268 <SystemInit+0xb4>
   1b21c:	4b14      	ldr	r3, [pc, #80]	; (1b270 <SystemInit+0xbc>)
   1b21e:	681b      	ldr	r3, [r3, #0]
   1b220:	071b      	lsls	r3, r3, #28
   1b222:	d121      	bne.n	1b268 <SystemInit+0xb4>
   1b224:	4b13      	ldr	r3, [pc, #76]	; (1b274 <SystemInit+0xc0>)
   1b226:	681a      	ldr	r2, [r3, #0]
   1b228:	23f0      	movs	r3, #240	; 0xf0
   1b22a:	401a      	ands	r2, r3
   1b22c:	2aa0      	cmp	r2, #160	; 0xa0
   1b22e:	d104      	bne.n	1b23a <SystemInit+0x86>
   1b230:	4a11      	ldr	r2, [pc, #68]	; (1b278 <SystemInit+0xc4>)
   1b232:	6812      	ldr	r2, [r2, #0]
   1b234:	421a      	tst	r2, r3
   1b236:	d003      	beq.n	1b240 <SystemInit+0x8c>
   1b238:	e016      	b.n	1b268 <SystemInit+0xb4>
   1b23a:	2ad0      	cmp	r2, #208	; 0xd0
   1b23c:	d114      	bne.n	1b268 <SystemInit+0xb4>
   1b23e:	e7f7      	b.n	1b230 <SystemInit+0x7c>
   1b240:	4b11      	ldr	r3, [pc, #68]	; (1b288 <SystemInit+0xd4>)
   1b242:	681a      	ldr	r2, [r3, #0]
   1b244:	2a01      	cmp	r2, #1
   1b246:	d103      	bne.n	1b250 <SystemInit+0x9c>
   1b248:	22c0      	movs	r2, #192	; 0xc0
   1b24a:	4b10      	ldr	r3, [pc, #64]	; (1b28c <SystemInit+0xd8>)
   1b24c:	601a      	str	r2, [r3, #0]
   1b24e:	e00b      	b.n	1b268 <SystemInit+0xb4>
   1b250:	4a0f      	ldr	r2, [pc, #60]	; (1b290 <SystemInit+0xdc>)
   1b252:	601a      	str	r2, [r3, #0]
   1b254:	681a      	ldr	r2, [r3, #0]
   1b256:	2a01      	cmp	r2, #1
   1b258:	d1fc      	bne.n	1b254 <SystemInit+0xa0>
   1b25a:	e7f5      	b.n	1b248 <SystemInit+0x94>
   1b25c:	21c1      	movs	r1, #193	; 0xc1
   1b25e:	2080      	movs	r0, #128	; 0x80
   1b260:	00c9      	lsls	r1, r1, #3
   1b262:	05c0      	lsls	r0, r0, #23
   1b264:	5042      	str	r2, [r0, r1]
   1b266:	e7d5      	b.n	1b214 <SystemInit+0x60>
   1b268:	bd10      	pop	{r4, pc}
   1b26a:	46c0      	nop			; (mov r8, r8)
   1b26c:	0fe0      	lsrs	r0, r4, #31
   1b26e:	f000 0fe4 	and.w	pc, r0, #228	; 0xe4
   1b272:	f000 0fe8 	and.w	pc, r0, #232	; 0xe8
   1b276:	f000 0fec 	and.w	pc, r0, #236	; 0xec
   1b27a:	f000 ffdf 	bl	1c23c <SWI0_IRQHandler+0x2a4>
   1b27e:	c007      	stmia	r0!, {r0, r1, r2}
   1b280:	0504      	lsls	r4, r0, #20
   1b282:	4000      	ands	r0, r0
   1b284:	6c18      	ldr	r0, [r3, #64]	; 0x40
   1b286:	4000      	ands	r0, r0
   1b288:	ec00 4006 	stc	0, cr4, [r0], {6}
   1b28c:	ec14 4006 	ldc	0, cr4, [r4], {6}
   1b290:	9375      	str	r3, [sp, #468]	; 0x1d4
	...

0001b294 <sd_app_evt_wait>:
   1b294:	df48      	svc	72	; 0x48
   1b296:	4770      	bx	lr

0001b298 <services_init>:
   1b298:	b530      	push	{r4, r5, lr}
   1b29a:	4c23      	ldr	r4, [pc, #140]	; (1b328 <services_init+0x90>)
   1b29c:	b085      	sub	sp, #20
   1b29e:	0020      	movs	r0, r4
   1b2a0:	f001 fba4 	bl	1c9ec <simple_ble_add_service>
   1b2a4:	4b21      	ldr	r3, [pc, #132]	; (1b32c <services_init+0x94>)
   1b2a6:	2502      	movs	r5, #2
   1b2a8:	9303      	str	r3, [sp, #12]
   1b2aa:	4b21      	ldr	r3, [pc, #132]	; (1b330 <services_init+0x98>)
   1b2ac:	9500      	str	r5, [sp, #0]
   1b2ae:	9301      	str	r3, [sp, #4]
   1b2b0:	2300      	movs	r3, #0
   1b2b2:	9402      	str	r4, [sp, #8]
   1b2b4:	001a      	movs	r2, r3
   1b2b6:	0018      	movs	r0, r3
   1b2b8:	2101      	movs	r1, #1
   1b2ba:	f001 fbb6 	bl	1ca2a <simple_ble_add_characteristic>
   1b2be:	4b1d      	ldr	r3, [pc, #116]	; (1b334 <services_init+0x9c>)
   1b2c0:	9500      	str	r5, [sp, #0]
   1b2c2:	9303      	str	r3, [sp, #12]
   1b2c4:	4b1c      	ldr	r3, [pc, #112]	; (1b338 <services_init+0xa0>)
   1b2c6:	9402      	str	r4, [sp, #8]
   1b2c8:	9301      	str	r3, [sp, #4]
   1b2ca:	2300      	movs	r3, #0
   1b2cc:	2101      	movs	r1, #1
   1b2ce:	001a      	movs	r2, r3
   1b2d0:	0018      	movs	r0, r3
   1b2d2:	f001 fbaa 	bl	1ca2a <simple_ble_add_characteristic>
   1b2d6:	4b19      	ldr	r3, [pc, #100]	; (1b33c <services_init+0xa4>)
   1b2d8:	3d01      	subs	r5, #1
   1b2da:	9303      	str	r3, [sp, #12]
   1b2dc:	4b18      	ldr	r3, [pc, #96]	; (1b340 <services_init+0xa8>)
   1b2de:	0029      	movs	r1, r5
   1b2e0:	9301      	str	r3, [sp, #4]
   1b2e2:	2300      	movs	r3, #0
   1b2e4:	9402      	str	r4, [sp, #8]
   1b2e6:	001a      	movs	r2, r3
   1b2e8:	0018      	movs	r0, r3
   1b2ea:	9500      	str	r5, [sp, #0]
   1b2ec:	f001 fb9d 	bl	1ca2a <simple_ble_add_characteristic>
   1b2f0:	4b14      	ldr	r3, [pc, #80]	; (1b344 <services_init+0xac>)
   1b2f2:	0029      	movs	r1, r5
   1b2f4:	9303      	str	r3, [sp, #12]
   1b2f6:	4b14      	ldr	r3, [pc, #80]	; (1b348 <services_init+0xb0>)
   1b2f8:	9402      	str	r4, [sp, #8]
   1b2fa:	9301      	str	r3, [sp, #4]
   1b2fc:	231e      	movs	r3, #30
   1b2fe:	9300      	str	r3, [sp, #0]
   1b300:	2300      	movs	r3, #0
   1b302:	001a      	movs	r2, r3
   1b304:	0018      	movs	r0, r3
   1b306:	f001 fb90 	bl	1ca2a <simple_ble_add_characteristic>
   1b30a:	4b10      	ldr	r3, [pc, #64]	; (1b34c <services_init+0xb4>)
   1b30c:	9402      	str	r4, [sp, #8]
   1b30e:	9303      	str	r3, [sp, #12]
   1b310:	4b0f      	ldr	r3, [pc, #60]	; (1b350 <services_init+0xb8>)
   1b312:	0029      	movs	r1, r5
   1b314:	9301      	str	r3, [sp, #4]
   1b316:	2334      	movs	r3, #52	; 0x34
   1b318:	9300      	str	r3, [sp, #0]
   1b31a:	2300      	movs	r3, #0
   1b31c:	001a      	movs	r2, r3
   1b31e:	0018      	movs	r0, r3
   1b320:	f001 fb83 	bl	1ca2a <simple_ble_add_characteristic>
   1b324:	b005      	add	sp, #20
   1b326:	bd30      	pop	{r4, r5, pc}
   1b328:	2832      	cmp	r0, #50	; 0x32
   1b32a:	2000      	movs	r0, #0
   1b32c:	2828      	cmp	r0, #40	; 0x28
   1b32e:	2000      	movs	r0, #0
   1b330:	6788      	str	r0, [r1, #120]	; 0x78
   1b332:	2000      	movs	r0, #0
   1b334:	2814      	cmp	r0, #20
   1b336:	2000      	movs	r0, #0
   1b338:	67be      	str	r6, [r7, #120]	; 0x78
   1b33a:	2000      	movs	r0, #0
   1b33c:	280a      	cmp	r0, #10
   1b33e:	2000      	movs	r0, #0
   1b340:	2848      	cmp	r0, #72	; 0x48
   1b342:	2000      	movs	r0, #0
   1b344:	281e      	cmp	r0, #30
   1b346:	2000      	movs	r0, #0
   1b348:	67c0      	str	r0, [r0, #124]	; 0x7c
   1b34a:	2000      	movs	r0, #0
   1b34c:	2800      	cmp	r0, #0
   1b34e:	2000      	movs	r0, #0
   1b350:	678a      	str	r2, [r1, #120]	; 0x78
   1b352:	2000      	movs	r0, #0

0001b354 <ble_evt_write>:
   1b354:	b510      	push	{r4, lr}
   1b356:	490e      	ldr	r1, [pc, #56]	; (1b390 <ble_evt_write+0x3c>)
   1b358:	0004      	movs	r4, r0
   1b35a:	f001 fbc9 	bl	1caf0 <simple_ble_is_char_event>
   1b35e:	2800      	cmp	r0, #0
   1b360:	d009      	beq.n	1b376 <ble_evt_write+0x22>
   1b362:	4b0c      	ldr	r3, [pc, #48]	; (1b394 <ble_evt_write+0x40>)
   1b364:	4a0c      	ldr	r2, [pc, #48]	; (1b398 <ble_evt_write+0x44>)
   1b366:	490d      	ldr	r1, [pc, #52]	; (1b39c <ble_evt_write+0x48>)
   1b368:	781b      	ldrb	r3, [r3, #0]
   1b36a:	8812      	ldrh	r2, [r2, #0]
   1b36c:	8809      	ldrh	r1, [r1, #0]
   1b36e:	480c      	ldr	r0, [pc, #48]	; (1b3a0 <ble_evt_write+0x4c>)
   1b370:	f001 ffba 	bl	1d2e8 <tcmp441_writeStringAtLocation>
   1b374:	e008      	b.n	1b388 <ble_evt_write+0x34>
   1b376:	490b      	ldr	r1, [pc, #44]	; (1b3a4 <ble_evt_write+0x50>)
   1b378:	0020      	movs	r0, r4
   1b37a:	f001 fbb9 	bl	1caf0 <simple_ble_is_char_event>
   1b37e:	2800      	cmp	r0, #0
   1b380:	d004      	beq.n	1b38c <ble_evt_write+0x38>
   1b382:	4809      	ldr	r0, [pc, #36]	; (1b3a8 <ble_evt_write+0x54>)
   1b384:	f001 fffd 	bl	1d382 <tcmp441_writeQRcode>
   1b388:	f002 f834 	bl	1d3f4 <tcmp441_updateDisplay>
   1b38c:	bd10      	pop	{r4, pc}
   1b38e:	46c0      	nop			; (mov r8, r8)
   1b390:	281e      	cmp	r0, #30
   1b392:	2000      	movs	r0, #0
   1b394:	2848      	cmp	r0, #72	; 0x48
   1b396:	2000      	movs	r0, #0
   1b398:	67be      	str	r6, [r7, #120]	; 0x78
   1b39a:	2000      	movs	r0, #0
   1b39c:	6788      	str	r0, [r1, #120]	; 0x78
   1b39e:	2000      	movs	r0, #0
   1b3a0:	67c0      	str	r0, [r0, #124]	; 0x7c
   1b3a2:	2000      	movs	r0, #0
   1b3a4:	2800      	cmp	r0, #0
   1b3a6:	2000      	movs	r0, #0
   1b3a8:	678a      	str	r2, [r1, #120]	; 0x78
   1b3aa:	2000      	movs	r0, #0

0001b3ac <ble_evt_connected>:
   1b3ac:	b510      	push	{r4, lr}
   1b3ae:	2012      	movs	r0, #18
   1b3b0:	f001 f8e6 	bl	1c580 <led_on>
   1b3b4:	bd10      	pop	{r4, pc}

0001b3b6 <ble_evt_disconnected>:
   1b3b6:	b510      	push	{r4, lr}
   1b3b8:	2012      	movs	r0, #18
   1b3ba:	f001 f8eb 	bl	1c594 <led_off>
   1b3be:	bd10      	pop	{r4, pc}

0001b3c0 <main>:
   1b3c0:	2316      	movs	r3, #22
   1b3c2:	b507      	push	{r0, r1, r2, lr}
   1b3c4:	9301      	str	r3, [sp, #4]
   1b3c6:	3301      	adds	r3, #1
   1b3c8:	2214      	movs	r2, #20
   1b3ca:	2113      	movs	r1, #19
   1b3cc:	9300      	str	r3, [sp, #0]
   1b3ce:	2012      	movs	r0, #18
   1b3d0:	3301      	adds	r3, #1
   1b3d2:	f002 f8ab 	bl	1d52c <tcmp441_init>
   1b3d6:	4808      	ldr	r0, [pc, #32]	; (1b3f8 <main+0x38>)
   1b3d8:	f001 faf0 	bl	1c9bc <simple_ble_init>
   1b3dc:	f001 fbbd 	bl	1cb5a <simple_adv_only_name>
   1b3e0:	2100      	movs	r1, #0
   1b3e2:	4806      	ldr	r0, [pc, #24]	; (1b3fc <main+0x3c>)
   1b3e4:	f001 fe58 	bl	1d098 <eddystone_adv>
   1b3e8:	f001 ff0e 	bl	1d208 <tcmp441_clearScreen>
   1b3ec:	f002 f802 	bl	1d3f4 <tcmp441_updateDisplay>
   1b3f0:	f7ff ff50 	bl	1b294 <sd_app_evt_wait>
   1b3f4:	e7fc      	b.n	1b3f0 <main+0x30>
   1b3f6:	46c0      	nop			; (mov r8, r8)
   1b3f8:	284c      	cmp	r0, #76	; 0x4c
   1b3fa:	2000      	movs	r0, #0
   1b3fc:	fd48 0001 	stc2l	0, cr0, [r8, #-4]

0001b400 <sd_evt_get>:
   1b400:	df52      	svc	82	; 0x52
   1b402:	4770      	bx	lr

0001b404 <sd_softdevice_enable>:
   1b404:	df10      	svc	16
   1b406:	4770      	bx	lr

0001b408 <sd_ble_enable>:
   1b408:	df60      	svc	96	; 0x60
   1b40a:	4770      	bx	lr

0001b40c <sd_ble_evt_get>:
   1b40c:	df61      	svc	97	; 0x61
   1b40e:	4770      	bx	lr

0001b410 <softdevice_fault_handler>:
   1b410:	b510      	push	{r4, lr}
   1b412:	f001 f8fd 	bl	1c610 <app_error_fault_handler>
   1b416:	bd10      	pop	{r4, pc}

0001b418 <intern_softdevice_events_execute>:
   1b418:	b5f0      	push	{r4, r5, r6, r7, lr}
   1b41a:	4b25      	ldr	r3, [pc, #148]	; (1b4b0 <intern_softdevice_events_execute+0x98>)
   1b41c:	b085      	sub	sp, #20
   1b41e:	781b      	ldrb	r3, [r3, #0]
   1b420:	2b00      	cmp	r3, #0
   1b422:	d043      	beq.n	1b4ac <intern_softdevice_events_execute+0x94>
   1b424:	4d23      	ldr	r5, [pc, #140]	; (1b4b4 <intern_softdevice_events_execute+0x9c>)
   1b426:	4e24      	ldr	r6, [pc, #144]	; (1b4b8 <intern_softdevice_events_execute+0xa0>)
   1b428:	682b      	ldr	r3, [r5, #0]
   1b42a:	6834      	ldr	r4, [r6, #0]
   1b42c:	425a      	negs	r2, r3
   1b42e:	4153      	adcs	r3, r2
   1b430:	b2db      	uxtb	r3, r3
   1b432:	9300      	str	r3, [sp, #0]
   1b434:	4263      	negs	r3, r4
   1b436:	415c      	adcs	r4, r3
   1b438:	b2e4      	uxtb	r4, r4
   1b43a:	9b00      	ldr	r3, [sp, #0]
   1b43c:	2b00      	cmp	r3, #0
   1b43e:	d133      	bne.n	1b4a8 <intern_softdevice_events_execute+0x90>
   1b440:	a803      	add	r0, sp, #12
   1b442:	f7ff ffdd 	bl	1b400 <sd_evt_get>
   1b446:	2805      	cmp	r0, #5
   1b448:	d008      	beq.n	1b45c <intern_softdevice_events_execute+0x44>
   1b44a:	2800      	cmp	r0, #0
   1b44c:	d002      	beq.n	1b454 <intern_softdevice_events_execute+0x3c>
   1b44e:	f001 f87b 	bl	1c548 <app_error_handler_bare>
   1b452:	e005      	b.n	1b460 <intern_softdevice_events_execute+0x48>
   1b454:	9803      	ldr	r0, [sp, #12]
   1b456:	682b      	ldr	r3, [r5, #0]
   1b458:	4798      	blx	r3
   1b45a:	e001      	b.n	1b460 <intern_softdevice_events_execute+0x48>
   1b45c:	2301      	movs	r3, #1
   1b45e:	9300      	str	r3, [sp, #0]
   1b460:	2c00      	cmp	r4, #0
   1b462:	d11d      	bne.n	1b4a0 <intern_softdevice_events_execute+0x88>
   1b464:	4b15      	ldr	r3, [pc, #84]	; (1b4bc <intern_softdevice_events_execute+0xa4>)
   1b466:	a903      	add	r1, sp, #12
   1b468:	881b      	ldrh	r3, [r3, #0]
   1b46a:	2401      	movs	r4, #1
   1b46c:	800b      	strh	r3, [r1, #0]
   1b46e:	4b14      	ldr	r3, [pc, #80]	; (1b4c0 <intern_softdevice_events_execute+0xa8>)
   1b470:	681b      	ldr	r3, [r3, #0]
   1b472:	0018      	movs	r0, r3
   1b474:	9301      	str	r3, [sp, #4]
   1b476:	f7ff ffc9 	bl	1b40c <sd_ble_evt_get>
   1b47a:	1e07      	subs	r7, r0, #0
   1b47c:	2f05      	cmp	r7, #5
   1b47e:	d009      	beq.n	1b494 <intern_softdevice_events_execute+0x7c>
   1b480:	2800      	cmp	r0, #0
   1b482:	d003      	beq.n	1b48c <intern_softdevice_events_execute+0x74>
   1b484:	f001 f860 	bl	1c548 <app_error_handler_bare>
   1b488:	2400      	movs	r4, #0
   1b48a:	e003      	b.n	1b494 <intern_softdevice_events_execute+0x7c>
   1b48c:	9801      	ldr	r0, [sp, #4]
   1b48e:	6833      	ldr	r3, [r6, #0]
   1b490:	4798      	blx	r3
   1b492:	003c      	movs	r4, r7
   1b494:	9b00      	ldr	r3, [sp, #0]
   1b496:	2b00      	cmp	r3, #0
   1b498:	d0d2      	beq.n	1b440 <intern_softdevice_events_execute+0x28>
   1b49a:	2c00      	cmp	r4, #0
   1b49c:	d0cd      	beq.n	1b43a <intern_softdevice_events_execute+0x22>
   1b49e:	e005      	b.n	1b4ac <intern_softdevice_events_execute+0x94>
   1b4a0:	9b00      	ldr	r3, [sp, #0]
   1b4a2:	2b00      	cmp	r3, #0
   1b4a4:	d0cc      	beq.n	1b440 <intern_softdevice_events_execute+0x28>
   1b4a6:	e001      	b.n	1b4ac <intern_softdevice_events_execute+0x94>
   1b4a8:	2c00      	cmp	r4, #0
   1b4aa:	d0db      	beq.n	1b464 <intern_softdevice_events_execute+0x4c>
   1b4ac:	b005      	add	sp, #20
   1b4ae:	bdf0      	pop	{r4, r5, r6, r7, pc}
   1b4b0:	67de      	str	r6, [r3, #124]	; 0x7c
   1b4b2:	2000      	movs	r0, #0
   1b4b4:	67e8      	str	r0, [r5, #124]	; 0x7c
   1b4b6:	2000      	movs	r0, #0
   1b4b8:	67ec      	str	r4, [r5, #124]	; 0x7c
   1b4ba:	2000      	movs	r0, #0
   1b4bc:	67e0      	str	r0, [r4, #124]	; 0x7c
   1b4be:	2000      	movs	r0, #0
   1b4c0:	67e4      	str	r4, [r4, #124]	; 0x7c
   1b4c2:	2000      	movs	r0, #0

0001b4c4 <softdevice_handler_init>:
   1b4c4:	b570      	push	{r4, r5, r6, lr}
   1b4c6:	0004      	movs	r4, r0
   1b4c8:	2007      	movs	r0, #7
   1b4ca:	2900      	cmp	r1, #0
   1b4cc:	d025      	beq.n	1b51a <softdevice_handler_init+0x56>
   1b4ce:	078d      	lsls	r5, r1, #30
   1b4d0:	d123      	bne.n	1b51a <softdevice_handler_init+0x56>
   1b4d2:	4812      	ldr	r0, [pc, #72]	; (1b51c <softdevice_handler_init+0x58>)
   1b4d4:	6001      	str	r1, [r0, #0]
   1b4d6:	4912      	ldr	r1, [pc, #72]	; (1b520 <softdevice_handler_init+0x5c>)
   1b4d8:	0020      	movs	r0, r4
   1b4da:	800a      	strh	r2, [r1, #0]
   1b4dc:	4a11      	ldr	r2, [pc, #68]	; (1b524 <softdevice_handler_init+0x60>)
   1b4de:	4912      	ldr	r1, [pc, #72]	; (1b528 <softdevice_handler_init+0x64>)
   1b4e0:	6013      	str	r3, [r2, #0]
   1b4e2:	f7ff ff8f 	bl	1b404 <sd_softdevice_enable>
   1b4e6:	1e05      	subs	r5, r0, #0
   1b4e8:	d117      	bne.n	1b51a <softdevice_handler_init+0x56>
   1b4ea:	2201      	movs	r2, #1
   1b4ec:	4b0f      	ldr	r3, [pc, #60]	; (1b52c <softdevice_handler_init+0x68>)
   1b4ee:	4910      	ldr	r1, [pc, #64]	; (1b530 <softdevice_handler_init+0x6c>)
   1b4f0:	701a      	strb	r2, [r3, #0]
   1b4f2:	23c5      	movs	r3, #197	; 0xc5
   1b4f4:	009b      	lsls	r3, r3, #2
   1b4f6:	58cb      	ldr	r3, [r1, r3]
   1b4f8:	0d9b      	lsrs	r3, r3, #22
   1b4fa:	4213      	tst	r3, r2
   1b4fc:	d101      	bne.n	1b502 <softdevice_handler_init+0x3e>
   1b4fe:	480d      	ldr	r0, [pc, #52]	; (1b534 <softdevice_handler_init+0x70>)
   1b500:	e00b      	b.n	1b51a <softdevice_handler_init+0x56>
   1b502:	2480      	movs	r4, #128	; 0x80
   1b504:	4b0c      	ldr	r3, [pc, #48]	; (1b538 <softdevice_handler_init+0x74>)
   1b506:	03e4      	lsls	r4, r4, #15
   1b508:	6858      	ldr	r0, [r3, #4]
   1b50a:	2800      	cmp	r0, #0
   1b50c:	d004      	beq.n	1b518 <softdevice_handler_init+0x54>
   1b50e:	681a      	ldr	r2, [r3, #0]
   1b510:	0028      	movs	r0, r5
   1b512:	4322      	orrs	r2, r4
   1b514:	601a      	str	r2, [r3, #0]
   1b516:	e000      	b.n	1b51a <softdevice_handler_init+0x56>
   1b518:	600c      	str	r4, [r1, #0]
   1b51a:	bd70      	pop	{r4, r5, r6, pc}
   1b51c:	67e4      	str	r4, [r4, #124]	; 0x7c
   1b51e:	2000      	movs	r0, #0
   1b520:	67e0      	str	r0, [r4, #124]	; 0x7c
   1b522:	2000      	movs	r0, #0
   1b524:	67f0      	str	r0, [r6, #124]	; 0x7c
   1b526:	2000      	movs	r0, #0
   1b528:	b411      	push	{r0, r4}
   1b52a:	0001      	movs	r1, r0
   1b52c:	67de      	str	r6, [r3, #124]	; 0x7c
   1b52e:	2000      	movs	r0, #0
   1b530:	e100      	b.n	1b734 <adv_data_encode+0x54>
   1b532:	e000      	b.n	1b536 <softdevice_handler_init+0x72>
   1b534:	2002      	movs	r0, #2
   1b536:	0000      	movs	r0, r0
   1b538:	72a8      	strb	r0, [r5, #10]
   1b53a:	2000      	movs	r0, #0

0001b53c <softdevice_ble_evt_handler_set>:
   1b53c:	230e      	movs	r3, #14
   1b53e:	2800      	cmp	r0, #0
   1b540:	d002      	beq.n	1b548 <softdevice_ble_evt_handler_set+0xc>
   1b542:	4b02      	ldr	r3, [pc, #8]	; (1b54c <softdevice_ble_evt_handler_set+0x10>)
   1b544:	6018      	str	r0, [r3, #0]
   1b546:	2300      	movs	r3, #0
   1b548:	0018      	movs	r0, r3
   1b54a:	4770      	bx	lr
   1b54c:	67ec      	str	r4, [r5, #124]	; 0x7c
   1b54e:	2000      	movs	r0, #0

0001b550 <softdevice_sys_evt_handler_set>:
   1b550:	230e      	movs	r3, #14
   1b552:	2800      	cmp	r0, #0
   1b554:	d002      	beq.n	1b55c <softdevice_sys_evt_handler_set+0xc>
   1b556:	4b02      	ldr	r3, [pc, #8]	; (1b560 <softdevice_sys_evt_handler_set+0x10>)
   1b558:	6018      	str	r0, [r3, #0]
   1b55a:	2300      	movs	r3, #0
   1b55c:	0018      	movs	r0, r3
   1b55e:	4770      	bx	lr
   1b560:	67e8      	str	r0, [r5, #124]	; 0x7c
   1b562:	2000      	movs	r0, #0

0001b564 <SWI2_IRQHandler>:
   1b564:	4b06      	ldr	r3, [pc, #24]	; (1b580 <SWI2_IRQHandler+0x1c>)
   1b566:	b510      	push	{r4, lr}
   1b568:	681b      	ldr	r3, [r3, #0]
   1b56a:	2b00      	cmp	r3, #0
   1b56c:	d005      	beq.n	1b57a <SWI2_IRQHandler+0x16>
   1b56e:	4798      	blx	r3
   1b570:	2800      	cmp	r0, #0
   1b572:	d004      	beq.n	1b57e <SWI2_IRQHandler+0x1a>
   1b574:	f000 ffe8 	bl	1c548 <app_error_handler_bare>
   1b578:	e001      	b.n	1b57e <SWI2_IRQHandler+0x1a>
   1b57a:	f7ff ff4d 	bl	1b418 <intern_softdevice_events_execute>
   1b57e:	bd10      	pop	{r4, pc}
   1b580:	67f0      	str	r0, [r6, #124]	; 0x7c
   1b582:	2000      	movs	r0, #0

0001b584 <softdevice_enable_get_default_config>:
   1b584:	b570      	push	{r4, r5, r6, lr}
   1b586:	0014      	movs	r4, r2
   1b588:	0005      	movs	r5, r0
   1b58a:	000e      	movs	r6, r1
   1b58c:	2214      	movs	r2, #20
   1b58e:	2100      	movs	r1, #0
   1b590:	0020      	movs	r0, r4
   1b592:	f004 fab7 	bl	1fb04 <memset>
   1b596:	2301      	movs	r3, #1
   1b598:	2200      	movs	r2, #0
   1b59a:	8023      	strh	r3, [r4, #0]
   1b59c:	7322      	strb	r2, [r4, #12]
   1b59e:	7226      	strb	r6, [r4, #8]
   1b5a0:	7265      	strb	r5, [r4, #9]
   1b5a2:	4295      	cmp	r5, r2
   1b5a4:	d000      	beq.n	1b5a8 <softdevice_enable_get_default_config+0x24>
   1b5a6:	72a3      	strb	r3, [r4, #10]
   1b5a8:	2000      	movs	r0, #0
   1b5aa:	bd70      	pop	{r4, r5, r6, pc}

0001b5ac <sd_check_ram_start>:
   1b5ac:	2000      	movs	r0, #0
   1b5ae:	4b03      	ldr	r3, [pc, #12]	; (1b5bc <sd_check_ram_start+0x10>)
   1b5b0:	b082      	sub	sp, #8
   1b5b2:	9301      	str	r3, [sp, #4]
   1b5b4:	9b01      	ldr	r3, [sp, #4]
   1b5b6:	b002      	add	sp, #8
   1b5b8:	4770      	bx	lr
   1b5ba:	46c0      	nop			; (mov r8, r8)
   1b5bc:	2800      	cmp	r0, #0
   1b5be:	2000      	movs	r0, #0

0001b5c0 <softdevice_enable>:
   1b5c0:	b507      	push	{r0, r1, r2, lr}
   1b5c2:	4b04      	ldr	r3, [pc, #16]	; (1b5d4 <softdevice_enable+0x14>)
   1b5c4:	4669      	mov	r1, sp
   1b5c6:	9301      	str	r3, [sp, #4]
   1b5c8:	9b01      	ldr	r3, [sp, #4]
   1b5ca:	9300      	str	r3, [sp, #0]
   1b5cc:	f7ff ff1c 	bl	1b408 <sd_ble_enable>
   1b5d0:	bd0e      	pop	{r1, r2, r3, pc}
   1b5d2:	46c0      	nop			; (mov r8, r8)
   1b5d4:	2800      	cmp	r0, #0
   1b5d6:	2000      	movs	r0, #0

0001b5d8 <sd_ble_gap_address_get>:
   1b5d8:	df71      	svc	113	; 0x71
   1b5da:	4770      	bx	lr

0001b5dc <sd_ble_gap_adv_data_set>:
   1b5dc:	df72      	svc	114	; 0x72
   1b5de:	4770      	bx	lr

0001b5e0 <sd_ble_gap_appearance_get>:
   1b5e0:	df79      	svc	121	; 0x79
   1b5e2:	4770      	bx	lr

0001b5e4 <sd_ble_gap_device_name_get>:
   1b5e4:	df7d      	svc	125	; 0x7d
   1b5e6:	4770      	bx	lr

0001b5e8 <sd_ble_uuid_encode>:
   1b5e8:	df65      	svc	101	; 0x65
   1b5ea:	4770      	bx	lr

0001b5ec <uuid_list_sized_encode>:
   1b5ec:	b5f0      	push	{r4, r5, r6, r7, lr}
   1b5ee:	2500      	movs	r5, #0
   1b5f0:	0006      	movs	r6, r0
   1b5f2:	002f      	movs	r7, r5
   1b5f4:	b089      	sub	sp, #36	; 0x24
   1b5f6:	9301      	str	r3, [sp, #4]
   1b5f8:	ab0e      	add	r3, sp, #56	; 0x38
   1b5fa:	cb10      	ldmia	r3!, {r4}
   1b5fc:	9104      	str	r1, [sp, #16]
   1b5fe:	881b      	ldrh	r3, [r3, #0]
   1b600:	9203      	str	r2, [sp, #12]
   1b602:	9305      	str	r3, [sp, #20]
   1b604:	8823      	ldrh	r3, [r4, #0]
   1b606:	9302      	str	r3, [sp, #8]
   1b608:	8833      	ldrh	r3, [r6, #0]
   1b60a:	429f      	cmp	r7, r3
   1b60c:	da3d      	bge.n	1b68a <uuid_list_sized_encode+0x9e>
   1b60e:	6873      	ldr	r3, [r6, #4]
   1b610:	00b9      	lsls	r1, r7, #2
   1b612:	1859      	adds	r1, r3, r1
   1b614:	2204      	movs	r2, #4
   1b616:	a807      	add	r0, sp, #28
   1b618:	f004 fa56 	bl	1fac8 <memcpy>
   1b61c:	ab06      	add	r3, sp, #24
   1b61e:	2200      	movs	r2, #0
   1b620:	1cd9      	adds	r1, r3, #3
   1b622:	a807      	add	r0, sp, #28
   1b624:	f7ff ffe0 	bl	1b5e8 <sd_ble_uuid_encode>
   1b628:	2800      	cmp	r0, #0
   1b62a:	d13d      	bne.n	1b6a8 <uuid_list_sized_encode+0xbc>
   1b62c:	ab06      	add	r3, sp, #24
   1b62e:	78db      	ldrb	r3, [r3, #3]
   1b630:	9a03      	ldr	r2, [sp, #12]
   1b632:	4293      	cmp	r3, r2
   1b634:	d125      	bne.n	1b682 <uuid_list_sized_encode+0x96>
   1b636:	426a      	negs	r2, r5
   1b638:	416a      	adcs	r2, r5
   1b63a:	9903      	ldr	r1, [sp, #12]
   1b63c:	8823      	ldrh	r3, [r4, #0]
   1b63e:	0052      	lsls	r2, r2, #1
   1b640:	1859      	adds	r1, r3, r1
   1b642:	188a      	adds	r2, r1, r2
   1b644:	9905      	ldr	r1, [sp, #20]
   1b646:	428a      	cmp	r2, r1
   1b648:	dc1d      	bgt.n	1b686 <uuid_list_sized_encode+0x9a>
   1b64a:	2d00      	cmp	r5, #0
   1b64c:	d109      	bne.n	1b662 <uuid_list_sized_encode+0x76>
   1b64e:	4669      	mov	r1, sp
   1b650:	3301      	adds	r3, #1
   1b652:	9a01      	ldr	r2, [sp, #4]
   1b654:	7c09      	ldrb	r1, [r1, #16]
   1b656:	b29b      	uxth	r3, r3
   1b658:	8023      	strh	r3, [r4, #0]
   1b65a:	54d1      	strb	r1, [r2, r3]
   1b65c:	8823      	ldrh	r3, [r4, #0]
   1b65e:	3301      	adds	r3, #1
   1b660:	8023      	strh	r3, [r4, #0]
   1b662:	9b01      	ldr	r3, [sp, #4]
   1b664:	8822      	ldrh	r2, [r4, #0]
   1b666:	a807      	add	r0, sp, #28
   1b668:	189a      	adds	r2, r3, r2
   1b66a:	ab06      	add	r3, sp, #24
   1b66c:	1cdd      	adds	r5, r3, #3
   1b66e:	0029      	movs	r1, r5
   1b670:	f7ff ffba 	bl	1b5e8 <sd_ble_uuid_encode>
   1b674:	2800      	cmp	r0, #0
   1b676:	d117      	bne.n	1b6a8 <uuid_list_sized_encode+0xbc>
   1b678:	782a      	ldrb	r2, [r5, #0]
   1b67a:	2501      	movs	r5, #1
   1b67c:	8823      	ldrh	r3, [r4, #0]
   1b67e:	18d3      	adds	r3, r2, r3
   1b680:	8023      	strh	r3, [r4, #0]
   1b682:	3701      	adds	r7, #1
   1b684:	e7c0      	b.n	1b608 <uuid_list_sized_encode+0x1c>
   1b686:	200c      	movs	r0, #12
   1b688:	e00e      	b.n	1b6a8 <uuid_list_sized_encode+0xbc>
   1b68a:	2000      	movs	r0, #0
   1b68c:	4285      	cmp	r5, r0
   1b68e:	d00b      	beq.n	1b6a8 <uuid_list_sized_encode+0xbc>
   1b690:	8823      	ldrh	r3, [r4, #0]
   1b692:	9a02      	ldr	r2, [sp, #8]
   1b694:	3b01      	subs	r3, #1
   1b696:	1a9b      	subs	r3, r3, r2
   1b698:	b29b      	uxth	r3, r3
   1b69a:	300c      	adds	r0, #12
   1b69c:	2bff      	cmp	r3, #255	; 0xff
   1b69e:	d803      	bhi.n	1b6a8 <uuid_list_sized_encode+0xbc>
   1b6a0:	2000      	movs	r0, #0
   1b6a2:	9a01      	ldr	r2, [sp, #4]
   1b6a4:	9902      	ldr	r1, [sp, #8]
   1b6a6:	5453      	strb	r3, [r2, r1]
   1b6a8:	b009      	add	sp, #36	; 0x24
   1b6aa:	bdf0      	pop	{r4, r5, r6, r7, pc}

0001b6ac <uuid_list_encode>:
   1b6ac:	b5f0      	push	{r4, r5, r6, r7, lr}
   1b6ae:	001d      	movs	r5, r3
   1b6b0:	b085      	sub	sp, #20
   1b6b2:	ab0a      	add	r3, sp, #40	; 0x28
   1b6b4:	cb40      	ldmia	r3!, {r6}
   1b6b6:	9203      	str	r2, [sp, #12]
   1b6b8:	881f      	ldrh	r7, [r3, #0]
   1b6ba:	2202      	movs	r2, #2
   1b6bc:	9701      	str	r7, [sp, #4]
   1b6be:	9600      	str	r6, [sp, #0]
   1b6c0:	002b      	movs	r3, r5
   1b6c2:	0004      	movs	r4, r0
   1b6c4:	f7ff ff92 	bl	1b5ec <uuid_list_sized_encode>
   1b6c8:	2800      	cmp	r0, #0
   1b6ca:	d107      	bne.n	1b6dc <uuid_list_encode+0x30>
   1b6cc:	9701      	str	r7, [sp, #4]
   1b6ce:	9600      	str	r6, [sp, #0]
   1b6d0:	002b      	movs	r3, r5
   1b6d2:	2210      	movs	r2, #16
   1b6d4:	9903      	ldr	r1, [sp, #12]
   1b6d6:	0020      	movs	r0, r4
   1b6d8:	f7ff ff88 	bl	1b5ec <uuid_list_sized_encode>
   1b6dc:	b005      	add	sp, #20
   1b6de:	bdf0      	pop	{r4, r5, r6, r7, pc}

0001b6e0 <adv_data_encode>:
   1b6e0:	b5f0      	push	{r4, r5, r6, r7, lr}
   1b6e2:	8813      	ldrh	r3, [r2, #0]
   1b6e4:	b087      	sub	sp, #28
   1b6e6:	9302      	str	r3, [sp, #8]
   1b6e8:	2300      	movs	r3, #0
   1b6ea:	8013      	strh	r3, [r2, #0]
   1b6ec:	6b43      	ldr	r3, [r0, #52]	; 0x34
   1b6ee:	0007      	movs	r7, r0
   1b6f0:	000d      	movs	r5, r1
   1b6f2:	0014      	movs	r4, r2
   1b6f4:	2b00      	cmp	r3, #0
   1b6f6:	d014      	beq.n	1b722 <adv_data_encode+0x42>
   1b6f8:	9a02      	ldr	r2, [sp, #8]
   1b6fa:	2a02      	cmp	r2, #2
   1b6fc:	d800      	bhi.n	1b700 <adv_data_encode+0x20>
   1b6fe:	e227      	b.n	1bb50 <adv_data_encode+0x470>
   1b700:	781a      	ldrb	r2, [r3, #0]
   1b702:	2302      	movs	r3, #2
   1b704:	700b      	strb	r3, [r1, #0]
   1b706:	2111      	movs	r1, #17
   1b708:	8823      	ldrh	r3, [r4, #0]
   1b70a:	3301      	adds	r3, #1
   1b70c:	b29b      	uxth	r3, r3
   1b70e:	8023      	strh	r3, [r4, #0]
   1b710:	54e9      	strb	r1, [r5, r3]
   1b712:	8823      	ldrh	r3, [r4, #0]
   1b714:	3301      	adds	r3, #1
   1b716:	b29b      	uxth	r3, r3
   1b718:	8023      	strh	r3, [r4, #0]
   1b71a:	54ea      	strb	r2, [r5, r3]
   1b71c:	8823      	ldrh	r3, [r4, #0]
   1b71e:	3301      	adds	r3, #1
   1b720:	8023      	strh	r3, [r4, #0]
   1b722:	6b3a      	ldr	r2, [r7, #48]	; 0x30
   1b724:	2a00      	cmp	r2, #0
   1b726:	d105      	bne.n	1b734 <adv_data_encode+0x54>
   1b728:	003b      	movs	r3, r7
   1b72a:	332e      	adds	r3, #46	; 0x2e
   1b72c:	781a      	ldrb	r2, [r3, #0]
   1b72e:	2a00      	cmp	r2, #0
   1b730:	d047      	beq.n	1b7c2 <adv_data_encode+0xe2>
   1b732:	e01e      	b.n	1b772 <adv_data_encode+0x92>
   1b734:	8823      	ldrh	r3, [r4, #0]
   1b736:	9802      	ldr	r0, [sp, #8]
   1b738:	0019      	movs	r1, r3
   1b73a:	3112      	adds	r1, #18
   1b73c:	4281      	cmp	r1, r0
   1b73e:	d900      	bls.n	1b742 <adv_data_encode+0x62>
   1b740:	e206      	b.n	1bb50 <adv_data_encode+0x470>
   1b742:	2111      	movs	r1, #17
   1b744:	54e9      	strb	r1, [r5, r3]
   1b746:	8823      	ldrh	r3, [r4, #0]
   1b748:	3901      	subs	r1, #1
   1b74a:	3301      	adds	r3, #1
   1b74c:	b29b      	uxth	r3, r3
   1b74e:	8023      	strh	r3, [r4, #0]
   1b750:	54e9      	strb	r1, [r5, r3]
   1b752:	8823      	ldrh	r3, [r4, #0]
   1b754:	3301      	adds	r3, #1
   1b756:	8023      	strh	r3, [r4, #0]
   1b758:	0013      	movs	r3, r2
   1b75a:	3a01      	subs	r2, #1
   1b75c:	330f      	adds	r3, #15
   1b75e:	7818      	ldrb	r0, [r3, #0]
   1b760:	8821      	ldrh	r1, [r4, #0]
   1b762:	3b01      	subs	r3, #1
   1b764:	5468      	strb	r0, [r5, r1]
   1b766:	8821      	ldrh	r1, [r4, #0]
   1b768:	3101      	adds	r1, #1
   1b76a:	8021      	strh	r1, [r4, #0]
   1b76c:	4293      	cmp	r3, r2
   1b76e:	d1f6      	bne.n	1b75e <adv_data_encode+0x7e>
   1b770:	e7da      	b.n	1b728 <adv_data_encode+0x48>
   1b772:	8823      	ldrh	r3, [r4, #0]
   1b774:	9e02      	ldr	r6, [sp, #8]
   1b776:	1cd9      	adds	r1, r3, #3
   1b778:	200c      	movs	r0, #12
   1b77a:	42b1      	cmp	r1, r6
   1b77c:	d900      	bls.n	1b780 <adv_data_encode+0xa0>
   1b77e:	e1e8      	b.n	1bb52 <adv_data_encode+0x472>
   1b780:	2102      	movs	r1, #2
   1b782:	54e9      	strb	r1, [r5, r3]
   1b784:	8823      	ldrh	r3, [r4, #0]
   1b786:	3010      	adds	r0, #16
   1b788:	3301      	adds	r3, #1
   1b78a:	b29b      	uxth	r3, r3
   1b78c:	8023      	strh	r3, [r4, #0]
   1b78e:	54e8      	strb	r0, [r5, r3]
   1b790:	8823      	ldrh	r3, [r4, #0]
   1b792:	3a01      	subs	r2, #1
   1b794:	3301      	adds	r3, #1
   1b796:	b29b      	uxth	r3, r3
   1b798:	8023      	strh	r3, [r4, #0]
   1b79a:	3815      	subs	r0, #21
   1b79c:	2a03      	cmp	r2, #3
   1b79e:	d900      	bls.n	1b7a2 <adv_data_encode+0xc2>
   1b7a0:	e1d7      	b.n	1bb52 <adv_data_encode+0x472>
   1b7a2:	0010      	movs	r0, r2
   1b7a4:	f004 f830 	bl	1f808 <__gnu_thumb1_case_uqi>
   1b7a8:	0402      	lsls	r2, r0, #16
   1b7aa:	0806      	lsrs	r6, r0, #32
   1b7ac:	2200      	movs	r2, #0
   1b7ae:	e004      	b.n	1b7ba <adv_data_encode+0xda>
   1b7b0:	2201      	movs	r2, #1
   1b7b2:	e002      	b.n	1b7ba <adv_data_encode+0xda>
   1b7b4:	54e9      	strb	r1, [r5, r3]
   1b7b6:	e001      	b.n	1b7bc <adv_data_encode+0xdc>
   1b7b8:	2203      	movs	r2, #3
   1b7ba:	54ea      	strb	r2, [r5, r3]
   1b7bc:	8823      	ldrh	r3, [r4, #0]
   1b7be:	3301      	adds	r3, #1
   1b7c0:	8023      	strh	r3, [r4, #0]
   1b7c2:	003b      	movs	r3, r7
   1b7c4:	332d      	adds	r3, #45	; 0x2d
   1b7c6:	781b      	ldrb	r3, [r3, #0]
   1b7c8:	2b00      	cmp	r3, #0
   1b7ca:	d103      	bne.n	1b7d4 <adv_data_encode+0xf4>
   1b7cc:	78bb      	ldrb	r3, [r7, #2]
   1b7ce:	2b00      	cmp	r3, #0
   1b7d0:	d052      	beq.n	1b878 <adv_data_encode+0x198>
   1b7d2:	e02e      	b.n	1b832 <adv_data_encode+0x152>
   1b7d4:	8823      	ldrh	r3, [r4, #0]
   1b7d6:	9a02      	ldr	r2, [sp, #8]
   1b7d8:	3309      	adds	r3, #9
   1b7da:	200c      	movs	r0, #12
   1b7dc:	4293      	cmp	r3, r2
   1b7de:	d900      	bls.n	1b7e2 <adv_data_encode+0x102>
   1b7e0:	e1b7      	b.n	1bb52 <adv_data_encode+0x472>
   1b7e2:	ae04      	add	r6, sp, #16
   1b7e4:	0030      	movs	r0, r6
   1b7e6:	f7ff fef7 	bl	1b5d8 <sd_ble_gap_address_get>
   1b7ea:	2800      	cmp	r0, #0
   1b7ec:	d000      	beq.n	1b7f0 <adv_data_encode+0x110>
   1b7ee:	e1b0      	b.n	1bb52 <adv_data_encode+0x472>
   1b7f0:	2208      	movs	r2, #8
   1b7f2:	2109      	movs	r1, #9
   1b7f4:	8823      	ldrh	r3, [r4, #0]
   1b7f6:	54ea      	strb	r2, [r5, r3]
   1b7f8:	8823      	ldrh	r3, [r4, #0]
   1b7fa:	3213      	adds	r2, #19
   1b7fc:	3301      	adds	r3, #1
   1b7fe:	b29b      	uxth	r3, r3
   1b800:	8023      	strh	r3, [r4, #0]
   1b802:	54ea      	strb	r2, [r5, r3]
   1b804:	8820      	ldrh	r0, [r4, #0]
   1b806:	ab02      	add	r3, sp, #8
   1b808:	3001      	adds	r0, #1
   1b80a:	b280      	uxth	r0, r0
   1b80c:	8020      	strh	r0, [r4, #0]
   1b80e:	3a15      	subs	r2, #21
   1b810:	18c9      	adds	r1, r1, r3
   1b812:	1828      	adds	r0, r5, r0
   1b814:	f004 f958 	bl	1fac8 <memcpy>
   1b818:	8823      	ldrh	r3, [r4, #0]
   1b81a:	7832      	ldrb	r2, [r6, #0]
   1b81c:	3306      	adds	r3, #6
   1b81e:	b29b      	uxth	r3, r3
   1b820:	8023      	strh	r3, [r4, #0]
   1b822:	2a00      	cmp	r2, #0
   1b824:	d000      	beq.n	1b828 <adv_data_encode+0x148>
   1b826:	2201      	movs	r2, #1
   1b828:	54ea      	strb	r2, [r5, r3]
   1b82a:	8823      	ldrh	r3, [r4, #0]
   1b82c:	3301      	adds	r3, #1
   1b82e:	8023      	strh	r3, [r4, #0]
   1b830:	e7cc      	b.n	1b7cc <adv_data_encode+0xec>
   1b832:	8823      	ldrh	r3, [r4, #0]
   1b834:	9a02      	ldr	r2, [sp, #8]
   1b836:	3304      	adds	r3, #4
   1b838:	200c      	movs	r0, #12
   1b83a:	4293      	cmp	r3, r2
   1b83c:	d900      	bls.n	1b840 <adv_data_encode+0x160>
   1b83e:	e188      	b.n	1bb52 <adv_data_encode+0x472>
   1b840:	ae04      	add	r6, sp, #16
   1b842:	0030      	movs	r0, r6
   1b844:	f7ff fecc 	bl	1b5e0 <sd_ble_gap_appearance_get>
   1b848:	2800      	cmp	r0, #0
   1b84a:	d000      	beq.n	1b84e <adv_data_encode+0x16e>
   1b84c:	e181      	b.n	1bb52 <adv_data_encode+0x472>
   1b84e:	2203      	movs	r2, #3
   1b850:	8823      	ldrh	r3, [r4, #0]
   1b852:	54ea      	strb	r2, [r5, r3]
   1b854:	8823      	ldrh	r3, [r4, #0]
   1b856:	3216      	adds	r2, #22
   1b858:	3301      	adds	r3, #1
   1b85a:	b29b      	uxth	r3, r3
   1b85c:	8023      	strh	r3, [r4, #0]
   1b85e:	54ea      	strb	r2, [r5, r3]
   1b860:	8823      	ldrh	r3, [r4, #0]
   1b862:	8832      	ldrh	r2, [r6, #0]
   1b864:	3301      	adds	r3, #1
   1b866:	b29b      	uxth	r3, r3
   1b868:	8023      	strh	r3, [r4, #0]
   1b86a:	18eb      	adds	r3, r5, r3
   1b86c:	701a      	strb	r2, [r3, #0]
   1b86e:	0a12      	lsrs	r2, r2, #8
   1b870:	705a      	strb	r2, [r3, #1]
   1b872:	8823      	ldrh	r3, [r4, #0]
   1b874:	3302      	adds	r3, #2
   1b876:	8023      	strh	r3, [r4, #0]
   1b878:	78fa      	ldrb	r2, [r7, #3]
   1b87a:	2a00      	cmp	r2, #0
   1b87c:	d015      	beq.n	1b8aa <adv_data_encode+0x1ca>
   1b87e:	8823      	ldrh	r3, [r4, #0]
   1b880:	9802      	ldr	r0, [sp, #8]
   1b882:	1cd9      	adds	r1, r3, #3
   1b884:	4281      	cmp	r1, r0
   1b886:	d900      	bls.n	1b88a <adv_data_encode+0x1aa>
   1b888:	e162      	b.n	1bb50 <adv_data_encode+0x470>
   1b88a:	2102      	movs	r1, #2
   1b88c:	54e9      	strb	r1, [r5, r3]
   1b88e:	8823      	ldrh	r3, [r4, #0]
   1b890:	3901      	subs	r1, #1
   1b892:	3301      	adds	r3, #1
   1b894:	b29b      	uxth	r3, r3
   1b896:	8023      	strh	r3, [r4, #0]
   1b898:	54e9      	strb	r1, [r5, r3]
   1b89a:	8823      	ldrh	r3, [r4, #0]
   1b89c:	185b      	adds	r3, r3, r1
   1b89e:	b29b      	uxth	r3, r3
   1b8a0:	8023      	strh	r3, [r4, #0]
   1b8a2:	54ea      	strb	r2, [r5, r3]
   1b8a4:	8823      	ldrh	r3, [r4, #0]
   1b8a6:	185b      	adds	r3, r3, r1
   1b8a8:	8023      	strh	r3, [r4, #0]
   1b8aa:	687a      	ldr	r2, [r7, #4]
   1b8ac:	2a00      	cmp	r2, #0
   1b8ae:	d017      	beq.n	1b8e0 <adv_data_encode+0x200>
   1b8b0:	8823      	ldrh	r3, [r4, #0]
   1b8b2:	9802      	ldr	r0, [sp, #8]
   1b8b4:	1cd9      	adds	r1, r3, #3
   1b8b6:	4281      	cmp	r1, r0
   1b8b8:	d900      	bls.n	1b8bc <adv_data_encode+0x1dc>
   1b8ba:	e149      	b.n	1bb50 <adv_data_encode+0x470>
   1b8bc:	2102      	movs	r1, #2
   1b8be:	7812      	ldrb	r2, [r2, #0]
   1b8c0:	54e9      	strb	r1, [r5, r3]
   1b8c2:	8823      	ldrh	r3, [r4, #0]
   1b8c4:	3108      	adds	r1, #8
   1b8c6:	3301      	adds	r3, #1
   1b8c8:	b29b      	uxth	r3, r3
   1b8ca:	8023      	strh	r3, [r4, #0]
   1b8cc:	54e9      	strb	r1, [r5, r3]
   1b8ce:	8823      	ldrh	r3, [r4, #0]
   1b8d0:	b252      	sxtb	r2, r2
   1b8d2:	3301      	adds	r3, #1
   1b8d4:	b29b      	uxth	r3, r3
   1b8d6:	8023      	strh	r3, [r4, #0]
   1b8d8:	54ea      	strb	r2, [r5, r3]
   1b8da:	8823      	ldrh	r3, [r4, #0]
   1b8dc:	3301      	adds	r3, #1
   1b8de:	8023      	strh	r3, [r4, #0]
   1b8e0:	893b      	ldrh	r3, [r7, #8]
   1b8e2:	2b00      	cmp	r3, #0
   1b8e4:	d103      	bne.n	1b8ee <adv_data_encode+0x20e>
   1b8e6:	8a3b      	ldrh	r3, [r7, #16]
   1b8e8:	2b00      	cmp	r3, #0
   1b8ea:	d01a      	beq.n	1b922 <adv_data_encode+0x242>
   1b8ec:	e00c      	b.n	1b908 <adv_data_encode+0x228>
   1b8ee:	0038      	movs	r0, r7
   1b8f0:	9b02      	ldr	r3, [sp, #8]
   1b8f2:	9400      	str	r4, [sp, #0]
   1b8f4:	9301      	str	r3, [sp, #4]
   1b8f6:	2206      	movs	r2, #6
   1b8f8:	002b      	movs	r3, r5
   1b8fa:	2102      	movs	r1, #2
   1b8fc:	3008      	adds	r0, #8
   1b8fe:	f7ff fed5 	bl	1b6ac <uuid_list_encode>
   1b902:	2800      	cmp	r0, #0
   1b904:	d0ef      	beq.n	1b8e6 <adv_data_encode+0x206>
   1b906:	e124      	b.n	1bb52 <adv_data_encode+0x472>
   1b908:	0038      	movs	r0, r7
   1b90a:	9b02      	ldr	r3, [sp, #8]
   1b90c:	9400      	str	r4, [sp, #0]
   1b90e:	9301      	str	r3, [sp, #4]
   1b910:	2207      	movs	r2, #7
   1b912:	002b      	movs	r3, r5
   1b914:	2103      	movs	r1, #3
   1b916:	3010      	adds	r0, #16
   1b918:	f7ff fec8 	bl	1b6ac <uuid_list_encode>
   1b91c:	2800      	cmp	r0, #0
   1b91e:	d000      	beq.n	1b922 <adv_data_encode+0x242>
   1b920:	e117      	b.n	1bb52 <adv_data_encode+0x472>
   1b922:	8b3b      	ldrh	r3, [r7, #24]
   1b924:	2b00      	cmp	r3, #0
   1b926:	d00c      	beq.n	1b942 <adv_data_encode+0x262>
   1b928:	0038      	movs	r0, r7
   1b92a:	9b02      	ldr	r3, [sp, #8]
   1b92c:	9400      	str	r4, [sp, #0]
   1b92e:	9301      	str	r3, [sp, #4]
   1b930:	2215      	movs	r2, #21
   1b932:	002b      	movs	r3, r5
   1b934:	2114      	movs	r1, #20
   1b936:	3018      	adds	r0, #24
   1b938:	f7ff feb8 	bl	1b6ac <uuid_list_encode>
   1b93c:	2800      	cmp	r0, #0
   1b93e:	d000      	beq.n	1b942 <adv_data_encode+0x262>
   1b940:	e107      	b.n	1bb52 <adv_data_encode+0x472>
   1b942:	6a3b      	ldr	r3, [r7, #32]
   1b944:	2b00      	cmp	r3, #0
   1b946:	d044      	beq.n	1b9d2 <adv_data_encode+0x2f2>
   1b948:	8822      	ldrh	r2, [r4, #0]
   1b94a:	9902      	ldr	r1, [sp, #8]
   1b94c:	9203      	str	r2, [sp, #12]
   1b94e:	3206      	adds	r2, #6
   1b950:	200c      	movs	r0, #12
   1b952:	428a      	cmp	r2, r1
   1b954:	d900      	bls.n	1b958 <adv_data_encode+0x278>
   1b956:	e0fc      	b.n	1bb52 <adv_data_encode+0x472>
   1b958:	8819      	ldrh	r1, [r3, #0]
   1b95a:	3805      	subs	r0, #5
   1b95c:	2905      	cmp	r1, #5
   1b95e:	d800      	bhi.n	1b962 <adv_data_encode+0x282>
   1b960:	e0f7      	b.n	1bb52 <adv_data_encode+0x472>
   1b962:	4a7d      	ldr	r2, [pc, #500]	; (1bb58 <adv_data_encode+0x478>)
   1b964:	4e7d      	ldr	r6, [pc, #500]	; (1bb5c <adv_data_encode+0x47c>)
   1b966:	188a      	adds	r2, r1, r2
   1b968:	b292      	uxth	r2, r2
   1b96a:	46b4      	mov	ip, r6
   1b96c:	42b2      	cmp	r2, r6
   1b96e:	d800      	bhi.n	1b972 <adv_data_encode+0x292>
   1b970:	e0ef      	b.n	1bb52 <adv_data_encode+0x472>
   1b972:	885a      	ldrh	r2, [r3, #2]
   1b974:	2a05      	cmp	r2, #5
   1b976:	d800      	bhi.n	1b97a <adv_data_encode+0x29a>
   1b978:	e0eb      	b.n	1bb52 <adv_data_encode+0x472>
   1b97a:	4e77      	ldr	r6, [pc, #476]	; (1bb58 <adv_data_encode+0x478>)
   1b97c:	1996      	adds	r6, r2, r6
   1b97e:	b2b6      	uxth	r6, r6
   1b980:	4566      	cmp	r6, ip
   1b982:	d800      	bhi.n	1b986 <adv_data_encode+0x2a6>
   1b984:	e0e5      	b.n	1bb52 <adv_data_encode+0x472>
   1b986:	4e76      	ldr	r6, [pc, #472]	; (1bb60 <adv_data_encode+0x480>)
   1b988:	42b1      	cmp	r1, r6
   1b98a:	d004      	beq.n	1b996 <adv_data_encode+0x2b6>
   1b98c:	42b2      	cmp	r2, r6
   1b98e:	d002      	beq.n	1b996 <adv_data_encode+0x2b6>
   1b990:	4291      	cmp	r1, r2
   1b992:	d900      	bls.n	1b996 <adv_data_encode+0x2b6>
   1b994:	e0dd      	b.n	1bb52 <adv_data_encode+0x472>
   1b996:	2205      	movs	r2, #5
   1b998:	9903      	ldr	r1, [sp, #12]
   1b99a:	546a      	strb	r2, [r5, r1]
   1b99c:	2112      	movs	r1, #18
   1b99e:	8822      	ldrh	r2, [r4, #0]
   1b9a0:	3201      	adds	r2, #1
   1b9a2:	b292      	uxth	r2, r2
   1b9a4:	8022      	strh	r2, [r4, #0]
   1b9a6:	54a9      	strb	r1, [r5, r2]
   1b9a8:	8822      	ldrh	r2, [r4, #0]
   1b9aa:	3201      	adds	r2, #1
   1b9ac:	b292      	uxth	r2, r2
   1b9ae:	8022      	strh	r2, [r4, #0]
   1b9b0:	8819      	ldrh	r1, [r3, #0]
   1b9b2:	18aa      	adds	r2, r5, r2
   1b9b4:	7011      	strb	r1, [r2, #0]
   1b9b6:	0a09      	lsrs	r1, r1, #8
   1b9b8:	7051      	strb	r1, [r2, #1]
   1b9ba:	8822      	ldrh	r2, [r4, #0]
   1b9bc:	3202      	adds	r2, #2
   1b9be:	b292      	uxth	r2, r2
   1b9c0:	8022      	strh	r2, [r4, #0]
   1b9c2:	8859      	ldrh	r1, [r3, #2]
   1b9c4:	18ab      	adds	r3, r5, r2
   1b9c6:	7019      	strb	r1, [r3, #0]
   1b9c8:	0a09      	lsrs	r1, r1, #8
   1b9ca:	7059      	strb	r1, [r3, #1]
   1b9cc:	8823      	ldrh	r3, [r4, #0]
   1b9ce:	3302      	adds	r3, #2
   1b9d0:	8023      	strh	r3, [r4, #0]
   1b9d2:	6a7e      	ldr	r6, [r7, #36]	; 0x24
   1b9d4:	2e00      	cmp	r6, #0
   1b9d6:	d031      	beq.n	1ba3c <adv_data_encode+0x35c>
   1b9d8:	88b3      	ldrh	r3, [r6, #4]
   1b9da:	8821      	ldrh	r1, [r4, #0]
   1b9dc:	1d1a      	adds	r2, r3, #4
   1b9de:	1852      	adds	r2, r2, r1
   1b9e0:	4694      	mov	ip, r2
   1b9e2:	9a02      	ldr	r2, [sp, #8]
   1b9e4:	200c      	movs	r0, #12
   1b9e6:	4594      	cmp	ip, r2
   1b9e8:	d900      	bls.n	1b9ec <adv_data_encode+0x30c>
   1b9ea:	e0b2      	b.n	1bb52 <adv_data_encode+0x472>
   1b9ec:	1c9a      	adds	r2, r3, #2
   1b9ee:	2afe      	cmp	r2, #254	; 0xfe
   1b9f0:	d900      	bls.n	1b9f4 <adv_data_encode+0x314>
   1b9f2:	e0ae      	b.n	1bb52 <adv_data_encode+0x472>
   1b9f4:	22ff      	movs	r2, #255	; 0xff
   1b9f6:	3303      	adds	r3, #3
   1b9f8:	546b      	strb	r3, [r5, r1]
   1b9fa:	8823      	ldrh	r3, [r4, #0]
   1b9fc:	3301      	adds	r3, #1
   1b9fe:	b29b      	uxth	r3, r3
   1ba00:	8023      	strh	r3, [r4, #0]
   1ba02:	54ea      	strb	r2, [r5, r3]
   1ba04:	8823      	ldrh	r3, [r4, #0]
   1ba06:	3301      	adds	r3, #1
   1ba08:	b29b      	uxth	r3, r3
   1ba0a:	8023      	strh	r3, [r4, #0]
   1ba0c:	8832      	ldrh	r2, [r6, #0]
   1ba0e:	18eb      	adds	r3, r5, r3
   1ba10:	701a      	strb	r2, [r3, #0]
   1ba12:	0a12      	lsrs	r2, r2, #8
   1ba14:	705a      	strb	r2, [r3, #1]
   1ba16:	8823      	ldrh	r3, [r4, #0]
   1ba18:	3302      	adds	r3, #2
   1ba1a:	b29b      	uxth	r3, r3
   1ba1c:	8023      	strh	r3, [r4, #0]
   1ba1e:	88b2      	ldrh	r2, [r6, #4]
   1ba20:	2a00      	cmp	r2, #0
   1ba22:	d00b      	beq.n	1ba3c <adv_data_encode+0x35c>
   1ba24:	68b1      	ldr	r1, [r6, #8]
   1ba26:	3805      	subs	r0, #5
   1ba28:	2900      	cmp	r1, #0
   1ba2a:	d100      	bne.n	1ba2e <adv_data_encode+0x34e>
   1ba2c:	e091      	b.n	1bb52 <adv_data_encode+0x472>
   1ba2e:	18e8      	adds	r0, r5, r3
   1ba30:	f004 f84a 	bl	1fac8 <memcpy>
   1ba34:	8822      	ldrh	r2, [r4, #0]
   1ba36:	88b3      	ldrh	r3, [r6, #4]
   1ba38:	18d3      	adds	r3, r2, r3
   1ba3a:	8023      	strh	r3, [r4, #0]
   1ba3c:	003b      	movs	r3, r7
   1ba3e:	332c      	adds	r3, #44	; 0x2c
   1ba40:	781b      	ldrb	r3, [r3, #0]
   1ba42:	2b00      	cmp	r3, #0
   1ba44:	d104      	bne.n	1ba50 <adv_data_encode+0x370>
   1ba46:	783b      	ldrb	r3, [r7, #0]
   1ba48:	1e18      	subs	r0, r3, #0
   1ba4a:	d100      	bne.n	1ba4e <adv_data_encode+0x36e>
   1ba4c:	e081      	b.n	1bb52 <adv_data_encode+0x472>
   1ba4e:	e03b      	b.n	1bac8 <adv_data_encode+0x3e8>
   1ba50:	6abb      	ldr	r3, [r7, #40]	; 0x28
   1ba52:	2b00      	cmp	r3, #0
   1ba54:	d100      	bne.n	1ba58 <adv_data_encode+0x378>
   1ba56:	e079      	b.n	1bb4c <adv_data_encode+0x46c>
   1ba58:	2300      	movs	r3, #0
   1ba5a:	9303      	str	r3, [sp, #12]
   1ba5c:	003b      	movs	r3, r7
   1ba5e:	332c      	adds	r3, #44	; 0x2c
   1ba60:	781b      	ldrb	r3, [r3, #0]
   1ba62:	9a03      	ldr	r2, [sp, #12]
   1ba64:	4293      	cmp	r3, r2
   1ba66:	d9ee      	bls.n	1ba46 <adv_data_encode+0x366>
   1ba68:	260c      	movs	r6, #12
   1ba6a:	9b03      	ldr	r3, [sp, #12]
   1ba6c:	435e      	muls	r6, r3
   1ba6e:	6abb      	ldr	r3, [r7, #40]	; 0x28
   1ba70:	199e      	adds	r6, r3, r6
   1ba72:	88b3      	ldrh	r3, [r6, #4]
   1ba74:	1c9a      	adds	r2, r3, #2
   1ba76:	2afe      	cmp	r2, #254	; 0xfe
   1ba78:	d86a      	bhi.n	1bb50 <adv_data_encode+0x470>
   1ba7a:	8822      	ldrh	r2, [r4, #0]
   1ba7c:	3303      	adds	r3, #3
   1ba7e:	54ab      	strb	r3, [r5, r2]
   1ba80:	2216      	movs	r2, #22
   1ba82:	8823      	ldrh	r3, [r4, #0]
   1ba84:	3301      	adds	r3, #1
   1ba86:	b29b      	uxth	r3, r3
   1ba88:	8023      	strh	r3, [r4, #0]
   1ba8a:	54ea      	strb	r2, [r5, r3]
   1ba8c:	8823      	ldrh	r3, [r4, #0]
   1ba8e:	3301      	adds	r3, #1
   1ba90:	b29b      	uxth	r3, r3
   1ba92:	8023      	strh	r3, [r4, #0]
   1ba94:	8832      	ldrh	r2, [r6, #0]
   1ba96:	18eb      	adds	r3, r5, r3
   1ba98:	701a      	strb	r2, [r3, #0]
   1ba9a:	0a12      	lsrs	r2, r2, #8
   1ba9c:	705a      	strb	r2, [r3, #1]
   1ba9e:	8820      	ldrh	r0, [r4, #0]
   1baa0:	3002      	adds	r0, #2
   1baa2:	b280      	uxth	r0, r0
   1baa4:	8020      	strh	r0, [r4, #0]
   1baa6:	88b2      	ldrh	r2, [r6, #4]
   1baa8:	2a00      	cmp	r2, #0
   1baaa:	d009      	beq.n	1bac0 <adv_data_encode+0x3e0>
   1baac:	68b1      	ldr	r1, [r6, #8]
   1baae:	2900      	cmp	r1, #0
   1bab0:	d04c      	beq.n	1bb4c <adv_data_encode+0x46c>
   1bab2:	1828      	adds	r0, r5, r0
   1bab4:	f004 f808 	bl	1fac8 <memcpy>
   1bab8:	8822      	ldrh	r2, [r4, #0]
   1baba:	88b3      	ldrh	r3, [r6, #4]
   1babc:	18d3      	adds	r3, r2, r3
   1babe:	8023      	strh	r3, [r4, #0]
   1bac0:	9b03      	ldr	r3, [sp, #12]
   1bac2:	3301      	adds	r3, #1
   1bac4:	b2db      	uxtb	r3, r3
   1bac6:	e7c8      	b.n	1ba5a <adv_data_encode+0x37a>
   1bac8:	883a      	ldrh	r2, [r7, #0]
   1baca:	2007      	movs	r0, #7
   1bacc:	2a01      	cmp	r2, #1
   1bace:	d040      	beq.n	1bb52 <adv_data_encode+0x472>
   1bad0:	8822      	ldrh	r2, [r4, #0]
   1bad2:	9902      	ldr	r1, [sp, #8]
   1bad4:	1c90      	adds	r0, r2, #2
   1bad6:	4288      	cmp	r0, r1
   1bad8:	d83a      	bhi.n	1bb50 <adv_data_encode+0x470>
   1bada:	2b01      	cmp	r3, #1
   1badc:	d105      	bne.n	1baea <adv_data_encode+0x40a>
   1bade:	787b      	ldrb	r3, [r7, #1]
   1bae0:	9902      	ldr	r1, [sp, #8]
   1bae2:	3302      	adds	r3, #2
   1bae4:	189b      	adds	r3, r3, r2
   1bae6:	4299      	cmp	r1, r3
   1bae8:	d332      	bcc.n	1bb50 <adv_data_encode+0x470>
   1baea:	9b02      	ldr	r3, [sp, #8]
   1baec:	1828      	adds	r0, r5, r0
   1baee:	3b02      	subs	r3, #2
   1baf0:	1a9e      	subs	r6, r3, r2
   1baf2:	b2b3      	uxth	r3, r6
   1baf4:	9302      	str	r3, [sp, #8]
   1baf6:	466b      	mov	r3, sp
   1baf8:	ae04      	add	r6, sp, #16
   1bafa:	891b      	ldrh	r3, [r3, #8]
   1bafc:	0031      	movs	r1, r6
   1bafe:	8033      	strh	r3, [r6, #0]
   1bb00:	f7ff fd70 	bl	1b5e4 <sd_ble_gap_device_name_get>
   1bb04:	2800      	cmp	r0, #0
   1bb06:	d124      	bne.n	1bb52 <adv_data_encode+0x472>
   1bb08:	783b      	ldrb	r3, [r7, #0]
   1bb0a:	2b02      	cmp	r3, #2
   1bb0c:	d105      	bne.n	1bb1a <adv_data_encode+0x43a>
   1bb0e:	8833      	ldrh	r3, [r6, #0]
   1bb10:	9a02      	ldr	r2, [sp, #8]
   1bb12:	2109      	movs	r1, #9
   1bb14:	4293      	cmp	r3, r2
   1bb16:	d90a      	bls.n	1bb2e <adv_data_encode+0x44e>
   1bb18:	e005      	b.n	1bb26 <adv_data_encode+0x446>
   1bb1a:	2b01      	cmp	r3, #1
   1bb1c:	d103      	bne.n	1bb26 <adv_data_encode+0x446>
   1bb1e:	787b      	ldrb	r3, [r7, #1]
   1bb20:	9a02      	ldr	r2, [sp, #8]
   1bb22:	429a      	cmp	r2, r3
   1bb24:	d201      	bcs.n	1bb2a <adv_data_encode+0x44a>
   1bb26:	466b      	mov	r3, sp
   1bb28:	891b      	ldrh	r3, [r3, #8]
   1bb2a:	2108      	movs	r1, #8
   1bb2c:	8033      	strh	r3, [r6, #0]
   1bb2e:	8833      	ldrh	r3, [r6, #0]
   1bb30:	2bfe      	cmp	r3, #254	; 0xfe
   1bb32:	d80d      	bhi.n	1bb50 <adv_data_encode+0x470>
   1bb34:	8822      	ldrh	r2, [r4, #0]
   1bb36:	3301      	adds	r3, #1
   1bb38:	54ab      	strb	r3, [r5, r2]
   1bb3a:	8822      	ldrh	r2, [r4, #0]
   1bb3c:	3201      	adds	r2, #1
   1bb3e:	b292      	uxth	r2, r2
   1bb40:	8022      	strh	r2, [r4, #0]
   1bb42:	54a9      	strb	r1, [r5, r2]
   1bb44:	8822      	ldrh	r2, [r4, #0]
   1bb46:	18d3      	adds	r3, r2, r3
   1bb48:	8023      	strh	r3, [r4, #0]
   1bb4a:	e002      	b.n	1bb52 <adv_data_encode+0x472>
   1bb4c:	2007      	movs	r0, #7
   1bb4e:	e000      	b.n	1bb52 <adv_data_encode+0x472>
   1bb50:	200c      	movs	r0, #12
   1bb52:	b007      	add	sp, #28
   1bb54:	bdf0      	pop	{r4, r5, r6, r7, pc}
   1bb56:	46c0      	nop			; (mov r8, r8)
   1bb58:	f37f ffff 	bl	39bb5a <__etext+0x37aefa>
   1bb5c:	f37d 0000 			; <UNDEFINED> instruction: 0xf37d0000
   1bb60:	ffff 0000 	vaddl.u<illegal width 64>	q8, d15, d0

0001bb64 <ble_advdata_set>:
   1bb64:	b5f0      	push	{r4, r5, r6, r7, lr}
   1bb66:	b093      	sub	sp, #76	; 0x4c
   1bb68:	466a      	mov	r2, sp
   1bb6a:	231f      	movs	r3, #31
   1bb6c:	ae01      	add	r6, sp, #4
   1bb6e:	1d97      	adds	r7, r2, #6
   1bb70:	000d      	movs	r5, r1
   1bb72:	8033      	strh	r3, [r6, #0]
   1bb74:	803b      	strh	r3, [r7, #0]
   1bb76:	2800      	cmp	r0, #0
   1bb78:	d004      	beq.n	1bb84 <ble_advdata_set+0x20>
   1bb7a:	78c3      	ldrb	r3, [r0, #3]
   1bb7c:	075b      	lsls	r3, r3, #29
   1bb7e:	d411      	bmi.n	1bba4 <ble_advdata_set+0x40>
   1bb80:	2007      	movs	r0, #7
   1bb82:	e01f      	b.n	1bbc4 <ble_advdata_set+0x60>
   1bb84:	0004      	movs	r4, r0
   1bb86:	8030      	strh	r0, [r6, #0]
   1bb88:	2d00      	cmp	r5, #0
   1bb8a:	d003      	beq.n	1bb94 <ble_advdata_set+0x30>
   1bb8c:	78eb      	ldrb	r3, [r5, #3]
   1bb8e:	2b00      	cmp	r3, #0
   1bb90:	d1f6      	bne.n	1bb80 <ble_advdata_set+0x1c>
   1bb92:	e00f      	b.n	1bbb4 <ble_advdata_set+0x50>
   1bb94:	002a      	movs	r2, r5
   1bb96:	803d      	strh	r5, [r7, #0]
   1bb98:	783b      	ldrb	r3, [r7, #0]
   1bb9a:	7831      	ldrb	r1, [r6, #0]
   1bb9c:	0020      	movs	r0, r4
   1bb9e:	f7ff fd1d 	bl	1b5dc <sd_ble_gap_adv_data_set>
   1bba2:	e00f      	b.n	1bbc4 <ble_advdata_set+0x60>
   1bba4:	0032      	movs	r2, r6
   1bba6:	a902      	add	r1, sp, #8
   1bba8:	f7ff fd9a 	bl	1b6e0 <adv_data_encode>
   1bbac:	ac02      	add	r4, sp, #8
   1bbae:	2800      	cmp	r0, #0
   1bbb0:	d0ea      	beq.n	1bb88 <ble_advdata_set+0x24>
   1bbb2:	e007      	b.n	1bbc4 <ble_advdata_set+0x60>
   1bbb4:	003a      	movs	r2, r7
   1bbb6:	a90a      	add	r1, sp, #40	; 0x28
   1bbb8:	0028      	movs	r0, r5
   1bbba:	f7ff fd91 	bl	1b6e0 <adv_data_encode>
   1bbbe:	aa0a      	add	r2, sp, #40	; 0x28
   1bbc0:	2800      	cmp	r0, #0
   1bbc2:	d0e9      	beq.n	1bb98 <ble_advdata_set+0x34>
   1bbc4:	b013      	add	sp, #76	; 0x4c
   1bbc6:	bdf0      	pop	{r4, r5, r6, r7, pc}

0001bbc8 <sd_ble_gap_conn_param_update>:
   1bbc8:	df75      	svc	117	; 0x75
   1bbca:	4770      	bx	lr

0001bbcc <sd_ble_gap_disconnect>:
   1bbcc:	df76      	svc	118	; 0x76
   1bbce:	4770      	bx	lr

0001bbd0 <sd_ble_gap_ppcp_set>:
   1bbd0:	df7a      	svc	122	; 0x7a
   1bbd2:	4770      	bx	lr

0001bbd4 <sd_ble_gap_ppcp_get>:
   1bbd4:	df7b      	svc	123	; 0x7b
   1bbd6:	4770      	bx	lr

0001bbd8 <update_timeout_handler>:
   1bbd8:	4b17      	ldr	r3, [pc, #92]	; (1bc38 <update_timeout_handler+0x60>)
   1bbda:	b537      	push	{r0, r1, r2, r4, r5, lr}
   1bbdc:	8818      	ldrh	r0, [r3, #0]
   1bbde:	4b17      	ldr	r3, [pc, #92]	; (1bc3c <update_timeout_handler+0x64>)
   1bbe0:	4298      	cmp	r0, r3
   1bbe2:	d027      	beq.n	1bc34 <update_timeout_handler+0x5c>
   1bbe4:	4a16      	ldr	r2, [pc, #88]	; (1bc40 <update_timeout_handler+0x68>)
   1bbe6:	4d17      	ldr	r5, [pc, #92]	; (1bc44 <update_timeout_handler+0x6c>)
   1bbe8:	7813      	ldrb	r3, [r2, #0]
   1bbea:	002c      	movs	r4, r5
   1bbec:	3301      	adds	r3, #1
   1bbee:	b2db      	uxtb	r3, r3
   1bbf0:	7013      	strb	r3, [r2, #0]
   1bbf2:	7b29      	ldrb	r1, [r5, #12]
   1bbf4:	4299      	cmp	r1, r3
   1bbf6:	d308      	bcc.n	1bc0a <update_timeout_handler+0x32>
   1bbf8:	4913      	ldr	r1, [pc, #76]	; (1bc48 <update_timeout_handler+0x70>)
   1bbfa:	f7ff ffe5 	bl	1bbc8 <sd_ble_gap_conn_param_update>
   1bbfe:	2800      	cmp	r0, #0
   1bc00:	d018      	beq.n	1bc34 <update_timeout_handler+0x5c>
   1bc02:	69ab      	ldr	r3, [r5, #24]
   1bc04:	2b00      	cmp	r3, #0
   1bc06:	d114      	bne.n	1bc32 <update_timeout_handler+0x5a>
   1bc08:	e014      	b.n	1bc34 <update_timeout_handler+0x5c>
   1bc0a:	2300      	movs	r3, #0
   1bc0c:	7013      	strb	r3, [r2, #0]
   1bc0e:	7c2b      	ldrb	r3, [r5, #16]
   1bc10:	2b00      	cmp	r3, #0
   1bc12:	d008      	beq.n	1bc26 <update_timeout_handler+0x4e>
   1bc14:	213b      	movs	r1, #59	; 0x3b
   1bc16:	f7ff ffd9 	bl	1bbcc <sd_ble_gap_disconnect>
   1bc1a:	2800      	cmp	r0, #0
   1bc1c:	d003      	beq.n	1bc26 <update_timeout_handler+0x4e>
   1bc1e:	69ab      	ldr	r3, [r5, #24]
   1bc20:	2b00      	cmp	r3, #0
   1bc22:	d000      	beq.n	1bc26 <update_timeout_handler+0x4e>
   1bc24:	4798      	blx	r3
   1bc26:	6963      	ldr	r3, [r4, #20]
   1bc28:	2b00      	cmp	r3, #0
   1bc2a:	d003      	beq.n	1bc34 <update_timeout_handler+0x5c>
   1bc2c:	2200      	movs	r2, #0
   1bc2e:	a801      	add	r0, sp, #4
   1bc30:	7002      	strb	r2, [r0, #0]
   1bc32:	4798      	blx	r3
   1bc34:	bd37      	pop	{r0, r1, r2, r4, r5, pc}
   1bc36:	46c0      	nop			; (mov r8, r8)
   1bc38:	683c      	ldr	r4, [r7, #0]
   1bc3a:	2000      	movs	r0, #0
   1bc3c:	ffff 0000 	vaddl.u<illegal width 64>	q8, d15, d0
   1bc40:	67fe      	str	r6, [r7, #124]	; 0x7c
   1bc42:	2000      	movs	r0, #0
   1bc44:	6800      	ldr	r0, [r0, #0]
   1bc46:	2000      	movs	r0, #0
   1bc48:	683e      	ldr	r6, [r7, #0]
   1bc4a:	2000      	movs	r0, #0

0001bc4c <conn_params_negotiation>:
   1bc4c:	b537      	push	{r0, r1, r2, r4, r5, lr}
   1bc4e:	4b17      	ldr	r3, [pc, #92]	; (1bcac <conn_params_negotiation+0x60>)
   1bc50:	4a17      	ldr	r2, [pc, #92]	; (1bcb0 <conn_params_negotiation+0x64>)
   1bc52:	885b      	ldrh	r3, [r3, #2]
   1bc54:	8811      	ldrh	r1, [r2, #0]
   1bc56:	4c17      	ldr	r4, [pc, #92]	; (1bcb4 <conn_params_negotiation+0x68>)
   1bc58:	4d17      	ldr	r5, [pc, #92]	; (1bcb8 <conn_params_negotiation+0x6c>)
   1bc5a:	4299      	cmp	r1, r3
   1bc5c:	d80c      	bhi.n	1bc78 <conn_params_negotiation+0x2c>
   1bc5e:	8852      	ldrh	r2, [r2, #2]
   1bc60:	429a      	cmp	r2, r3
   1bc62:	d309      	bcc.n	1bc78 <conn_params_negotiation+0x2c>
   1bc64:	6963      	ldr	r3, [r4, #20]
   1bc66:	2b00      	cmp	r3, #0
   1bc68:	d003      	beq.n	1bc72 <conn_params_negotiation+0x26>
   1bc6a:	2201      	movs	r2, #1
   1bc6c:	a801      	add	r0, sp, #4
   1bc6e:	7002      	strb	r2, [r0, #0]
   1bc70:	4798      	blx	r3
   1bc72:	2300      	movs	r3, #0
   1bc74:	702b      	strb	r3, [r5, #0]
   1bc76:	bd37      	pop	{r0, r1, r2, r4, r5, pc}
   1bc78:	782b      	ldrb	r3, [r5, #0]
   1bc7a:	2b00      	cmp	r3, #0
   1bc7c:	d005      	beq.n	1bc8a <conn_params_negotiation+0x3e>
   1bc7e:	6963      	ldr	r3, [r4, #20]
   1bc80:	2b00      	cmp	r3, #0
   1bc82:	d0f6      	beq.n	1bc72 <conn_params_negotiation+0x26>
   1bc84:	a801      	add	r0, sp, #4
   1bc86:	2200      	movs	r2, #0
   1bc88:	e7f1      	b.n	1bc6e <conn_params_negotiation+0x22>
   1bc8a:	4b0c      	ldr	r3, [pc, #48]	; (1bcbc <conn_params_negotiation+0x70>)
   1bc8c:	781b      	ldrb	r3, [r3, #0]
   1bc8e:	2b00      	cmp	r3, #0
   1bc90:	d101      	bne.n	1bc96 <conn_params_negotiation+0x4a>
   1bc92:	6861      	ldr	r1, [r4, #4]
   1bc94:	e000      	b.n	1bc98 <conn_params_negotiation+0x4c>
   1bc96:	68a1      	ldr	r1, [r4, #8]
   1bc98:	2200      	movs	r2, #0
   1bc9a:	4809      	ldr	r0, [pc, #36]	; (1bcc0 <conn_params_negotiation+0x74>)
   1bc9c:	f000 fbe4 	bl	1c468 <app_timer_start>
   1bca0:	2800      	cmp	r0, #0
   1bca2:	d0e6      	beq.n	1bc72 <conn_params_negotiation+0x26>
   1bca4:	69a3      	ldr	r3, [r4, #24]
   1bca6:	2b00      	cmp	r3, #0
   1bca8:	d1e2      	bne.n	1bc70 <conn_params_negotiation+0x24>
   1bcaa:	e7e2      	b.n	1bc72 <conn_params_negotiation+0x26>
   1bcac:	67f6      	str	r6, [r6, #124]	; 0x7c
   1bcae:	2000      	movs	r0, #0
   1bcb0:	683e      	ldr	r6, [r7, #0]
   1bcb2:	2000      	movs	r0, #0
   1bcb4:	6800      	ldr	r0, [r0, #0]
   1bcb6:	2000      	movs	r0, #0
   1bcb8:	67f4      	str	r4, [r6, #124]	; 0x7c
   1bcba:	2000      	movs	r0, #0
   1bcbc:	67fe      	str	r6, [r7, #124]	; 0x7c
   1bcbe:	2000      	movs	r0, #0
   1bcc0:	681c      	ldr	r4, [r3, #0]
   1bcc2:	2000      	movs	r0, #0

0001bcc4 <ble_conn_params_init>:
   1bcc4:	4915      	ldr	r1, [pc, #84]	; (1bd1c <ble_conn_params_init+0x58>)
   1bcc6:	0002      	movs	r2, r0
   1bcc8:	000b      	movs	r3, r1
   1bcca:	b570      	push	{r4, r5, r6, lr}
   1bccc:	ca32      	ldmia	r2!, {r1, r4, r5}
   1bcce:	c332      	stmia	r3!, {r1, r4, r5}
   1bcd0:	ca32      	ldmia	r2!, {r1, r4, r5}
   1bcd2:	c332      	stmia	r3!, {r1, r4, r5}
   1bcd4:	6812      	ldr	r2, [r2, #0]
   1bcd6:	4c12      	ldr	r4, [pc, #72]	; (1bd20 <ble_conn_params_init+0x5c>)
   1bcd8:	601a      	str	r2, [r3, #0]
   1bcda:	2200      	movs	r2, #0
   1bcdc:	4b11      	ldr	r3, [pc, #68]	; (1bd24 <ble_conn_params_init+0x60>)
   1bcde:	6801      	ldr	r1, [r0, #0]
   1bce0:	701a      	strb	r2, [r3, #0]
   1bce2:	4291      	cmp	r1, r2
   1bce4:	d014      	beq.n	1bd10 <ble_conn_params_init+0x4c>
   1bce6:	3208      	adds	r2, #8
   1bce8:	0020      	movs	r0, r4
   1bcea:	f003 feed 	bl	1fac8 <memcpy>
   1bcee:	0020      	movs	r0, r4
   1bcf0:	f7ff ff6e 	bl	1bbd0 <sd_ble_gap_ppcp_set>
   1bcf4:	2800      	cmp	r0, #0
   1bcf6:	d10f      	bne.n	1bd18 <ble_conn_params_init+0x54>
   1bcf8:	2201      	movs	r2, #1
   1bcfa:	2100      	movs	r1, #0
   1bcfc:	4b0a      	ldr	r3, [pc, #40]	; (1bd28 <ble_conn_params_init+0x64>)
   1bcfe:	4252      	negs	r2, r2
   1bd00:	801a      	strh	r2, [r3, #0]
   1bd02:	4b0a      	ldr	r3, [pc, #40]	; (1bd2c <ble_conn_params_init+0x68>)
   1bd04:	4a0a      	ldr	r2, [pc, #40]	; (1bd30 <ble_conn_params_init+0x6c>)
   1bd06:	480b      	ldr	r0, [pc, #44]	; (1bd34 <ble_conn_params_init+0x70>)
   1bd08:	7019      	strb	r1, [r3, #0]
   1bd0a:	f000 fb95 	bl	1c438 <app_timer_create>
   1bd0e:	e003      	b.n	1bd18 <ble_conn_params_init+0x54>
   1bd10:	0020      	movs	r0, r4
   1bd12:	f7ff ff5f 	bl	1bbd4 <sd_ble_gap_ppcp_get>
   1bd16:	e7ed      	b.n	1bcf4 <ble_conn_params_init+0x30>
   1bd18:	bd70      	pop	{r4, r5, r6, pc}
   1bd1a:	46c0      	nop			; (mov r8, r8)
   1bd1c:	6800      	ldr	r0, [r0, #0]
   1bd1e:	2000      	movs	r0, #0
   1bd20:	683e      	ldr	r6, [r7, #0]
   1bd22:	2000      	movs	r0, #0
   1bd24:	67f4      	str	r4, [r6, #124]	; 0x7c
   1bd26:	2000      	movs	r0, #0
   1bd28:	683c      	ldr	r4, [r7, #0]
   1bd2a:	2000      	movs	r0, #0
   1bd2c:	67fe      	str	r6, [r7, #124]	; 0x7c
   1bd2e:	2000      	movs	r0, #0
   1bd30:	bbd9      	cbnz	r1, 1bdaa <ble_conn_params_on_ble_evt+0x72>
   1bd32:	0001      	movs	r1, r0
   1bd34:	fd64 0001 	stc2l	0, cr0, [r4, #-4]!

0001bd38 <ble_conn_params_on_ble_evt>:
   1bd38:	b510      	push	{r4, lr}
   1bd3a:	8803      	ldrh	r3, [r0, #0]
   1bd3c:	2b11      	cmp	r3, #17
   1bd3e:	d019      	beq.n	1bd74 <ble_conn_params_on_ble_evt+0x3c>
   1bd40:	d802      	bhi.n	1bd48 <ble_conn_params_on_ble_evt+0x10>
   1bd42:	2b10      	cmp	r3, #16
   1bd44:	d005      	beq.n	1bd52 <ble_conn_params_on_ble_evt+0x1a>
   1bd46:	e041      	b.n	1bdcc <ble_conn_params_on_ble_evt+0x94>
   1bd48:	2b12      	cmp	r3, #18
   1bd4a:	d037      	beq.n	1bdbc <ble_conn_params_on_ble_evt+0x84>
   1bd4c:	2b50      	cmp	r3, #80	; 0x50
   1bd4e:	d020      	beq.n	1bd92 <ble_conn_params_on_ble_evt+0x5a>
   1bd50:	e03c      	b.n	1bdcc <ble_conn_params_on_ble_evt+0x94>
   1bd52:	0001      	movs	r1, r0
   1bd54:	8882      	ldrh	r2, [r0, #4]
   1bd56:	4b1e      	ldr	r3, [pc, #120]	; (1bdd0 <ble_conn_params_on_ble_evt+0x98>)
   1bd58:	3118      	adds	r1, #24
   1bd5a:	801a      	strh	r2, [r3, #0]
   1bd5c:	481d      	ldr	r0, [pc, #116]	; (1bdd4 <ble_conn_params_on_ble_evt+0x9c>)
   1bd5e:	2208      	movs	r2, #8
   1bd60:	f003 feb2 	bl	1fac8 <memcpy>
   1bd64:	2200      	movs	r2, #0
   1bd66:	4b1c      	ldr	r3, [pc, #112]	; (1bdd8 <ble_conn_params_on_ble_evt+0xa0>)
   1bd68:	701a      	strb	r2, [r3, #0]
   1bd6a:	4b1c      	ldr	r3, [pc, #112]	; (1bddc <ble_conn_params_on_ble_evt+0xa4>)
   1bd6c:	89db      	ldrh	r3, [r3, #14]
   1bd6e:	4293      	cmp	r3, r2
   1bd70:	d12c      	bne.n	1bdcc <ble_conn_params_on_ble_evt+0x94>
   1bd72:	e029      	b.n	1bdc8 <ble_conn_params_on_ble_evt+0x90>
   1bd74:	2201      	movs	r2, #1
   1bd76:	4b16      	ldr	r3, [pc, #88]	; (1bdd0 <ble_conn_params_on_ble_evt+0x98>)
   1bd78:	4252      	negs	r2, r2
   1bd7a:	801a      	strh	r2, [r3, #0]
   1bd7c:	2200      	movs	r2, #0
   1bd7e:	4b16      	ldr	r3, [pc, #88]	; (1bdd8 <ble_conn_params_on_ble_evt+0xa0>)
   1bd80:	4817      	ldr	r0, [pc, #92]	; (1bde0 <ble_conn_params_on_ble_evt+0xa8>)
   1bd82:	701a      	strb	r2, [r3, #0]
   1bd84:	f000 fbb4 	bl	1c4f0 <app_timer_stop>
   1bd88:	2800      	cmp	r0, #0
   1bd8a:	d01f      	beq.n	1bdcc <ble_conn_params_on_ble_evt+0x94>
   1bd8c:	4b13      	ldr	r3, [pc, #76]	; (1bddc <ble_conn_params_on_ble_evt+0xa4>)
   1bd8e:	699b      	ldr	r3, [r3, #24]
   1bd90:	e010      	b.n	1bdb4 <ble_conn_params_on_ble_evt+0x7c>
   1bd92:	4c12      	ldr	r4, [pc, #72]	; (1bddc <ble_conn_params_on_ble_evt+0xa4>)
   1bd94:	88c1      	ldrh	r1, [r0, #6]
   1bd96:	89e2      	ldrh	r2, [r4, #14]
   1bd98:	4291      	cmp	r1, r2
   1bd9a:	d117      	bne.n	1bdcc <ble_conn_params_on_ble_evt+0x94>
   1bd9c:	8a03      	ldrh	r3, [r0, #16]
   1bd9e:	2b02      	cmp	r3, #2
   1bda0:	d114      	bne.n	1bdcc <ble_conn_params_on_ble_evt+0x94>
   1bda2:	7c83      	ldrb	r3, [r0, #18]
   1bda4:	07db      	lsls	r3, r3, #31
   1bda6:	d40f      	bmi.n	1bdc8 <ble_conn_params_on_ble_evt+0x90>
   1bda8:	480d      	ldr	r0, [pc, #52]	; (1bde0 <ble_conn_params_on_ble_evt+0xa8>)
   1bdaa:	f000 fba1 	bl	1c4f0 <app_timer_stop>
   1bdae:	2800      	cmp	r0, #0
   1bdb0:	d00c      	beq.n	1bdcc <ble_conn_params_on_ble_evt+0x94>
   1bdb2:	69a3      	ldr	r3, [r4, #24]
   1bdb4:	2b00      	cmp	r3, #0
   1bdb6:	d009      	beq.n	1bdcc <ble_conn_params_on_ble_evt+0x94>
   1bdb8:	4798      	blx	r3
   1bdba:	e007      	b.n	1bdcc <ble_conn_params_on_ble_evt+0x94>
   1bdbc:	0001      	movs	r1, r0
   1bdbe:	2208      	movs	r2, #8
   1bdc0:	3108      	adds	r1, #8
   1bdc2:	4804      	ldr	r0, [pc, #16]	; (1bdd4 <ble_conn_params_on_ble_evt+0x9c>)
   1bdc4:	f003 fe80 	bl	1fac8 <memcpy>
   1bdc8:	f7ff ff40 	bl	1bc4c <conn_params_negotiation>
   1bdcc:	bd10      	pop	{r4, pc}
   1bdce:	46c0      	nop			; (mov r8, r8)
   1bdd0:	683c      	ldr	r4, [r7, #0]
   1bdd2:	2000      	movs	r0, #0
   1bdd4:	67f6      	str	r6, [r6, #124]	; 0x7c
   1bdd6:	2000      	movs	r0, #0
   1bdd8:	67fe      	str	r6, [r7, #124]	; 0x7c
   1bdda:	2000      	movs	r0, #0
   1bddc:	6800      	ldr	r0, [r0, #0]
   1bdde:	2000      	movs	r0, #0
   1bde0:	681c      	ldr	r4, [r3, #0]
   1bde2:	2000      	movs	r0, #0

0001bde4 <rtc1_stop>:
   1bde4:	2280      	movs	r2, #128	; 0x80
   1bde6:	4b19      	ldr	r3, [pc, #100]	; (1be4c <rtc1_stop+0x68>)
   1bde8:	0292      	lsls	r2, r2, #10
   1bdea:	67da      	str	r2, [r3, #124]	; 0x7c
   1bdec:	21d2      	movs	r1, #210	; 0xd2
   1bdee:	2280      	movs	r2, #128	; 0x80
   1bdf0:	4b17      	ldr	r3, [pc, #92]	; (1be50 <rtc1_stop+0x6c>)
   1bdf2:	0252      	lsls	r2, r2, #9
   1bdf4:	0089      	lsls	r1, r1, #2
   1bdf6:	505a      	str	r2, [r3, r1]
   1bdf8:	3940      	subs	r1, #64	; 0x40
   1bdfa:	505a      	str	r2, [r3, r1]
   1bdfc:	2101      	movs	r1, #1
   1bdfe:	222f      	movs	r2, #47	; 0x2f
   1be00:	6059      	str	r1, [r3, #4]
   1be02:	0010      	movs	r0, r2
   1be04:	3801      	subs	r0, #1
   1be06:	46c0      	nop			; (mov r8, r8)
   1be08:	46c0      	nop			; (mov r8, r8)
   1be0a:	46c0      	nop			; (mov r8, r8)
   1be0c:	46c0      	nop			; (mov r8, r8)
   1be0e:	46c0      	nop			; (mov r8, r8)
   1be10:	46c0      	nop			; (mov r8, r8)
   1be12:	46c0      	nop			; (mov r8, r8)
   1be14:	46c0      	nop			; (mov r8, r8)
   1be16:	46c0      	nop			; (mov r8, r8)
   1be18:	46c0      	nop			; (mov r8, r8)
   1be1a:	46c0      	nop			; (mov r8, r8)
   1be1c:	46c0      	nop			; (mov r8, r8)
   1be1e:	d1f1      	bne.n	1be04 <rtc1_stop+0x20>
   1be20:	6099      	str	r1, [r3, #8]
   1be22:	2300      	movs	r3, #0
   1be24:	490b      	ldr	r1, [pc, #44]	; (1be54 <rtc1_stop+0x70>)
   1be26:	0010      	movs	r0, r2
   1be28:	600b      	str	r3, [r1, #0]
   1be2a:	3801      	subs	r0, #1
   1be2c:	46c0      	nop			; (mov r8, r8)
   1be2e:	46c0      	nop			; (mov r8, r8)
   1be30:	46c0      	nop			; (mov r8, r8)
   1be32:	46c0      	nop			; (mov r8, r8)
   1be34:	46c0      	nop			; (mov r8, r8)
   1be36:	46c0      	nop			; (mov r8, r8)
   1be38:	46c0      	nop			; (mov r8, r8)
   1be3a:	46c0      	nop			; (mov r8, r8)
   1be3c:	46c0      	nop			; (mov r8, r8)
   1be3e:	46c0      	nop			; (mov r8, r8)
   1be40:	46c0      	nop			; (mov r8, r8)
   1be42:	46c0      	nop			; (mov r8, r8)
   1be44:	d1f1      	bne.n	1be2a <rtc1_stop+0x46>
   1be46:	4a04      	ldr	r2, [pc, #16]	; (1be58 <rtc1_stop+0x74>)
   1be48:	7013      	strb	r3, [r2, #0]
   1be4a:	4770      	bx	lr
   1be4c:	e104      	b.n	1c058 <SWI0_IRQHandler+0xc0>
   1be4e:	e000      	b.n	1be52 <rtc1_stop+0x6e>
   1be50:	1000      	asrs	r0, r0, #32
   1be52:	4001      	ands	r1, r0
   1be54:	6848      	ldr	r0, [r1, #4]
   1be56:	2000      	movs	r0, #0
   1be58:	6868      	ldr	r0, [r5, #4]
   1be5a:	2000      	movs	r0, #0

0001be5c <user_op_alloc>:
   1be5c:	b510      	push	{r4, lr}
   1be5e:	7843      	ldrb	r3, [r0, #1]
   1be60:	0002      	movs	r2, r0
   1be62:	3301      	adds	r3, #1
   1be64:	7880      	ldrb	r0, [r0, #2]
   1be66:	b2db      	uxtb	r3, r3
   1be68:	4298      	cmp	r0, r3
   1be6a:	d100      	bne.n	1be6e <user_op_alloc+0x12>
   1be6c:	2300      	movs	r3, #0
   1be6e:	7814      	ldrb	r4, [r2, #0]
   1be70:	2000      	movs	r0, #0
   1be72:	429c      	cmp	r4, r3
   1be74:	d005      	beq.n	1be82 <user_op_alloc+0x26>
   1be76:	700b      	strb	r3, [r1, #0]
   1be78:	2318      	movs	r3, #24
   1be7a:	7850      	ldrb	r0, [r2, #1]
   1be7c:	4343      	muls	r3, r0
   1be7e:	6850      	ldr	r0, [r2, #4]
   1be80:	18c0      	adds	r0, r0, r3
   1be82:	bd10      	pop	{r4, pc}

0001be84 <user_id_get>:
   1be84:	f3ef 8305 	mrs	r3, IPSR
   1be88:	05db      	lsls	r3, r3, #23
   1be8a:	0ddb      	lsrs	r3, r3, #23
   1be8c:	2002      	movs	r0, #2
   1be8e:	2b00      	cmp	r3, #0
   1be90:	d021      	beq.n	1bed6 <user_id_get+0x52>
   1be92:	3b10      	subs	r3, #16
   1be94:	b25a      	sxtb	r2, r3
   1be96:	2a00      	cmp	r2, #0
   1be98:	da09      	bge.n	1beae <user_id_get+0x2a>
   1be9a:	220f      	movs	r2, #15
   1be9c:	b2db      	uxtb	r3, r3
   1be9e:	401a      	ands	r2, r3
   1bea0:	3a08      	subs	r2, #8
   1bea2:	40c2      	lsrs	r2, r0
   1bea4:	4082      	lsls	r2, r0
   1bea6:	490c      	ldr	r1, [pc, #48]	; (1bed8 <user_id_get+0x54>)
   1bea8:	1852      	adds	r2, r2, r1
   1beaa:	6851      	ldr	r1, [r2, #4]
   1beac:	e004      	b.n	1beb8 <user_id_get+0x34>
   1beae:	0892      	lsrs	r2, r2, #2
   1beb0:	32c0      	adds	r2, #192	; 0xc0
   1beb2:	490a      	ldr	r1, [pc, #40]	; (1bedc <user_id_get+0x58>)
   1beb4:	0092      	lsls	r2, r2, #2
   1beb6:	5851      	ldr	r1, [r2, r1]
   1beb8:	2203      	movs	r2, #3
   1beba:	4013      	ands	r3, r2
   1bebc:	4093      	lsls	r3, r2
   1bebe:	40d9      	lsrs	r1, r3
   1bec0:	098b      	lsrs	r3, r1, #6
   1bec2:	4013      	ands	r3, r2
   1bec4:	b2db      	uxtb	r3, r3
   1bec6:	2000      	movs	r0, #0
   1bec8:	2b01      	cmp	r3, #1
   1beca:	d004      	beq.n	1bed6 <user_id_get+0x52>
   1becc:	3b03      	subs	r3, #3
   1bece:	425a      	negs	r2, r3
   1bed0:	415a      	adcs	r2, r3
   1bed2:	3002      	adds	r0, #2
   1bed4:	1a80      	subs	r0, r0, r2
   1bed6:	4770      	bx	lr
   1bed8:	ed18 e000 	ldc	0, cr14, [r8, #-0]
   1bedc:	e100      	b.n	1c0e0 <SWI0_IRQHandler+0x148>
   1bede:	e000      	b.n	1bee2 <RTC1_IRQHandler+0x2>

0001bee0 <RTC1_IRQHandler>:
   1bee0:	b570      	push	{r4, r5, r6, lr}
   1bee2:	2400      	movs	r4, #0
   1bee4:	4b22      	ldr	r3, [pc, #136]	; (1bf70 <RTC1_IRQHandler+0x90>)
   1bee6:	645c      	str	r4, [r3, #68]	; 0x44
   1bee8:	649c      	str	r4, [r3, #72]	; 0x48
   1beea:	64dc      	str	r4, [r3, #76]	; 0x4c
   1beec:	651c      	str	r4, [r3, #80]	; 0x50
   1beee:	605c      	str	r4, [r3, #4]
   1bef0:	609c      	str	r4, [r3, #8]
   1bef2:	4b20      	ldr	r3, [pc, #128]	; (1bf74 <RTC1_IRQHandler+0x94>)
   1bef4:	681b      	ldr	r3, [r3, #0]
   1bef6:	42a3      	cmp	r3, r4
   1bef8:	d039      	beq.n	1bf6e <RTC1_IRQHandler+0x8e>
   1befa:	491f      	ldr	r1, [pc, #124]	; (1bf78 <RTC1_IRQHandler+0x98>)
   1befc:	4a1f      	ldr	r2, [pc, #124]	; (1bf7c <RTC1_IRQHandler+0x9c>)
   1befe:	588a      	ldr	r2, [r1, r2]
   1bf00:	491f      	ldr	r1, [pc, #124]	; (1bf80 <RTC1_IRQHandler+0xa0>)
   1bf02:	680d      	ldr	r5, [r1, #0]
   1bf04:	1b55      	subs	r5, r2, r5
   1bf06:	022d      	lsls	r5, r5, #8
   1bf08:	0a2d      	lsrs	r5, r5, #8
   1bf0a:	681a      	ldr	r2, [r3, #0]
   1bf0c:	42aa      	cmp	r2, r5
   1bf0e:	d81a      	bhi.n	1bf46 <RTC1_IRQHandler+0x66>
   1bf10:	1aad      	subs	r5, r5, r2
   1bf12:	18a4      	adds	r4, r4, r2
   1bf14:	7c1a      	ldrb	r2, [r3, #16]
   1bf16:	69de      	ldr	r6, [r3, #28]
   1bf18:	2a00      	cmp	r2, #0
   1bf1a:	d010      	beq.n	1bf3e <RTC1_IRQHandler+0x5e>
   1bf1c:	2200      	movs	r2, #0
   1bf1e:	741a      	strb	r2, [r3, #16]
   1bf20:	4a18      	ldr	r2, [pc, #96]	; (1bf84 <RTC1_IRQHandler+0xa4>)
   1bf22:	6812      	ldr	r2, [r2, #0]
   1bf24:	2a00      	cmp	r2, #0
   1bf26:	d007      	beq.n	1bf38 <RTC1_IRQHandler+0x58>
   1bf28:	6999      	ldr	r1, [r3, #24]
   1bf2a:	6958      	ldr	r0, [r3, #20]
   1bf2c:	4790      	blx	r2
   1bf2e:	2800      	cmp	r0, #0
   1bf30:	d005      	beq.n	1bf3e <RTC1_IRQHandler+0x5e>
   1bf32:	f000 fb09 	bl	1c548 <app_error_handler_bare>
   1bf36:	e002      	b.n	1bf3e <RTC1_IRQHandler+0x5e>
   1bf38:	695a      	ldr	r2, [r3, #20]
   1bf3a:	6998      	ldr	r0, [r3, #24]
   1bf3c:	4790      	blx	r2
   1bf3e:	2e00      	cmp	r6, #0
   1bf40:	d001      	beq.n	1bf46 <RTC1_IRQHandler+0x66>
   1bf42:	0033      	movs	r3, r6
   1bf44:	e7e1      	b.n	1bf0a <RTC1_IRQHandler+0x2a>
   1bf46:	4b10      	ldr	r3, [pc, #64]	; (1bf88 <RTC1_IRQHandler+0xa8>)
   1bf48:	4a10      	ldr	r2, [pc, #64]	; (1bf8c <RTC1_IRQHandler+0xac>)
   1bf4a:	7819      	ldrb	r1, [r3, #0]
   1bf4c:	7813      	ldrb	r3, [r2, #0]
   1bf4e:	428b      	cmp	r3, r1
   1bf50:	d105      	bne.n	1bf5e <RTC1_IRQHandler+0x7e>
   1bf52:	3301      	adds	r3, #1
   1bf54:	b2db      	uxtb	r3, r3
   1bf56:	2b02      	cmp	r3, #2
   1bf58:	d100      	bne.n	1bf5c <RTC1_IRQHandler+0x7c>
   1bf5a:	2300      	movs	r3, #0
   1bf5c:	7013      	strb	r3, [r2, #0]
   1bf5e:	7813      	ldrb	r3, [r2, #0]
   1bf60:	4a0b      	ldr	r2, [pc, #44]	; (1bf90 <RTC1_IRQHandler+0xb0>)
   1bf62:	009b      	lsls	r3, r3, #2
   1bf64:	509c      	str	r4, [r3, r2]
   1bf66:	2280      	movs	r2, #128	; 0x80
   1bf68:	4b0a      	ldr	r3, [pc, #40]	; (1bf94 <RTC1_IRQHandler+0xb4>)
   1bf6a:	0352      	lsls	r2, r2, #13
   1bf6c:	605a      	str	r2, [r3, #4]
   1bf6e:	bd70      	pop	{r4, r5, r6, pc}
   1bf70:	10fc      	asrs	r4, r7, #3
   1bf72:	4001      	ands	r1, r0
   1bf74:	684c      	ldr	r4, [r1, #4]
   1bf76:	2000      	movs	r0, #0
   1bf78:	1000      	asrs	r0, r0, #32
   1bf7a:	4001      	ands	r1, r0
   1bf7c:	0504      	lsls	r4, r0, #20
   1bf7e:	0000      	movs	r0, r0
   1bf80:	6848      	ldr	r0, [r1, #4]
   1bf82:	2000      	movs	r0, #0
   1bf84:	6850      	ldr	r0, [r2, #4]
   1bf86:	2000      	movs	r0, #0
   1bf88:	685c      	ldr	r4, [r3, #4]
   1bf8a:	2000      	movs	r0, #0
   1bf8c:	685d      	ldr	r5, [r3, #4]
   1bf8e:	2000      	movs	r0, #0
   1bf90:	6860      	ldr	r0, [r4, #4]
   1bf92:	2000      	movs	r0, #0
   1bf94:	e1fc      	b.n	1c390 <app_timer_init+0x2c>
   1bf96:	e000      	b.n	1bf9a <SWI0_IRQHandler+0x2>

0001bf98 <SWI0_IRQHandler>:
   1bf98:	b5f0      	push	{r4, r5, r6, r7, lr}
   1bf9a:	4896      	ldr	r0, [pc, #600]	; (1c1f4 <SWI0_IRQHandler+0x25c>)
   1bf9c:	4a96      	ldr	r2, [pc, #600]	; (1c1f8 <SWI0_IRQHandler+0x260>)
   1bf9e:	6803      	ldr	r3, [r0, #0]
   1bfa0:	4996      	ldr	r1, [pc, #600]	; (1c1fc <SWI0_IRQHandler+0x264>)
   1bfa2:	b08d      	sub	sp, #52	; 0x34
   1bfa4:	9305      	str	r3, [sp, #20]
   1bfa6:	7814      	ldrb	r4, [r2, #0]
   1bfa8:	780b      	ldrb	r3, [r1, #0]
   1bfaa:	2200      	movs	r2, #0
   1bfac:	429c      	cmp	r4, r3
   1bfae:	d012      	beq.n	1bfd6 <SWI0_IRQHandler+0x3e>
   1bfb0:	3301      	adds	r3, #1
   1bfb2:	b2db      	uxtb	r3, r3
   1bfb4:	2b02      	cmp	r3, #2
   1bfb6:	d001      	beq.n	1bfbc <SWI0_IRQHandler+0x24>
   1bfb8:	700b      	strb	r3, [r1, #0]
   1bfba:	e000      	b.n	1bfbe <SWI0_IRQHandler+0x26>
   1bfbc:	700a      	strb	r2, [r1, #0]
   1bfbe:	780b      	ldrb	r3, [r1, #0]
   1bfc0:	4a8f      	ldr	r2, [pc, #572]	; (1c200 <SWI0_IRQHandler+0x268>)
   1bfc2:	009b      	lsls	r3, r3, #2
   1bfc4:	589a      	ldr	r2, [r3, r2]
   1bfc6:	9b05      	ldr	r3, [sp, #20]
   1bfc8:	189b      	adds	r3, r3, r2
   1bfca:	021b      	lsls	r3, r3, #8
   1bfcc:	0a1b      	lsrs	r3, r3, #8
   1bfce:	6003      	str	r3, [r0, #0]
   1bfd0:	2301      	movs	r3, #1
   1bfd2:	9302      	str	r3, [sp, #8]
   1bfd4:	e000      	b.n	1bfd8 <SWI0_IRQHandler+0x40>
   1bfd6:	9202      	str	r2, [sp, #8]
   1bfd8:	2100      	movs	r1, #0
   1bfda:	4b8a      	ldr	r3, [pc, #552]	; (1c204 <SWI0_IRQHandler+0x26c>)
   1bfdc:	9109      	str	r1, [sp, #36]	; 0x24
   1bfde:	681b      	ldr	r3, [r3, #0]
   1bfe0:	9108      	str	r1, [sp, #32]
   1bfe2:	9304      	str	r3, [sp, #16]
   1bfe4:	4b88      	ldr	r3, [pc, #544]	; (1c208 <SWI0_IRQHandler+0x270>)
   1bfe6:	9c04      	ldr	r4, [sp, #16]
   1bfe8:	781b      	ldrb	r3, [r3, #0]
   1bfea:	9301      	str	r3, [sp, #4]
   1bfec:	4b87      	ldr	r3, [pc, #540]	; (1c20c <SWI0_IRQHandler+0x274>)
   1bfee:	9d01      	ldr	r5, [sp, #4]
   1bff0:	681b      	ldr	r3, [r3, #0]
   1bff2:	9306      	str	r3, [sp, #24]
   1bff4:	4b7f      	ldr	r3, [pc, #508]	; (1c1f4 <SWI0_IRQHandler+0x25c>)
   1bff6:	681b      	ldr	r3, [r3, #0]
   1bff8:	930a      	str	r3, [sp, #40]	; 0x28
   1bffa:	4b85      	ldr	r3, [pc, #532]	; (1c210 <SWI0_IRQHandler+0x278>)
   1bffc:	781b      	ldrb	r3, [r3, #0]
   1bffe:	9307      	str	r3, [sp, #28]
   1c000:	3d01      	subs	r5, #1
   1c002:	b2ed      	uxtb	r5, r5
   1c004:	2dff      	cmp	r5, #255	; 0xff
   1c006:	d02c      	beq.n	1c062 <SWI0_IRQHandler+0xca>
   1c008:	9b06      	ldr	r3, [sp, #24]
   1c00a:	00ee      	lsls	r6, r5, #3
   1c00c:	199e      	adds	r6, r3, r6
   1c00e:	0023      	movs	r3, r4
   1c010:	7830      	ldrb	r0, [r6, #0]
   1c012:	7877      	ldrb	r7, [r6, #1]
   1c014:	001c      	movs	r4, r3
   1c016:	4287      	cmp	r7, r0
   1c018:	d0f2      	beq.n	1c000 <SWI0_IRQHandler+0x68>
   1c01a:	2418      	movs	r4, #24
   1c01c:	4344      	muls	r4, r0
   1c01e:	6877      	ldr	r7, [r6, #4]
   1c020:	3001      	adds	r0, #1
   1c022:	193c      	adds	r4, r7, r4
   1c024:	78b7      	ldrb	r7, [r6, #2]
   1c026:	b2c0      	uxtb	r0, r0
   1c028:	4287      	cmp	r7, r0
   1c02a:	d100      	bne.n	1c02e <SWI0_IRQHandler+0x96>
   1c02c:	2000      	movs	r0, #0
   1c02e:	7827      	ldrb	r7, [r4, #0]
   1c030:	2f02      	cmp	r7, #2
   1c032:	d002      	beq.n	1c03a <SWI0_IRQHandler+0xa2>
   1c034:	2f03      	cmp	r7, #3
   1c036:	d1ec      	bne.n	1c012 <SWI0_IRQHandler+0x7a>
   1c038:	e00c      	b.n	1c054 <SWI0_IRQHandler+0xbc>
   1c03a:	6864      	ldr	r4, [r4, #4]
   1c03c:	469c      	mov	ip, r3
   1c03e:	9403      	str	r4, [sp, #12]
   1c040:	001c      	movs	r4, r3
   1c042:	2c00      	cmp	r4, #0
   1c044:	d0e5      	beq.n	1c012 <SWI0_IRQHandler+0x7a>
   1c046:	9f03      	ldr	r7, [sp, #12]
   1c048:	42a7      	cmp	r7, r4
   1c04a:	d100      	bne.n	1c04e <SWI0_IRQHandler+0xb6>
   1c04c:	e157      	b.n	1c2fe <SWI0_IRQHandler+0x366>
   1c04e:	46a4      	mov	ip, r4
   1c050:	69e4      	ldr	r4, [r4, #28]
   1c052:	e7f6      	b.n	1c042 <SWI0_IRQHandler+0xaa>
   1c054:	2b00      	cmp	r3, #0
   1c056:	d0dc      	beq.n	1c012 <SWI0_IRQHandler+0x7a>
   1c058:	2100      	movs	r1, #0
   1c05a:	7419      	strb	r1, [r3, #16]
   1c05c:	69db      	ldr	r3, [r3, #28]
   1c05e:	2101      	movs	r1, #1
   1c060:	e7f8      	b.n	1c054 <SWI0_IRQHandler+0xbc>
   1c062:	9b08      	ldr	r3, [sp, #32]
   1c064:	2b00      	cmp	r3, #0
   1c066:	d003      	beq.n	1c070 <SWI0_IRQHandler+0xd8>
   1c068:	4668      	mov	r0, sp
   1c06a:	4b69      	ldr	r3, [pc, #420]	; (1c210 <SWI0_IRQHandler+0x278>)
   1c06c:	7f00      	ldrb	r0, [r0, #28]
   1c06e:	7018      	strb	r0, [r3, #0]
   1c070:	9b09      	ldr	r3, [sp, #36]	; 0x24
   1c072:	2b00      	cmp	r3, #0
   1c074:	d002      	beq.n	1c07c <SWI0_IRQHandler+0xe4>
   1c076:	4b5f      	ldr	r3, [pc, #380]	; (1c1f4 <SWI0_IRQHandler+0x25c>)
   1c078:	980a      	ldr	r0, [sp, #40]	; 0x28
   1c07a:	6018      	str	r0, [r3, #0]
   1c07c:	4b61      	ldr	r3, [pc, #388]	; (1c204 <SWI0_IRQHandler+0x26c>)
   1c07e:	2900      	cmp	r1, #0
   1c080:	d000      	beq.n	1c084 <SWI0_IRQHandler+0xec>
   1c082:	601c      	str	r4, [r3, #0]
   1c084:	9902      	ldr	r1, [sp, #8]
   1c086:	681b      	ldr	r3, [r3, #0]
   1c088:	2900      	cmp	r1, #0
   1c08a:	d107      	bne.n	1c09c <SWI0_IRQHandler+0x104>
   1c08c:	9a04      	ldr	r2, [sp, #16]
   1c08e:	0008      	movs	r0, r1
   1c090:	1a9b      	subs	r3, r3, r2
   1c092:	1e5a      	subs	r2, r3, #1
   1c094:	4193      	sbcs	r3, r2
   1c096:	b2db      	uxtb	r3, r3
   1c098:	9303      	str	r3, [sp, #12]
   1c09a:	e027      	b.n	1c0ec <SWI0_IRQHandler+0x154>
   1c09c:	2100      	movs	r1, #0
   1c09e:	0008      	movs	r0, r1
   1c0a0:	000c      	movs	r4, r1
   1c0a2:	000e      	movs	r6, r1
   1c0a4:	2b00      	cmp	r3, #0
   1c0a6:	d01b      	beq.n	1c0e0 <SWI0_IRQHandler+0x148>
   1c0a8:	681d      	ldr	r5, [r3, #0]
   1c0aa:	4295      	cmp	r5, r2
   1c0ac:	d906      	bls.n	1c0bc <SWI0_IRQHandler+0x124>
   1c0ae:	2900      	cmp	r1, #0
   1c0b0:	d001      	beq.n	1c0b6 <SWI0_IRQHandler+0x11e>
   1c0b2:	4954      	ldr	r1, [pc, #336]	; (1c204 <SWI0_IRQHandler+0x26c>)
   1c0b4:	600b      	str	r3, [r1, #0]
   1c0b6:	1aaa      	subs	r2, r5, r2
   1c0b8:	601a      	str	r2, [r3, #0]
   1c0ba:	e015      	b.n	1c0e8 <SWI0_IRQHandler+0x150>
   1c0bc:	1b52      	subs	r2, r2, r5
   1c0be:	1964      	adds	r4, r4, r5
   1c0c0:	68dd      	ldr	r5, [r3, #12]
   1c0c2:	601e      	str	r6, [r3, #0]
   1c0c4:	69df      	ldr	r7, [r3, #28]
   1c0c6:	2d00      	cmp	r5, #0
   1c0c8:	d007      	beq.n	1c0da <SWI0_IRQHandler+0x142>
   1c0ca:	61d8      	str	r0, [r3, #28]
   1c0cc:	0018      	movs	r0, r3
   1c0ce:	9905      	ldr	r1, [sp, #20]
   1c0d0:	609d      	str	r5, [r3, #8]
   1c0d2:	1909      	adds	r1, r1, r4
   1c0d4:	0209      	lsls	r1, r1, #8
   1c0d6:	0a09      	lsrs	r1, r1, #8
   1c0d8:	6059      	str	r1, [r3, #4]
   1c0da:	003b      	movs	r3, r7
   1c0dc:	9902      	ldr	r1, [sp, #8]
   1c0de:	e7e1      	b.n	1c0a4 <SWI0_IRQHandler+0x10c>
   1c0e0:	2900      	cmp	r1, #0
   1c0e2:	d001      	beq.n	1c0e8 <SWI0_IRQHandler+0x150>
   1c0e4:	4a47      	ldr	r2, [pc, #284]	; (1c204 <SWI0_IRQHandler+0x26c>)
   1c0e6:	6013      	str	r3, [r2, #0]
   1c0e8:	2301      	movs	r3, #1
   1c0ea:	9303      	str	r3, [sp, #12]
   1c0ec:	2700      	movs	r7, #0
   1c0ee:	46bc      	mov	ip, r7
   1c0f0:	4b44      	ldr	r3, [pc, #272]	; (1c204 <SWI0_IRQHandler+0x26c>)
   1c0f2:	681b      	ldr	r3, [r3, #0]
   1c0f4:	9302      	str	r3, [sp, #8]
   1c0f6:	4b3f      	ldr	r3, [pc, #252]	; (1c1f4 <SWI0_IRQHandler+0x25c>)
   1c0f8:	9902      	ldr	r1, [sp, #8]
   1c0fa:	681b      	ldr	r3, [r3, #0]
   1c0fc:	9305      	str	r3, [sp, #20]
   1c0fe:	4b44      	ldr	r3, [pc, #272]	; (1c210 <SWI0_IRQHandler+0x278>)
   1c100:	781b      	ldrb	r3, [r3, #0]
   1c102:	9307      	str	r3, [sp, #28]
   1c104:	9b01      	ldr	r3, [sp, #4]
   1c106:	3b01      	subs	r3, #1
   1c108:	b2db      	uxtb	r3, r3
   1c10a:	9301      	str	r3, [sp, #4]
   1c10c:	2bff      	cmp	r3, #255	; 0xff
   1c10e:	d100      	bne.n	1c112 <SWI0_IRQHandler+0x17a>
   1c110:	e082      	b.n	1c218 <SWI0_IRQHandler+0x280>
   1c112:	000a      	movs	r2, r1
   1c114:	9b01      	ldr	r3, [sp, #4]
   1c116:	00dc      	lsls	r4, r3, #3
   1c118:	9b06      	ldr	r3, [sp, #24]
   1c11a:	191c      	adds	r4, r3, r4
   1c11c:	2800      	cmp	r0, #0
   1c11e:	d002      	beq.n	1c126 <SWI0_IRQHandler+0x18e>
   1c120:	0003      	movs	r3, r0
   1c122:	69c0      	ldr	r0, [r0, #28]
   1c124:	e023      	b.n	1c16e <SWI0_IRQHandler+0x1d6>
   1c126:	7823      	ldrb	r3, [r4, #0]
   1c128:	7865      	ldrb	r5, [r4, #1]
   1c12a:	0011      	movs	r1, r2
   1c12c:	429d      	cmp	r5, r3
   1c12e:	d0e9      	beq.n	1c104 <SWI0_IRQHandler+0x16c>
   1c130:	2118      	movs	r1, #24
   1c132:	4359      	muls	r1, r3
   1c134:	6865      	ldr	r5, [r4, #4]
   1c136:	3301      	adds	r3, #1
   1c138:	1869      	adds	r1, r5, r1
   1c13a:	78a5      	ldrb	r5, [r4, #2]
   1c13c:	b2db      	uxtb	r3, r3
   1c13e:	7023      	strb	r3, [r4, #0]
   1c140:	429d      	cmp	r5, r3
   1c142:	d100      	bne.n	1c146 <SWI0_IRQHandler+0x1ae>
   1c144:	7020      	strb	r0, [r4, #0]
   1c146:	780b      	ldrb	r3, [r1, #0]
   1c148:	0015      	movs	r5, r2
   1c14a:	2b01      	cmp	r3, #1
   1c14c:	d150      	bne.n	1c1f0 <SWI0_IRQHandler+0x258>
   1c14e:	684b      	ldr	r3, [r1, #4]
   1c150:	7c1e      	ldrb	r6, [r3, #16]
   1c152:	2e00      	cmp	r6, #0
   1c154:	d14c      	bne.n	1c1f0 <SWI0_IRQHandler+0x258>
   1c156:	688d      	ldr	r5, [r1, #8]
   1c158:	605d      	str	r5, [r3, #4]
   1c15a:	68cd      	ldr	r5, [r1, #12]
   1c15c:	609d      	str	r5, [r3, #8]
   1c15e:	690d      	ldr	r5, [r1, #16]
   1c160:	60dd      	str	r5, [r3, #12]
   1c162:	6949      	ldr	r1, [r1, #20]
   1c164:	6199      	str	r1, [r3, #24]
   1c166:	9907      	ldr	r1, [sp, #28]
   1c168:	2900      	cmp	r1, #0
   1c16a:	d000      	beq.n	1c16e <SWI0_IRQHandler+0x1d6>
   1c16c:	605e      	str	r6, [r3, #4]
   1c16e:	6859      	ldr	r1, [r3, #4]
   1c170:	9d05      	ldr	r5, [sp, #20]
   1c172:	9104      	str	r1, [sp, #16]
   1c174:	1b4d      	subs	r5, r1, r5
   1c176:	4927      	ldr	r1, [pc, #156]	; (1c214 <SWI0_IRQHandler+0x27c>)
   1c178:	022d      	lsls	r5, r5, #8
   1c17a:	0a2d      	lsrs	r5, r5, #8
   1c17c:	689e      	ldr	r6, [r3, #8]
   1c17e:	428d      	cmp	r5, r1
   1c180:	d802      	bhi.n	1c188 <SWI0_IRQHandler+0x1f0>
   1c182:	1975      	adds	r5, r6, r5
   1c184:	601d      	str	r5, [r3, #0]
   1c186:	e00b      	b.n	1c1a0 <SWI0_IRQHandler+0x208>
   1c188:	9905      	ldr	r1, [sp, #20]
   1c18a:	9d04      	ldr	r5, [sp, #16]
   1c18c:	1b49      	subs	r1, r1, r5
   1c18e:	0209      	lsls	r1, r1, #8
   1c190:	0a09      	lsrs	r1, r1, #8
   1c192:	42b1      	cmp	r1, r6
   1c194:	d202      	bcs.n	1c19c <SWI0_IRQHandler+0x204>
   1c196:	1a76      	subs	r6, r6, r1
   1c198:	601e      	str	r6, [r3, #0]
   1c19a:	e001      	b.n	1c1a0 <SWI0_IRQHandler+0x208>
   1c19c:	4661      	mov	r1, ip
   1c19e:	6019      	str	r1, [r3, #0]
   1c1a0:	4661      	mov	r1, ip
   1c1a2:	6059      	str	r1, [r3, #4]
   1c1a4:	6099      	str	r1, [r3, #8]
   1c1a6:	2101      	movs	r1, #1
   1c1a8:	7419      	strb	r1, [r3, #16]
   1c1aa:	4661      	mov	r1, ip
   1c1ac:	61d9      	str	r1, [r3, #28]
   1c1ae:	2a00      	cmp	r2, #0
   1c1b0:	d01c      	beq.n	1c1ec <SWI0_IRQHandler+0x254>
   1c1b2:	681d      	ldr	r5, [r3, #0]
   1c1b4:	6811      	ldr	r1, [r2, #0]
   1c1b6:	428d      	cmp	r5, r1
   1c1b8:	d803      	bhi.n	1c1c2 <SWI0_IRQHandler+0x22a>
   1c1ba:	1b4d      	subs	r5, r1, r5
   1c1bc:	6015      	str	r5, [r2, #0]
   1c1be:	61da      	str	r2, [r3, #28]
   1c1c0:	e014      	b.n	1c1ec <SWI0_IRQHandler+0x254>
   1c1c2:	0011      	movs	r1, r2
   1c1c4:	9204      	str	r2, [sp, #16]
   1c1c6:	680e      	ldr	r6, [r1, #0]
   1c1c8:	42ae      	cmp	r6, r5
   1c1ca:	d206      	bcs.n	1c1da <SWI0_IRQHandler+0x242>
   1c1cc:	1bad      	subs	r5, r5, r6
   1c1ce:	69ce      	ldr	r6, [r1, #28]
   1c1d0:	9104      	str	r1, [sp, #16]
   1c1d2:	2e00      	cmp	r6, #0
   1c1d4:	d005      	beq.n	1c1e2 <SWI0_IRQHandler+0x24a>
   1c1d6:	0031      	movs	r1, r6
   1c1d8:	e7f5      	b.n	1c1c6 <SWI0_IRQHandler+0x22e>
   1c1da:	1b76      	subs	r6, r6, r5
   1c1dc:	600e      	str	r6, [r1, #0]
   1c1de:	000e      	movs	r6, r1
   1c1e0:	9904      	ldr	r1, [sp, #16]
   1c1e2:	601d      	str	r5, [r3, #0]
   1c1e4:	61de      	str	r6, [r3, #28]
   1c1e6:	0015      	movs	r5, r2
   1c1e8:	61cb      	str	r3, [r1, #28]
   1c1ea:	e001      	b.n	1c1f0 <SWI0_IRQHandler+0x258>
   1c1ec:	001d      	movs	r5, r3
   1c1ee:	2701      	movs	r7, #1
   1c1f0:	002a      	movs	r2, r5
   1c1f2:	e793      	b.n	1c11c <SWI0_IRQHandler+0x184>
   1c1f4:	6848      	ldr	r0, [r1, #4]
   1c1f6:	2000      	movs	r0, #0
   1c1f8:	685d      	ldr	r5, [r3, #4]
   1c1fa:	2000      	movs	r0, #0
   1c1fc:	685c      	ldr	r4, [r3, #4]
   1c1fe:	2000      	movs	r0, #0
   1c200:	6860      	ldr	r0, [r4, #4]
   1c202:	2000      	movs	r0, #0
   1c204:	684c      	ldr	r4, [r1, #4]
   1c206:	2000      	movs	r0, #0
   1c208:	6854      	ldr	r4, [r2, #4]
   1c20a:	2000      	movs	r0, #0
   1c20c:	6858      	ldr	r0, [r3, #4]
   1c20e:	2000      	movs	r0, #0
   1c210:	685e      	ldr	r6, [r3, #4]
   1c212:	2000      	movs	r0, #0
   1c214:	fffe 007f 	vshr.u32	q8, <illegal reg q15.5>, #2
   1c218:	4b4a      	ldr	r3, [pc, #296]	; (1c344 <SWI0_IRQHandler+0x3ac>)
   1c21a:	2f00      	cmp	r7, #0
   1c21c:	d000      	beq.n	1c220 <SWI0_IRQHandler+0x288>
   1c21e:	6019      	str	r1, [r3, #0]
   1c220:	681b      	ldr	r3, [r3, #0]
   1c222:	9a02      	ldr	r2, [sp, #8]
   1c224:	429a      	cmp	r2, r3
   1c226:	d103      	bne.n	1c230 <SWI0_IRQHandler+0x298>
   1c228:	9a03      	ldr	r2, [sp, #12]
   1c22a:	2a00      	cmp	r2, #0
   1c22c:	d100      	bne.n	1c230 <SWI0_IRQHandler+0x298>
   1c22e:	e061      	b.n	1c2f4 <SWI0_IRQHandler+0x35c>
   1c230:	2b00      	cmp	r3, #0
   1c232:	d100      	bne.n	1c236 <SWI0_IRQHandler+0x29e>
   1c234:	e05c      	b.n	1c2f0 <SWI0_IRQHandler+0x358>
   1c236:	681b      	ldr	r3, [r3, #0]
   1c238:	4843      	ldr	r0, [pc, #268]	; (1c348 <SWI0_IRQHandler+0x3b0>)
   1c23a:	9301      	str	r3, [sp, #4]
   1c23c:	4a43      	ldr	r2, [pc, #268]	; (1c34c <SWI0_IRQHandler+0x3b4>)
   1c23e:	4b44      	ldr	r3, [pc, #272]	; (1c350 <SWI0_IRQHandler+0x3b8>)
   1c240:	5815      	ldr	r5, [r2, r0]
   1c242:	681b      	ldr	r3, [r3, #0]
   1c244:	4e43      	ldr	r6, [pc, #268]	; (1c354 <SWI0_IRQHandler+0x3bc>)
   1c246:	1ae9      	subs	r1, r5, r3
   1c248:	0209      	lsls	r1, r1, #8
   1c24a:	7837      	ldrb	r7, [r6, #0]
   1c24c:	0a09      	lsrs	r1, r1, #8
   1c24e:	3103      	adds	r1, #3
   1c250:	9002      	str	r0, [sp, #8]
   1c252:	2f00      	cmp	r7, #0
   1c254:	d11f      	bne.n	1c296 <SWI0_IRQHandler+0x2fe>
   1c256:	2080      	movs	r0, #128	; 0x80
   1c258:	27d1      	movs	r7, #209	; 0xd1
   1c25a:	0240      	lsls	r0, r0, #9
   1c25c:	00bf      	lsls	r7, r7, #2
   1c25e:	51d0      	str	r0, [r2, r7]
   1c260:	3f40      	subs	r7, #64	; 0x40
   1c262:	51d0      	str	r0, [r2, r7]
   1c264:	2780      	movs	r7, #128	; 0x80
   1c266:	20c0      	movs	r0, #192	; 0xc0
   1c268:	4c3b      	ldr	r4, [pc, #236]	; (1c358 <SWI0_IRQHandler+0x3c0>)
   1c26a:	02bf      	lsls	r7, r7, #10
   1c26c:	0040      	lsls	r0, r0, #1
   1c26e:	5027      	str	r7, [r4, r0]
   1c270:	6027      	str	r7, [r4, #0]
   1c272:	2701      	movs	r7, #1
   1c274:	202f      	movs	r0, #47	; 0x2f
   1c276:	6017      	str	r7, [r2, #0]
   1c278:	3801      	subs	r0, #1
   1c27a:	46c0      	nop			; (mov r8, r8)
   1c27c:	46c0      	nop			; (mov r8, r8)
   1c27e:	46c0      	nop			; (mov r8, r8)
   1c280:	46c0      	nop			; (mov r8, r8)
   1c282:	46c0      	nop			; (mov r8, r8)
   1c284:	46c0      	nop			; (mov r8, r8)
   1c286:	46c0      	nop			; (mov r8, r8)
   1c288:	46c0      	nop			; (mov r8, r8)
   1c28a:	46c0      	nop			; (mov r8, r8)
   1c28c:	46c0      	nop			; (mov r8, r8)
   1c28e:	46c0      	nop			; (mov r8, r8)
   1c290:	46c0      	nop			; (mov r8, r8)
   1c292:	d1f1      	bne.n	1c278 <SWI0_IRQHandler+0x2e0>
   1c294:	7037      	strb	r7, [r6, #0]
   1c296:	9c01      	ldr	r4, [sp, #4]
   1c298:	428c      	cmp	r4, r1
   1c29a:	d200      	bcs.n	1c29e <SWI0_IRQHandler+0x306>
   1c29c:	000c      	movs	r4, r1
   1c29e:	21a8      	movs	r1, #168	; 0xa8
   1c2a0:	18e3      	adds	r3, r4, r3
   1c2a2:	021b      	lsls	r3, r3, #8
   1c2a4:	0a1b      	lsrs	r3, r3, #8
   1c2a6:	00c9      	lsls	r1, r1, #3
   1c2a8:	9c02      	ldr	r4, [sp, #8]
   1c2aa:	5053      	str	r3, [r2, r1]
   1c2ac:	5912      	ldr	r2, [r2, r4]
   1c2ae:	4827      	ldr	r0, [pc, #156]	; (1c34c <SWI0_IRQHandler+0x3b4>)
   1c2b0:	1b52      	subs	r2, r2, r5
   1c2b2:	0212      	lsls	r2, r2, #8
   1c2b4:	0a12      	lsrs	r2, r2, #8
   1c2b6:	1b5d      	subs	r5, r3, r5
   1c2b8:	022d      	lsls	r5, r5, #8
   1c2ba:	3203      	adds	r2, #3
   1c2bc:	0a2d      	lsrs	r5, r5, #8
   1c2be:	42aa      	cmp	r2, r5
   1c2c0:	d918      	bls.n	1c2f4 <SWI0_IRQHandler+0x35c>
   1c2c2:	4b21      	ldr	r3, [pc, #132]	; (1c348 <SWI0_IRQHandler+0x3b0>)
   1c2c4:	58c3      	ldr	r3, [r0, r3]
   1c2c6:	5043      	str	r3, [r0, r1]
   1c2c8:	202f      	movs	r0, #47	; 0x2f
   1c2ca:	3801      	subs	r0, #1
   1c2cc:	46c0      	nop			; (mov r8, r8)
   1c2ce:	46c0      	nop			; (mov r8, r8)
   1c2d0:	46c0      	nop			; (mov r8, r8)
   1c2d2:	46c0      	nop			; (mov r8, r8)
   1c2d4:	46c0      	nop			; (mov r8, r8)
   1c2d6:	46c0      	nop			; (mov r8, r8)
   1c2d8:	46c0      	nop			; (mov r8, r8)
   1c2da:	46c0      	nop			; (mov r8, r8)
   1c2dc:	46c0      	nop			; (mov r8, r8)
   1c2de:	46c0      	nop			; (mov r8, r8)
   1c2e0:	46c0      	nop			; (mov r8, r8)
   1c2e2:	46c0      	nop			; (mov r8, r8)
   1c2e4:	d1f1      	bne.n	1c2ca <SWI0_IRQHandler+0x332>
   1c2e6:	2280      	movs	r2, #128	; 0x80
   1c2e8:	4b1c      	ldr	r3, [pc, #112]	; (1c35c <SWI0_IRQHandler+0x3c4>)
   1c2ea:	0292      	lsls	r2, r2, #10
   1c2ec:	605a      	str	r2, [r3, #4]
   1c2ee:	e001      	b.n	1c2f4 <SWI0_IRQHandler+0x35c>
   1c2f0:	f7ff fd78 	bl	1bde4 <rtc1_stop>
   1c2f4:	2200      	movs	r2, #0
   1c2f6:	4b1a      	ldr	r3, [pc, #104]	; (1c360 <SWI0_IRQHandler+0x3c8>)
   1c2f8:	701a      	strb	r2, [r3, #0]
   1c2fa:	b00d      	add	sp, #52	; 0x34
   1c2fc:	bdf0      	pop	{r4, r5, r6, r7, pc}
   1c2fe:	4564      	cmp	r4, ip
   1c300:	d10b      	bne.n	1c31a <SWI0_IRQHandler+0x382>
   1c302:	69db      	ldr	r3, [r3, #28]
   1c304:	2101      	movs	r1, #1
   1c306:	2b00      	cmp	r3, #0
   1c308:	d107      	bne.n	1c31a <SWI0_IRQHandler+0x382>
   1c30a:	2701      	movs	r7, #1
   1c30c:	490f      	ldr	r1, [pc, #60]	; (1c34c <SWI0_IRQHandler+0x3b4>)
   1c30e:	608f      	str	r7, [r1, #8]
   1c310:	0039      	movs	r1, r7
   1c312:	9709      	str	r7, [sp, #36]	; 0x24
   1c314:	930a      	str	r3, [sp, #40]	; 0x28
   1c316:	9708      	str	r7, [sp, #32]
   1c318:	9707      	str	r7, [sp, #28]
   1c31a:	6827      	ldr	r7, [r4, #0]
   1c31c:	69e4      	ldr	r4, [r4, #28]
   1c31e:	970b      	str	r7, [sp, #44]	; 0x2c
   1c320:	9403      	str	r4, [sp, #12]
   1c322:	4664      	mov	r4, ip
   1c324:	9f03      	ldr	r7, [sp, #12]
   1c326:	61e7      	str	r7, [r4, #28]
   1c328:	2f00      	cmp	r7, #0
   1c32a:	d100      	bne.n	1c32e <SWI0_IRQHandler+0x396>
   1c32c:	e671      	b.n	1c012 <SWI0_IRQHandler+0x7a>
   1c32e:	9f0b      	ldr	r7, [sp, #44]	; 0x2c
   1c330:	003c      	movs	r4, r7
   1c332:	9f03      	ldr	r7, [sp, #12]
   1c334:	683f      	ldr	r7, [r7, #0]
   1c336:	46bc      	mov	ip, r7
   1c338:	4464      	add	r4, ip
   1c33a:	0027      	movs	r7, r4
   1c33c:	9c03      	ldr	r4, [sp, #12]
   1c33e:	6027      	str	r7, [r4, #0]
   1c340:	e667      	b.n	1c012 <SWI0_IRQHandler+0x7a>
   1c342:	46c0      	nop			; (mov r8, r8)
   1c344:	684c      	ldr	r4, [r1, #4]
   1c346:	2000      	movs	r0, #0
   1c348:	0504      	lsls	r4, r0, #20
   1c34a:	0000      	movs	r0, r0
   1c34c:	1000      	asrs	r0, r0, #32
   1c34e:	4001      	ands	r1, r0
   1c350:	6848      	ldr	r0, [r1, #4]
   1c352:	2000      	movs	r0, #0
   1c354:	6868      	ldr	r0, [r5, #4]
   1c356:	2000      	movs	r0, #0
   1c358:	e100      	b.n	1c55c <app_error_handler_bare+0x14>
   1c35a:	e000      	b.n	1c35e <SWI0_IRQHandler+0x3c6>
   1c35c:	e1fc      	b.n	1c758 <gap_params_init+0x20>
   1c35e:	e000      	b.n	1c362 <SWI0_IRQHandler+0x3ca>
   1c360:	685e      	ldr	r6, [r3, #4]
   1c362:	2000      	movs	r0, #0

0001c364 <app_timer_init>:
   1c364:	b5f0      	push	{r4, r5, r6, r7, lr}
   1c366:	2703      	movs	r7, #3
   1c368:	0015      	movs	r5, r2
   1c36a:	b085      	sub	sp, #20
   1c36c:	9002      	str	r0, [sp, #8]
   1c36e:	9101      	str	r1, [sp, #4]
   1c370:	0014      	movs	r4, r2
   1c372:	9303      	str	r3, [sp, #12]
   1c374:	403d      	ands	r5, r7
   1c376:	2007      	movs	r0, #7
   1c378:	2d00      	cmp	r5, #0
   1c37a:	d144      	bne.n	1c406 <app_timer_init+0xa2>
   1c37c:	4e23      	ldr	r6, [pc, #140]	; (1c40c <app_timer_init+0xa8>)
   1c37e:	2a00      	cmp	r2, #0
   1c380:	d101      	bne.n	1c386 <app_timer_init+0x22>
   1c382:	6032      	str	r2, [r6, #0]
   1c384:	e03f      	b.n	1c406 <app_timer_init+0xa2>
   1c386:	f7ff fd2d 	bl	1bde4 <rtc1_stop>
   1c38a:	4b21      	ldr	r3, [pc, #132]	; (1c410 <app_timer_init+0xac>)
   1c38c:	9a03      	ldr	r2, [sp, #12]
   1c38e:	9901      	ldr	r1, [sp, #4]
   1c390:	601a      	str	r2, [r3, #0]
   1c392:	4b20      	ldr	r3, [pc, #128]	; (1c414 <app_timer_init+0xb0>)
   1c394:	2218      	movs	r2, #24
   1c396:	701f      	strb	r7, [r3, #0]
   1c398:	0023      	movs	r3, r4
   1c39a:	3318      	adds	r3, #24
   1c39c:	434a      	muls	r2, r1
   1c39e:	0019      	movs	r1, r3
   1c3a0:	6034      	str	r4, [r6, #0]
   1c3a2:	466e      	mov	r6, sp
   1c3a4:	7936      	ldrb	r6, [r6, #4]
   1c3a6:	6063      	str	r3, [r4, #4]
   1c3a8:	7025      	strb	r5, [r4, #0]
   1c3aa:	7065      	strb	r5, [r4, #1]
   1c3ac:	70a6      	strb	r6, [r4, #2]
   1c3ae:	3408      	adds	r4, #8
   1c3b0:	2000      	movs	r0, #0
   1c3b2:	189b      	adds	r3, r3, r2
   1c3b4:	428c      	cmp	r4, r1
   1c3b6:	d1f4      	bne.n	1c3a2 <app_timer_init+0x3e>
   1c3b8:	2180      	movs	r1, #128	; 0x80
   1c3ba:	22c0      	movs	r2, #192	; 0xc0
   1c3bc:	24c5      	movs	r4, #197	; 0xc5
   1c3be:	25ff      	movs	r5, #255	; 0xff
   1c3c0:	4b15      	ldr	r3, [pc, #84]	; (1c418 <app_timer_init+0xb4>)
   1c3c2:	0349      	lsls	r1, r1, #13
   1c3c4:	6018      	str	r0, [r3, #0]
   1c3c6:	4b15      	ldr	r3, [pc, #84]	; (1c41c <app_timer_init+0xb8>)
   1c3c8:	0052      	lsls	r2, r2, #1
   1c3ca:	7018      	strb	r0, [r3, #0]
   1c3cc:	4b14      	ldr	r3, [pc, #80]	; (1c420 <app_timer_init+0xbc>)
   1c3ce:	00a4      	lsls	r4, r4, #2
   1c3d0:	7018      	strb	r0, [r3, #0]
   1c3d2:	4b14      	ldr	r3, [pc, #80]	; (1c424 <app_timer_init+0xc0>)
   1c3d4:	5099      	str	r1, [r3, r2]
   1c3d6:	591a      	ldr	r2, [r3, r4]
   1c3d8:	43aa      	bics	r2, r5
   1c3da:	3d3f      	subs	r5, #63	; 0x3f
   1c3dc:	432a      	orrs	r2, r5
   1c3de:	511a      	str	r2, [r3, r4]
   1c3e0:	22a1      	movs	r2, #161	; 0xa1
   1c3e2:	6019      	str	r1, [r3, #0]
   1c3e4:	9c02      	ldr	r4, [sp, #8]
   1c3e6:	4910      	ldr	r1, [pc, #64]	; (1c428 <app_timer_init+0xc4>)
   1c3e8:	00d2      	lsls	r2, r2, #3
   1c3ea:	508c      	str	r4, [r1, r2]
   1c3ec:	24c4      	movs	r4, #196	; 0xc4
   1c3ee:	00a4      	lsls	r4, r4, #2
   1c3f0:	591d      	ldr	r5, [r3, r4]
   1c3f2:	4a0e      	ldr	r2, [pc, #56]	; (1c42c <app_timer_init+0xc8>)
   1c3f4:	402a      	ands	r2, r5
   1c3f6:	25c0      	movs	r5, #192	; 0xc0
   1c3f8:	022d      	lsls	r5, r5, #8
   1c3fa:	432a      	orrs	r2, r5
   1c3fc:	511a      	str	r2, [r3, r4]
   1c3fe:	4b0c      	ldr	r3, [pc, #48]	; (1c430 <app_timer_init+0xcc>)
   1c400:	58ca      	ldr	r2, [r1, r3]
   1c402:	4b0c      	ldr	r3, [pc, #48]	; (1c434 <app_timer_init+0xd0>)
   1c404:	601a      	str	r2, [r3, #0]
   1c406:	b005      	add	sp, #20
   1c408:	bdf0      	pop	{r4, r5, r6, r7, pc}
   1c40a:	46c0      	nop			; (mov r8, r8)
   1c40c:	6858      	ldr	r0, [r3, #4]
   1c40e:	2000      	movs	r0, #0
   1c410:	6850      	ldr	r0, [r2, #4]
   1c412:	2000      	movs	r0, #0
   1c414:	6854      	ldr	r4, [r2, #4]
   1c416:	2000      	movs	r0, #0
   1c418:	684c      	ldr	r4, [r1, #4]
   1c41a:	2000      	movs	r0, #0
   1c41c:	685c      	ldr	r4, [r3, #4]
   1c41e:	2000      	movs	r0, #0
   1c420:	685d      	ldr	r5, [r3, #4]
   1c422:	2000      	movs	r0, #0
   1c424:	e100      	b.n	1c628 <ble_address_set+0x4>
   1c426:	e000      	b.n	1c42a <app_timer_init+0xc6>
   1c428:	1000      	asrs	r0, r0, #32
   1c42a:	4001      	ands	r1, r0
   1c42c:	00ff      	lsls	r7, r7, #3
   1c42e:	ffff 0504 	vabal.u<illegal width 64>	q8, d15, d4
   1c432:	0000      	movs	r0, r0
   1c434:	6848      	ldr	r0, [r1, #4]
   1c436:	2000      	movs	r0, #0

0001c438 <app_timer_create>:
   1c438:	4b0a      	ldr	r3, [pc, #40]	; (1c464 <app_timer_create+0x2c>)
   1c43a:	b510      	push	{r4, lr}
   1c43c:	681c      	ldr	r4, [r3, #0]
   1c43e:	2308      	movs	r3, #8
   1c440:	2c00      	cmp	r4, #0
   1c442:	d00c      	beq.n	1c45e <app_timer_create+0x26>
   1c444:	3b01      	subs	r3, #1
   1c446:	2a00      	cmp	r2, #0
   1c448:	d009      	beq.n	1c45e <app_timer_create+0x26>
   1c44a:	2800      	cmp	r0, #0
   1c44c:	d007      	beq.n	1c45e <app_timer_create+0x26>
   1c44e:	6800      	ldr	r0, [r0, #0]
   1c450:	3301      	adds	r3, #1
   1c452:	7c04      	ldrb	r4, [r0, #16]
   1c454:	2c00      	cmp	r4, #0
   1c456:	d102      	bne.n	1c45e <app_timer_create+0x26>
   1c458:	0023      	movs	r3, r4
   1c45a:	7441      	strb	r1, [r0, #17]
   1c45c:	6142      	str	r2, [r0, #20]
   1c45e:	0018      	movs	r0, r3
   1c460:	bd10      	pop	{r4, pc}
   1c462:	46c0      	nop			; (mov r8, r8)
   1c464:	6858      	ldr	r0, [r3, #4]
   1c466:	2000      	movs	r0, #0

0001c468 <app_timer_start>:
   1c468:	b5f0      	push	{r4, r5, r6, r7, lr}
   1c46a:	4b1d      	ldr	r3, [pc, #116]	; (1c4e0 <app_timer_start+0x78>)
   1c46c:	b085      	sub	sp, #20
   1c46e:	681e      	ldr	r6, [r3, #0]
   1c470:	0004      	movs	r4, r0
   1c472:	000d      	movs	r5, r1
   1c474:	9201      	str	r2, [sp, #4]
   1c476:	2008      	movs	r0, #8
   1c478:	2e00      	cmp	r6, #0
   1c47a:	d02f      	beq.n	1c4dc <app_timer_start+0x74>
   1c47c:	2c00      	cmp	r4, #0
   1c47e:	d02d      	beq.n	1c4dc <app_timer_start+0x74>
   1c480:	3801      	subs	r0, #1
   1c482:	2904      	cmp	r1, #4
   1c484:	d92a      	bls.n	1c4dc <app_timer_start+0x74>
   1c486:	6963      	ldr	r3, [r4, #20]
   1c488:	3001      	adds	r0, #1
   1c48a:	2b00      	cmp	r3, #0
   1c48c:	d026      	beq.n	1c4dc <app_timer_start+0x74>
   1c48e:	7c63      	ldrb	r3, [r4, #17]
   1c490:	2700      	movs	r7, #0
   1c492:	2b01      	cmp	r3, #1
   1c494:	d100      	bne.n	1c498 <app_timer_start+0x30>
   1c496:	000f      	movs	r7, r1
   1c498:	f7ff fcf4 	bl	1be84 <user_id_get>
   1c49c:	00c0      	lsls	r0, r0, #3
   1c49e:	1833      	adds	r3, r6, r0
   1c4a0:	9300      	str	r3, [sp, #0]
   1c4a2:	ab02      	add	r3, sp, #8
   1c4a4:	1dde      	adds	r6, r3, #7
   1c4a6:	0031      	movs	r1, r6
   1c4a8:	9800      	ldr	r0, [sp, #0]
   1c4aa:	f7ff fcd7 	bl	1be5c <user_op_alloc>
   1c4ae:	0003      	movs	r3, r0
   1c4b0:	2004      	movs	r0, #4
   1c4b2:	2b00      	cmp	r3, #0
   1c4b4:	d012      	beq.n	1c4dc <app_timer_start+0x74>
   1c4b6:	2201      	movs	r2, #1
   1c4b8:	490a      	ldr	r1, [pc, #40]	; (1c4e4 <app_timer_start+0x7c>)
   1c4ba:	701a      	strb	r2, [r3, #0]
   1c4bc:	4a0a      	ldr	r2, [pc, #40]	; (1c4e8 <app_timer_start+0x80>)
   1c4be:	605c      	str	r4, [r3, #4]
   1c4c0:	588a      	ldr	r2, [r1, r2]
   1c4c2:	60dd      	str	r5, [r3, #12]
   1c4c4:	609a      	str	r2, [r3, #8]
   1c4c6:	9a01      	ldr	r2, [sp, #4]
   1c4c8:	611f      	str	r7, [r3, #16]
   1c4ca:	615a      	str	r2, [r3, #20]
   1c4cc:	7833      	ldrb	r3, [r6, #0]
   1c4ce:	9a00      	ldr	r2, [sp, #0]
   1c4d0:	2000      	movs	r0, #0
   1c4d2:	7053      	strb	r3, [r2, #1]
   1c4d4:	2280      	movs	r2, #128	; 0x80
   1c4d6:	4b05      	ldr	r3, [pc, #20]	; (1c4ec <app_timer_start+0x84>)
   1c4d8:	0352      	lsls	r2, r2, #13
   1c4da:	605a      	str	r2, [r3, #4]
   1c4dc:	b005      	add	sp, #20
   1c4de:	bdf0      	pop	{r4, r5, r6, r7, pc}
   1c4e0:	6858      	ldr	r0, [r3, #4]
   1c4e2:	2000      	movs	r0, #0
   1c4e4:	1000      	asrs	r0, r0, #32
   1c4e6:	4001      	ands	r1, r0
   1c4e8:	0504      	lsls	r4, r0, #20
   1c4ea:	0000      	movs	r0, r0
   1c4ec:	e1fc      	b.n	1c8e8 <ble_evt_dispatch+0x6c>
   1c4ee:	e000      	b.n	1c4f2 <app_timer_stop+0x2>

0001c4f0 <app_timer_stop>:
   1c4f0:	4b13      	ldr	r3, [pc, #76]	; (1c540 <app_timer_stop+0x50>)
   1c4f2:	b5f7      	push	{r0, r1, r2, r4, r5, r6, r7, lr}
   1c4f4:	681f      	ldr	r7, [r3, #0]
   1c4f6:	0005      	movs	r5, r0
   1c4f8:	2308      	movs	r3, #8
   1c4fa:	2f00      	cmp	r7, #0
   1c4fc:	d01d      	beq.n	1c53a <app_timer_stop+0x4a>
   1c4fe:	2800      	cmp	r0, #0
   1c500:	d01b      	beq.n	1c53a <app_timer_stop+0x4a>
   1c502:	6942      	ldr	r2, [r0, #20]
   1c504:	2a00      	cmp	r2, #0
   1c506:	d018      	beq.n	1c53a <app_timer_stop+0x4a>
   1c508:	2600      	movs	r6, #0
   1c50a:	7406      	strb	r6, [r0, #16]
   1c50c:	f7ff fcba 	bl	1be84 <user_id_get>
   1c510:	466b      	mov	r3, sp
   1c512:	00c4      	lsls	r4, r0, #3
   1c514:	193c      	adds	r4, r7, r4
   1c516:	1ddf      	adds	r7, r3, #7
   1c518:	0039      	movs	r1, r7
   1c51a:	0020      	movs	r0, r4
   1c51c:	f7ff fc9e 	bl	1be5c <user_op_alloc>
   1c520:	2304      	movs	r3, #4
   1c522:	42b0      	cmp	r0, r6
   1c524:	d009      	beq.n	1c53a <app_timer_stop+0x4a>
   1c526:	2280      	movs	r2, #128	; 0x80
   1c528:	3b02      	subs	r3, #2
   1c52a:	7003      	strb	r3, [r0, #0]
   1c52c:	783b      	ldrb	r3, [r7, #0]
   1c52e:	6045      	str	r5, [r0, #4]
   1c530:	7063      	strb	r3, [r4, #1]
   1c532:	4b04      	ldr	r3, [pc, #16]	; (1c544 <app_timer_stop+0x54>)
   1c534:	0352      	lsls	r2, r2, #13
   1c536:	605a      	str	r2, [r3, #4]
   1c538:	0033      	movs	r3, r6
   1c53a:	0018      	movs	r0, r3
   1c53c:	bdfe      	pop	{r1, r2, r3, r4, r5, r6, r7, pc}
   1c53e:	46c0      	nop			; (mov r8, r8)
   1c540:	6858      	ldr	r0, [r3, #4]
   1c542:	2000      	movs	r0, #0
   1c544:	e1fc      	b.n	1c940 <ble_evt_dispatch+0xc4>
   1c546:	e000      	b.n	1c54a <app_error_handler_bare+0x2>

0001c548 <app_error_handler_bare>:
   1c548:	b51f      	push	{r0, r1, r2, r3, r4, lr}
   1c54a:	2100      	movs	r1, #0
   1c54c:	aa01      	add	r2, sp, #4
   1c54e:	6090      	str	r0, [r2, #8]
   1c550:	4803      	ldr	r0, [pc, #12]	; (1c560 <app_error_handler_bare+0x18>)
   1c552:	8011      	strh	r1, [r2, #0]
   1c554:	6051      	str	r1, [r2, #4]
   1c556:	f000 f85b 	bl	1c610 <app_error_fault_handler>
   1c55a:	b005      	add	sp, #20
   1c55c:	bd00      	pop	{pc}
   1c55e:	46c0      	nop			; (mov r8, r8)
   1c560:	4001      	ands	r1, r0
	...

0001c564 <led_init>:
   1c564:	0003      	movs	r3, r0
   1c566:	22a0      	movs	r2, #160	; 0xa0
   1c568:	2103      	movs	r1, #3
   1c56a:	33c1      	adds	r3, #193	; 0xc1
   1c56c:	33ff      	adds	r3, #255	; 0xff
   1c56e:	05d2      	lsls	r2, r2, #23
   1c570:	009b      	lsls	r3, r3, #2
   1c572:	5099      	str	r1, [r3, r2]
   1c574:	2301      	movs	r3, #1
   1c576:	21a1      	movs	r1, #161	; 0xa1
   1c578:	4083      	lsls	r3, r0
   1c57a:	00c9      	lsls	r1, r1, #3
   1c57c:	5053      	str	r3, [r2, r1]
   1c57e:	4770      	bx	lr

0001c580 <led_on>:
   1c580:	2301      	movs	r3, #1
   1c582:	21a0      	movs	r1, #160	; 0xa0
   1c584:	4083      	lsls	r3, r0
   1c586:	4a02      	ldr	r2, [pc, #8]	; (1c590 <led_on+0x10>)
   1c588:	05c9      	lsls	r1, r1, #23
   1c58a:	508b      	str	r3, [r1, r2]
   1c58c:	4770      	bx	lr
   1c58e:	46c0      	nop			; (mov r8, r8)
   1c590:	050c      	lsls	r4, r1, #20
	...

0001c594 <led_off>:
   1c594:	2301      	movs	r3, #1
   1c596:	22a1      	movs	r2, #161	; 0xa1
   1c598:	21a0      	movs	r1, #160	; 0xa0
   1c59a:	4083      	lsls	r3, r0
   1c59c:	00d2      	lsls	r2, r2, #3
   1c59e:	05c9      	lsls	r1, r1, #23
   1c5a0:	508b      	str	r3, [r1, r2]
   1c5a2:	4770      	bx	lr

0001c5a4 <sd_ble_gap_address_set>:
   1c5a4:	df70      	svc	112	; 0x70
   1c5a6:	4770      	bx	lr

0001c5a8 <sd_ble_gap_address_get>:
   1c5a8:	df71      	svc	113	; 0x71
   1c5aa:	4770      	bx	lr

0001c5ac <sd_ble_gap_adv_start>:
   1c5ac:	df73      	svc	115	; 0x73
   1c5ae:	4770      	bx	lr

0001c5b0 <sd_ble_gap_adv_stop>:
   1c5b0:	df74      	svc	116	; 0x74
   1c5b2:	4770      	bx	lr

0001c5b4 <sd_ble_gap_disconnect>:
   1c5b4:	df76      	svc	118	; 0x76
   1c5b6:	4770      	bx	lr

0001c5b8 <sd_ble_gap_tx_power_set>:
   1c5b8:	df77      	svc	119	; 0x77
   1c5ba:	4770      	bx	lr

0001c5bc <sd_ble_gap_appearance_set>:
   1c5bc:	df78      	svc	120	; 0x78
   1c5be:	4770      	bx	lr

0001c5c0 <sd_ble_gap_ppcp_set>:
   1c5c0:	df7a      	svc	122	; 0x7a
   1c5c2:	4770      	bx	lr

0001c5c4 <sd_ble_gap_device_name_set>:
   1c5c4:	df7c      	svc	124	; 0x7c
   1c5c6:	4770      	bx	lr

0001c5c8 <sd_ble_gap_sec_params_reply>:
   1c5c8:	df7f      	svc	127	; 0x7f
   1c5ca:	4770      	bx	lr

0001c5cc <sd_ble_gap_sec_info_reply>:
   1c5cc:	df86      	svc	134	; 0x86
   1c5ce:	4770      	bx	lr

0001c5d0 <sd_ble_gatts_service_add>:
   1c5d0:	dfa0      	svc	160	; 0xa0
   1c5d2:	4770      	bx	lr

0001c5d4 <sd_ble_gatts_characteristic_add>:
   1c5d4:	dfa2      	svc	162	; 0xa2
   1c5d6:	4770      	bx	lr

0001c5d8 <sd_ble_gatts_sys_attr_set>:
   1c5d8:	dfa9      	svc	169	; 0xa9
   1c5da:	4770      	bx	lr

0001c5dc <sd_ble_uuid_vs_add>:
   1c5dc:	df63      	svc	99	; 0x63
   1c5de:	4770      	bx	lr

0001c5e0 <sd_power_system_off>:
   1c5e0:	df3c      	svc	60	; 0x3c
   1c5e2:	4770      	bx	lr

0001c5e4 <sys_evt_dispatch>:
   1c5e4:	4770      	bx	lr

0001c5e6 <conn_params_error_handler>:
   1c5e6:	b510      	push	{r4, lr}
   1c5e8:	f7ff ffae 	bl	1c548 <app_error_handler_bare>
   1c5ec:	bd10      	pop	{r4, pc}
	...

0001c5f0 <on_conn_params_evt>:
   1c5f0:	7803      	ldrb	r3, [r0, #0]
   1c5f2:	b510      	push	{r4, lr}
   1c5f4:	2b00      	cmp	r3, #0
   1c5f6:	d108      	bne.n	1c60a <on_conn_params_evt+0x1a>
   1c5f8:	4b04      	ldr	r3, [pc, #16]	; (1c60c <on_conn_params_evt+0x1c>)
   1c5fa:	213b      	movs	r1, #59	; 0x3b
   1c5fc:	8818      	ldrh	r0, [r3, #0]
   1c5fe:	f7ff ffd9 	bl	1c5b4 <sd_ble_gap_disconnect>
   1c602:	2800      	cmp	r0, #0
   1c604:	d001      	beq.n	1c60a <on_conn_params_evt+0x1a>
   1c606:	f7ff ff9f 	bl	1c548 <app_error_handler_bare>
   1c60a:	bd10      	pop	{r4, pc}
   1c60c:	72c8      	strb	r0, [r1, #11]
   1c60e:	2000      	movs	r0, #0

0001c610 <app_error_fault_handler>:
   1c610:	4b03      	ldr	r3, [pc, #12]	; (1c620 <app_error_fault_handler+0x10>)
   1c612:	b510      	push	{r4, lr}
   1c614:	2b00      	cmp	r3, #0
   1c616:	d001      	beq.n	1c61c <app_error_fault_handler+0xc>
   1c618:	e000      	b.n	1c61c <app_error_fault_handler+0xc>
   1c61a:	bf00      	nop
   1c61c:	e7fe      	b.n	1c61c <app_error_fault_handler+0xc>
   1c61e:	46c0      	nop			; (mov r8, r8)
   1c620:	0000      	movs	r0, r0
	...

0001c624 <ble_address_set>:
   1c624:	b51f      	push	{r0, r1, r2, r3, r4, lr}
   1c626:	4b1c      	ldr	r3, [pc, #112]	; (1c698 <ble_address_set+0x74>)
   1c628:	ac02      	add	r4, sp, #8
   1c62a:	781b      	ldrb	r3, [r3, #0]
   1c62c:	2bff      	cmp	r3, #255	; 0xff
   1c62e:	d123      	bne.n	1c678 <ble_address_set+0x54>
   1c630:	4b1a      	ldr	r3, [pc, #104]	; (1c69c <ble_address_set+0x78>)
   1c632:	781b      	ldrb	r3, [r3, #0]
   1c634:	2bff      	cmp	r3, #255	; 0xff
   1c636:	d11f      	bne.n	1c678 <ble_address_set+0x54>
   1c638:	2300      	movs	r3, #0
   1c63a:	466a      	mov	r2, sp
   1c63c:	4669      	mov	r1, sp
   1c63e:	7013      	strb	r3, [r2, #0]
   1c640:	7053      	strb	r3, [r2, #1]
   1c642:	4b17      	ldr	r3, [pc, #92]	; (1c6a0 <ble_address_set+0x7c>)
   1c644:	681b      	ldr	r3, [r3, #0]
   1c646:	781a      	ldrb	r2, [r3, #0]
   1c648:	708a      	strb	r2, [r1, #2]
   1c64a:	22e5      	movs	r2, #229	; 0xe5
   1c64c:	70ca      	strb	r2, [r1, #3]
   1c64e:	3a4d      	subs	r2, #77	; 0x4d
   1c650:	710a      	strb	r2, [r1, #4]
   1c652:	3228      	adds	r2, #40	; 0x28
   1c654:	714a      	strb	r2, [r1, #5]
   1c656:	885b      	ldrh	r3, [r3, #2]
   1c658:	4a12      	ldr	r2, [pc, #72]	; (1c6a4 <ble_address_set+0x80>)
   1c65a:	4293      	cmp	r3, r2
   1c65c:	d004      	beq.n	1c668 <ble_address_set+0x44>
   1c65e:	700b      	strb	r3, [r1, #0]
   1c660:	0a1b      	lsrs	r3, r3, #8
   1c662:	704b      	strb	r3, [r1, #1]
   1c664:	2206      	movs	r2, #6
   1c666:	e009      	b.n	1c67c <ble_address_set+0x58>
   1c668:	0020      	movs	r0, r4
   1c66a:	f7ff ff9d 	bl	1c5a8 <sd_ble_gap_address_get>
   1c66e:	466b      	mov	r3, sp
   1c670:	2204      	movs	r2, #4
   1c672:	1c99      	adds	r1, r3, #2
   1c674:	200b      	movs	r0, #11
   1c676:	e002      	b.n	1c67e <ble_address_set+0x5a>
   1c678:	2206      	movs	r2, #6
   1c67a:	4908      	ldr	r1, [pc, #32]	; (1c69c <ble_address_set+0x78>)
   1c67c:	2009      	movs	r0, #9
   1c67e:	4468      	add	r0, sp
   1c680:	f003 fa22 	bl	1fac8 <memcpy>
   1c684:	2000      	movs	r0, #0
   1c686:	0021      	movs	r1, r4
   1c688:	7020      	strb	r0, [r4, #0]
   1c68a:	f7ff ff8b 	bl	1c5a4 <sd_ble_gap_address_set>
   1c68e:	2800      	cmp	r0, #0
   1c690:	d001      	beq.n	1c696 <ble_address_set+0x72>
   1c692:	f7ff ff59 	bl	1c548 <app_error_handler_bare>
   1c696:	bd1f      	pop	{r0, r1, r2, r3, r4, pc}
   1c698:	fff9 0003 	vcgt.s32	d16, d3, #0
   1c69c:	fff8 0003 	vrev64.32	d16, d3
   1c6a0:	6b9c      	ldr	r4, [r3, #56]	; 0x38
   1c6a2:	2000      	movs	r0, #0
   1c6a4:	ffff 0000 	vaddl.u<illegal width 64>	q8, d15, d0

0001c6a8 <ble_stack_init>:
   1c6a8:	b510      	push	{r4, lr}
   1c6aa:	b086      	sub	sp, #24
   1c6ac:	2204      	movs	r2, #4
   1c6ae:	491d      	ldr	r1, [pc, #116]	; (1c724 <ble_stack_init+0x7c>)
   1c6b0:	4668      	mov	r0, sp
   1c6b2:	f003 fa09 	bl	1fac8 <memcpy>
   1c6b6:	2300      	movs	r3, #0
   1c6b8:	2248      	movs	r2, #72	; 0x48
   1c6ba:	491b      	ldr	r1, [pc, #108]	; (1c728 <ble_stack_init+0x80>)
   1c6bc:	4668      	mov	r0, sp
   1c6be:	f7fe ff01 	bl	1b4c4 <softdevice_handler_init>
   1c6c2:	2800      	cmp	r0, #0
   1c6c4:	d001      	beq.n	1c6ca <ble_stack_init+0x22>
   1c6c6:	f7ff ff3f 	bl	1c548 <app_error_handler_bare>
   1c6ca:	2101      	movs	r1, #1
   1c6cc:	ac01      	add	r4, sp, #4
   1c6ce:	0022      	movs	r2, r4
   1c6d0:	0008      	movs	r0, r1
   1c6d2:	f7fe ff57 	bl	1b584 <softdevice_enable_get_default_config>
   1c6d6:	2300      	movs	r3, #0
   1c6d8:	8023      	strh	r3, [r4, #0]
   1c6da:	4298      	cmp	r0, r3
   1c6dc:	d001      	beq.n	1c6e2 <ble_stack_init+0x3a>
   1c6de:	f7ff ff33 	bl	1c548 <app_error_handler_bare>
   1c6e2:	4812      	ldr	r0, [pc, #72]	; (1c72c <ble_stack_init+0x84>)
   1c6e4:	f7fe ff62 	bl	1b5ac <sd_check_ram_start>
   1c6e8:	2800      	cmp	r0, #0
   1c6ea:	d001      	beq.n	1c6f0 <ble_stack_init+0x48>
   1c6ec:	f7ff ff2c 	bl	1c548 <app_error_handler_bare>
   1c6f0:	0020      	movs	r0, r4
   1c6f2:	f7fe ff65 	bl	1b5c0 <softdevice_enable>
   1c6f6:	2800      	cmp	r0, #0
   1c6f8:	d001      	beq.n	1c6fe <ble_stack_init+0x56>
   1c6fa:	f7ff ff25 	bl	1c548 <app_error_handler_bare>
   1c6fe:	480c      	ldr	r0, [pc, #48]	; (1c730 <ble_stack_init+0x88>)
   1c700:	f7fe ff1c 	bl	1b53c <softdevice_ble_evt_handler_set>
   1c704:	2800      	cmp	r0, #0
   1c706:	d001      	beq.n	1c70c <ble_stack_init+0x64>
   1c708:	f7ff ff1e 	bl	1c548 <app_error_handler_bare>
   1c70c:	4809      	ldr	r0, [pc, #36]	; (1c734 <ble_stack_init+0x8c>)
   1c70e:	f7fe ff1f 	bl	1b550 <softdevice_sys_evt_handler_set>
   1c712:	2800      	cmp	r0, #0
   1c714:	d001      	beq.n	1c71a <ble_stack_init+0x72>
   1c716:	f7ff ff17 	bl	1c548 <app_error_handler_bare>
   1c71a:	f7ff ff83 	bl	1c624 <ble_address_set>
   1c71e:	b006      	add	sp, #24
   1c720:	bd10      	pop	{r4, pc}
   1c722:	46c0      	nop			; (mov r8, r8)
   1c724:	fd68 0001 	stc2l	0, cr0, [r8, #-4]!
   1c728:	6b54      	ldr	r4, [r2, #52]	; 0x34
   1c72a:	2000      	movs	r0, #0
   1c72c:	2418      	movs	r4, #24
   1c72e:	2000      	movs	r0, #0
   1c730:	c87d      	ldmia	r0, {r0, r2, r3, r4, r5, r6}
   1c732:	0001      	movs	r1, r0
   1c734:	c5e5      	stmia	r5!, {r0, r2, r5, r6, r7}
   1c736:	0001      	movs	r1, r0

0001c738 <gap_params_init>:
   1c738:	b537      	push	{r0, r1, r2, r4, r5, lr}
   1c73a:	2004      	movs	r0, #4
   1c73c:	f7ff ff3c 	bl	1c5b8 <sd_ble_gap_tx_power_set>
   1c740:	2311      	movs	r3, #17
   1c742:	ac01      	add	r4, sp, #4
   1c744:	7023      	strb	r3, [r4, #0]
   1c746:	4b0b      	ldr	r3, [pc, #44]	; (1c774 <gap_params_init+0x3c>)
   1c748:	681b      	ldr	r3, [r3, #0]
   1c74a:	685d      	ldr	r5, [r3, #4]
   1c74c:	0028      	movs	r0, r5
   1c74e:	f003 faa7 	bl	1fca0 <strlen>
   1c752:	0029      	movs	r1, r5
   1c754:	b282      	uxth	r2, r0
   1c756:	0020      	movs	r0, r4
   1c758:	f7ff ff34 	bl	1c5c4 <sd_ble_gap_device_name_set>
   1c75c:	2800      	cmp	r0, #0
   1c75e:	d001      	beq.n	1c764 <gap_params_init+0x2c>
   1c760:	f7ff fef2 	bl	1c548 <app_error_handler_bare>
   1c764:	2080      	movs	r0, #128	; 0x80
   1c766:	f7ff ff29 	bl	1c5bc <sd_ble_gap_appearance_set>
   1c76a:	2800      	cmp	r0, #0
   1c76c:	d001      	beq.n	1c772 <gap_params_init+0x3a>
   1c76e:	f7ff feeb 	bl	1c548 <app_error_handler_bare>
   1c772:	bd37      	pop	{r0, r1, r2, r4, r5, pc}
   1c774:	6b9c      	ldr	r4, [r3, #56]	; 0x38
   1c776:	2000      	movs	r0, #0

0001c778 <advertising_init>:
   1c778:	b510      	push	{r4, lr}
   1c77a:	4c05      	ldr	r4, [pc, #20]	; (1c790 <advertising_init+0x18>)
   1c77c:	2218      	movs	r2, #24
   1c77e:	2100      	movs	r1, #0
   1c780:	0020      	movs	r0, r4
   1c782:	f003 f9bf 	bl	1fb04 <memset>
   1c786:	4b03      	ldr	r3, [pc, #12]	; (1c794 <advertising_init+0x1c>)
   1c788:	681b      	ldr	r3, [r3, #0]
   1c78a:	891b      	ldrh	r3, [r3, #8]
   1c78c:	8223      	strh	r3, [r4, #16]
   1c78e:	bd10      	pop	{r4, pc}
   1c790:	72b0      	strb	r0, [r6, #10]
   1c792:	2000      	movs	r0, #0
   1c794:	6b9c      	ldr	r4, [r3, #56]	; 0x38
   1c796:	2000      	movs	r0, #0

0001c798 <conn_params_init>:
   1c798:	b510      	push	{r4, lr}
   1c79a:	b08c      	sub	sp, #48	; 0x30
   1c79c:	ac03      	add	r4, sp, #12
   1c79e:	2208      	movs	r2, #8
   1c7a0:	2100      	movs	r1, #0
   1c7a2:	0020      	movs	r0, r4
   1c7a4:	f003 f9ae 	bl	1fb04 <memset>
   1c7a8:	4b1a      	ldr	r3, [pc, #104]	; (1c814 <conn_params_init+0x7c>)
   1c7aa:	0020      	movs	r0, r4
   1c7ac:	681b      	ldr	r3, [r3, #0]
   1c7ae:	895a      	ldrh	r2, [r3, #10]
   1c7b0:	8022      	strh	r2, [r4, #0]
   1c7b2:	899b      	ldrh	r3, [r3, #12]
   1c7b4:	8063      	strh	r3, [r4, #2]
   1c7b6:	4b18      	ldr	r3, [pc, #96]	; (1c818 <conn_params_init+0x80>)
   1c7b8:	681b      	ldr	r3, [r3, #0]
   1c7ba:	9301      	str	r3, [sp, #4]
   1c7bc:	466b      	mov	r3, sp
   1c7be:	889b      	ldrh	r3, [r3, #4]
   1c7c0:	80a3      	strh	r3, [r4, #4]
   1c7c2:	4b16      	ldr	r3, [pc, #88]	; (1c81c <conn_params_init+0x84>)
   1c7c4:	681b      	ldr	r3, [r3, #0]
   1c7c6:	9301      	str	r3, [sp, #4]
   1c7c8:	466b      	mov	r3, sp
   1c7ca:	889b      	ldrh	r3, [r3, #4]
   1c7cc:	80e3      	strh	r3, [r4, #6]
   1c7ce:	f7ff fef7 	bl	1c5c0 <sd_ble_gap_ppcp_set>
   1c7d2:	2800      	cmp	r0, #0
   1c7d4:	d001      	beq.n	1c7da <conn_params_init+0x42>
   1c7d6:	f7ff feb7 	bl	1c548 <app_error_handler_bare>
   1c7da:	ac05      	add	r4, sp, #20
   1c7dc:	221c      	movs	r2, #28
   1c7de:	2100      	movs	r1, #0
   1c7e0:	0020      	movs	r0, r4
   1c7e2:	f003 f98f 	bl	1fb04 <memset>
   1c7e6:	4b0e      	ldr	r3, [pc, #56]	; (1c820 <conn_params_init+0x88>)
   1c7e8:	0020      	movs	r0, r4
   1c7ea:	681b      	ldr	r3, [r3, #0]
   1c7ec:	9301      	str	r3, [sp, #4]
   1c7ee:	6063      	str	r3, [r4, #4]
   1c7f0:	23f0      	movs	r3, #240	; 0xf0
   1c7f2:	031b      	lsls	r3, r3, #12
   1c7f4:	60a3      	str	r3, [r4, #8]
   1c7f6:	2303      	movs	r3, #3
   1c7f8:	7323      	strb	r3, [r4, #12]
   1c7fa:	4b0a      	ldr	r3, [pc, #40]	; (1c824 <conn_params_init+0x8c>)
   1c7fc:	6163      	str	r3, [r4, #20]
   1c7fe:	4b0a      	ldr	r3, [pc, #40]	; (1c828 <conn_params_init+0x90>)
   1c800:	61a3      	str	r3, [r4, #24]
   1c802:	f7ff fa5f 	bl	1bcc4 <ble_conn_params_init>
   1c806:	2800      	cmp	r0, #0
   1c808:	d001      	beq.n	1c80e <conn_params_init+0x76>
   1c80a:	f7ff fe9d 	bl	1c548 <app_error_handler_bare>
   1c80e:	b00c      	add	sp, #48	; 0x30
   1c810:	bd10      	pop	{r4, pc}
   1c812:	46c0      	nop			; (mov r8, r8)
   1c814:	6b9c      	ldr	r4, [r3, #56]	; 0x38
   1c816:	2000      	movs	r0, #0
   1c818:	fd6c 0001 	stc2l	0, cr0, [ip, #-4]!
   1c81c:	fd70 0001 	ldc2l	0, cr0, [r0, #-4]!
   1c820:	fd74 0001 	ldc2l	0, cr0, [r4, #-4]!
   1c824:	c5f1      	stmia	r5!, {r0, r4, r5, r6, r7}
   1c826:	0001      	movs	r1, r0
   1c828:	c5e7      	stmia	r5!, {r0, r1, r2, r5, r6, r7}
   1c82a:	0001      	movs	r1, r0

0001c82c <initialize_app_timer>:
   1c82c:	2300      	movs	r3, #0
   1c82e:	b510      	push	{r4, lr}
   1c830:	4a04      	ldr	r2, [pc, #16]	; (1c844 <initialize_app_timer+0x18>)
   1c832:	2109      	movs	r1, #9
   1c834:	0018      	movs	r0, r3
   1c836:	f7ff fd95 	bl	1c364 <app_timer_init>
   1c83a:	2800      	cmp	r0, #0
   1c83c:	d001      	beq.n	1c842 <initialize_app_timer+0x16>
   1c83e:	f7ff fe83 	bl	1c548 <app_error_handler_bare>
   1c842:	bd10      	pop	{r4, pc}
   1c844:	686c      	ldr	r4, [r5, #4]
   1c846:	2000      	movs	r0, #0

0001c848 <advertising_start>:
   1c848:	b510      	push	{r4, lr}
   1c84a:	4806      	ldr	r0, [pc, #24]	; (1c864 <advertising_start+0x1c>)
   1c84c:	f7ff feae 	bl	1c5ac <sd_ble_gap_adv_start>
   1c850:	2812      	cmp	r0, #18
   1c852:	d005      	beq.n	1c860 <advertising_start+0x18>
   1c854:	2308      	movs	r3, #8
   1c856:	0002      	movs	r2, r0
   1c858:	439a      	bics	r2, r3
   1c85a:	d001      	beq.n	1c860 <advertising_start+0x18>
   1c85c:	f7ff fe74 	bl	1c548 <app_error_handler_bare>
   1c860:	bd10      	pop	{r4, pc}
   1c862:	46c0      	nop			; (mov r8, r8)
   1c864:	72b0      	strb	r0, [r6, #10]
   1c866:	2000      	movs	r0, #0

0001c868 <advertising_stop>:
   1c868:	b510      	push	{r4, lr}
   1c86a:	f7ff fea1 	bl	1c5b0 <sd_ble_gap_adv_stop>
   1c86e:	2308      	movs	r3, #8
   1c870:	0002      	movs	r2, r0
   1c872:	439a      	bics	r2, r3
   1c874:	d001      	beq.n	1c87a <advertising_stop+0x12>
   1c876:	f7ff fe67 	bl	1c548 <app_error_handler_bare>
   1c87a:	bd10      	pop	{r4, pc}

0001c87c <ble_evt_dispatch>:
   1c87c:	b570      	push	{r4, r5, r6, lr}
   1c87e:	8803      	ldrh	r3, [r0, #0]
   1c880:	0004      	movs	r4, r0
   1c882:	2b1b      	cmp	r3, #27
   1c884:	d066      	beq.n	1c954 <ble_evt_dispatch+0xd8>
   1c886:	d811      	bhi.n	1c8ac <ble_evt_dispatch+0x30>
   1c888:	2b11      	cmp	r3, #17
   1c88a:	d035      	beq.n	1c8f8 <ble_evt_dispatch+0x7c>
   1c88c:	d802      	bhi.n	1c894 <ble_evt_dispatch+0x18>
   1c88e:	2b10      	cmp	r3, #16
   1c890:	d019      	beq.n	1c8c6 <ble_evt_dispatch+0x4a>
   1c892:	e077      	b.n	1c984 <ble_evt_dispatch+0x108>
   1c894:	2b13      	cmp	r3, #19
   1c896:	d04d      	beq.n	1c934 <ble_evt_dispatch+0xb8>
   1c898:	2b14      	cmp	r3, #20
   1c89a:	d173      	bne.n	1c984 <ble_evt_dispatch+0x108>
   1c89c:	4b3e      	ldr	r3, [pc, #248]	; (1c998 <ble_evt_dispatch+0x11c>)
   1c89e:	8818      	ldrh	r0, [r3, #0]
   1c8a0:	2300      	movs	r3, #0
   1c8a2:	001a      	movs	r2, r3
   1c8a4:	0019      	movs	r1, r3
   1c8a6:	f7ff fe91 	bl	1c5cc <sd_ble_gap_sec_info_reply>
   1c8aa:	e061      	b.n	1c970 <ble_evt_dispatch+0xf4>
   1c8ac:	2b51      	cmp	r3, #81	; 0x51
   1c8ae:	d03b      	beq.n	1c928 <ble_evt_dispatch+0xac>
   1c8b0:	d804      	bhi.n	1c8bc <ble_evt_dispatch+0x40>
   1c8b2:	2b1d      	cmp	r3, #29
   1c8b4:	d061      	beq.n	1c97a <ble_evt_dispatch+0xfe>
   1c8b6:	2b50      	cmp	r3, #80	; 0x50
   1c8b8:	d030      	beq.n	1c91c <ble_evt_dispatch+0xa0>
   1c8ba:	e063      	b.n	1c984 <ble_evt_dispatch+0x108>
   1c8bc:	2b52      	cmp	r3, #82	; 0x52
   1c8be:	d041      	beq.n	1c944 <ble_evt_dispatch+0xc8>
   1c8c0:	2b55      	cmp	r3, #85	; 0x55
   1c8c2:	d04d      	beq.n	1c960 <ble_evt_dispatch+0xe4>
   1c8c4:	e05e      	b.n	1c984 <ble_evt_dispatch+0x108>
   1c8c6:	2202      	movs	r2, #2
   1c8c8:	8883      	ldrh	r3, [r0, #4]
   1c8ca:	4d33      	ldr	r5, [pc, #204]	; (1c998 <ble_evt_dispatch+0x11c>)
   1c8cc:	802b      	strh	r3, [r5, #0]
   1c8ce:	4b33      	ldr	r3, [pc, #204]	; (1c99c <ble_evt_dispatch+0x120>)
   1c8d0:	701a      	strb	r2, [r3, #0]
   1c8d2:	f7ff ffb9 	bl	1c848 <advertising_start>
   1c8d6:	2300      	movs	r3, #0
   1c8d8:	8828      	ldrh	r0, [r5, #0]
   1c8da:	001a      	movs	r2, r3
   1c8dc:	0019      	movs	r1, r3
   1c8de:	f7ff fe7b 	bl	1c5d8 <sd_ble_gatts_sys_attr_set>
   1c8e2:	2800      	cmp	r0, #0
   1c8e4:	d001      	beq.n	1c8ea <ble_evt_dispatch+0x6e>
   1c8e6:	f7ff fe2f 	bl	1c548 <app_error_handler_bare>
   1c8ea:	4b2d      	ldr	r3, [pc, #180]	; (1c9a0 <ble_evt_dispatch+0x124>)
   1c8ec:	2b00      	cmp	r3, #0
   1c8ee:	d049      	beq.n	1c984 <ble_evt_dispatch+0x108>
   1c8f0:	0020      	movs	r0, r4
   1c8f2:	f7fe fd5b 	bl	1b3ac <ble_evt_connected>
   1c8f6:	e045      	b.n	1c984 <ble_evt_dispatch+0x108>
   1c8f8:	2201      	movs	r2, #1
   1c8fa:	4b27      	ldr	r3, [pc, #156]	; (1c998 <ble_evt_dispatch+0x11c>)
   1c8fc:	4252      	negs	r2, r2
   1c8fe:	801a      	strh	r2, [r3, #0]
   1c900:	f7ff ffb2 	bl	1c868 <advertising_stop>
   1c904:	2200      	movs	r2, #0
   1c906:	4b25      	ldr	r3, [pc, #148]	; (1c99c <ble_evt_dispatch+0x120>)
   1c908:	701a      	strb	r2, [r3, #0]
   1c90a:	f7ff ff9d 	bl	1c848 <advertising_start>
   1c90e:	4b25      	ldr	r3, [pc, #148]	; (1c9a4 <ble_evt_dispatch+0x128>)
   1c910:	2b00      	cmp	r3, #0
   1c912:	d037      	beq.n	1c984 <ble_evt_dispatch+0x108>
   1c914:	0020      	movs	r0, r4
   1c916:	f7fe fd4e 	bl	1b3b6 <ble_evt_disconnected>
   1c91a:	e033      	b.n	1c984 <ble_evt_dispatch+0x108>
   1c91c:	4b22      	ldr	r3, [pc, #136]	; (1c9a8 <ble_evt_dispatch+0x12c>)
   1c91e:	2b00      	cmp	r3, #0
   1c920:	d030      	beq.n	1c984 <ble_evt_dispatch+0x108>
   1c922:	f7fe fd17 	bl	1b354 <ble_evt_write>
   1c926:	e02d      	b.n	1c984 <ble_evt_dispatch+0x108>
   1c928:	4b20      	ldr	r3, [pc, #128]	; (1c9ac <ble_evt_dispatch+0x130>)
   1c92a:	2b00      	cmp	r3, #0
   1c92c:	d02a      	beq.n	1c984 <ble_evt_dispatch+0x108>
   1c92e:	e000      	b.n	1c932 <ble_evt_dispatch+0xb6>
   1c930:	bf00      	nop
   1c932:	e027      	b.n	1c984 <ble_evt_dispatch+0x108>
   1c934:	4b18      	ldr	r3, [pc, #96]	; (1c998 <ble_evt_dispatch+0x11c>)
   1c936:	4a1e      	ldr	r2, [pc, #120]	; (1c9b0 <ble_evt_dispatch+0x134>)
   1c938:	8818      	ldrh	r0, [r3, #0]
   1c93a:	2300      	movs	r3, #0
   1c93c:	0019      	movs	r1, r3
   1c93e:	f7ff fe43 	bl	1c5c8 <sd_ble_gap_sec_params_reply>
   1c942:	e015      	b.n	1c970 <ble_evt_dispatch+0xf4>
   1c944:	4b14      	ldr	r3, [pc, #80]	; (1c998 <ble_evt_dispatch+0x11c>)
   1c946:	8818      	ldrh	r0, [r3, #0]
   1c948:	2300      	movs	r3, #0
   1c94a:	001a      	movs	r2, r3
   1c94c:	0019      	movs	r1, r3
   1c94e:	f7ff fe43 	bl	1c5d8 <sd_ble_gatts_sys_attr_set>
   1c952:	e00d      	b.n	1c970 <ble_evt_dispatch+0xf4>
   1c954:	7a03      	ldrb	r3, [r0, #8]
   1c956:	2b00      	cmp	r3, #0
   1c958:	d114      	bne.n	1c984 <ble_evt_dispatch+0x108>
   1c95a:	f7ff fe41 	bl	1c5e0 <sd_power_system_off>
   1c95e:	e007      	b.n	1c970 <ble_evt_dispatch+0xf4>
   1c960:	7983      	ldrb	r3, [r0, #6]
   1c962:	2b00      	cmp	r3, #0
   1c964:	d10e      	bne.n	1c984 <ble_evt_dispatch+0x108>
   1c966:	4b0c      	ldr	r3, [pc, #48]	; (1c998 <ble_evt_dispatch+0x11c>)
   1c968:	2113      	movs	r1, #19
   1c96a:	8818      	ldrh	r0, [r3, #0]
   1c96c:	f7ff fe22 	bl	1c5b4 <sd_ble_gap_disconnect>
   1c970:	2800      	cmp	r0, #0
   1c972:	d007      	beq.n	1c984 <ble_evt_dispatch+0x108>
   1c974:	f7ff fde8 	bl	1c548 <app_error_handler_bare>
   1c978:	e004      	b.n	1c984 <ble_evt_dispatch+0x108>
   1c97a:	4b0e      	ldr	r3, [pc, #56]	; (1c9b4 <ble_evt_dispatch+0x138>)
   1c97c:	2b00      	cmp	r3, #0
   1c97e:	d001      	beq.n	1c984 <ble_evt_dispatch+0x108>
   1c980:	e000      	b.n	1c984 <ble_evt_dispatch+0x108>
   1c982:	bf00      	nop
   1c984:	4b0c      	ldr	r3, [pc, #48]	; (1c9b8 <ble_evt_dispatch+0x13c>)
   1c986:	2b00      	cmp	r3, #0
   1c988:	d002      	beq.n	1c990 <ble_evt_dispatch+0x114>
   1c98a:	0020      	movs	r0, r4
   1c98c:	e000      	b.n	1c990 <ble_evt_dispatch+0x114>
   1c98e:	bf00      	nop
   1c990:	0020      	movs	r0, r4
   1c992:	f7ff f9d1 	bl	1bd38 <ble_conn_params_on_ble_evt>
   1c996:	bd70      	pop	{r4, r5, r6, pc}
   1c998:	72c8      	strb	r0, [r1, #11]
   1c99a:	2000      	movs	r0, #0
   1c99c:	72b0      	strb	r0, [r6, #10]
   1c99e:	2000      	movs	r0, #0
   1c9a0:	b3ad      	cbz	r5, 1ca0e <simple_ble_add_service+0x22>
   1c9a2:	0001      	movs	r1, r0
   1c9a4:	b3b7      	cbz	r7, 1ca14 <simple_ble_add_service+0x28>
   1c9a6:	0001      	movs	r1, r0
   1c9a8:	b355      	cbz	r5, 1ca00 <simple_ble_add_service+0x14>
   1c9aa:	0001      	movs	r1, r0
   1c9ac:	0000      	movs	r0, r0
   1c9ae:	0000      	movs	r0, r0
   1c9b0:	285c      	cmp	r0, #92	; 0x5c
   1c9b2:	2000      	movs	r0, #0
	...

0001c9bc <simple_ble_init>:
   1c9bc:	4b09      	ldr	r3, [pc, #36]	; (1c9e4 <simple_ble_init+0x28>)
   1c9be:	b510      	push	{r4, lr}
   1c9c0:	6018      	str	r0, [r3, #0]
   1c9c2:	f7ff fe71 	bl	1c6a8 <ble_stack_init>
   1c9c6:	f7ff feb7 	bl	1c738 <gap_params_init>
   1c9ca:	f7ff fed5 	bl	1c778 <advertising_init>
   1c9ce:	f7fe fc63 	bl	1b298 <services_init>
   1c9d2:	f7ff ff2b 	bl	1c82c <initialize_app_timer>
   1c9d6:	f7ff fedf 	bl	1c798 <conn_params_init>
   1c9da:	2301      	movs	r3, #1
   1c9dc:	4802      	ldr	r0, [pc, #8]	; (1c9e8 <simple_ble_init+0x2c>)
   1c9de:	425b      	negs	r3, r3
   1c9e0:	8003      	strh	r3, [r0, #0]
   1c9e2:	bd10      	pop	{r4, pc}
   1c9e4:	6b9c      	ldr	r4, [r3, #56]	; 0x38
   1c9e6:	2000      	movs	r0, #0
   1c9e8:	72c8      	strb	r0, [r1, #11]
   1c9ea:	2000      	movs	r0, #0

0001c9ec <simple_ble_add_service>:
   1c9ec:	b510      	push	{r4, lr}
   1c9ee:	8a03      	ldrh	r3, [r0, #16]
   1c9f0:	0004      	movs	r4, r0
   1c9f2:	2b00      	cmp	r3, #0
   1c9f4:	d104      	bne.n	1ca00 <simple_ble_add_service+0x14>
   1c9f6:	7b03      	ldrb	r3, [r0, #12]
   1c9f8:	7b42      	ldrb	r2, [r0, #13]
   1c9fa:	021b      	lsls	r3, r3, #8
   1c9fc:	4313      	orrs	r3, r2
   1c9fe:	8203      	strh	r3, [r0, #16]
   1ca00:	0021      	movs	r1, r4
   1ca02:	0020      	movs	r0, r4
   1ca04:	3112      	adds	r1, #18
   1ca06:	f7ff fde9 	bl	1c5dc <sd_ble_uuid_vs_add>
   1ca0a:	2800      	cmp	r0, #0
   1ca0c:	d001      	beq.n	1ca12 <simple_ble_add_service+0x26>
   1ca0e:	f7ff fd9b 	bl	1c548 <app_error_handler_bare>
   1ca12:	0022      	movs	r2, r4
   1ca14:	0021      	movs	r1, r4
   1ca16:	3214      	adds	r2, #20
   1ca18:	3110      	adds	r1, #16
   1ca1a:	2001      	movs	r0, #1
   1ca1c:	f7ff fdd8 	bl	1c5d0 <sd_ble_gatts_service_add>
   1ca20:	2800      	cmp	r0, #0
   1ca22:	d001      	beq.n	1ca28 <simple_ble_add_service+0x3c>
   1ca24:	f7ff fd90 	bl	1c548 <app_error_handler_bare>
   1ca28:	bd10      	pop	{r4, pc}

0001ca2a <simple_ble_add_characteristic>:
   1ca2a:	b5f0      	push	{r4, r5, r6, r7, lr}
   1ca2c:	0007      	movs	r7, r0
   1ca2e:	b095      	sub	sp, #84	; 0x54
   1ca30:	9303      	str	r3, [sp, #12]
   1ca32:	ab1a      	add	r3, sp, #104	; 0x68
   1ca34:	881b      	ldrh	r3, [r3, #0]
   1ca36:	ae0d      	add	r6, sp, #52	; 0x34
   1ca38:	9101      	str	r1, [sp, #4]
   1ca3a:	0014      	movs	r4, r2
   1ca3c:	2100      	movs	r1, #0
   1ca3e:	221c      	movs	r2, #28
   1ca40:	0030      	movs	r0, r6
   1ca42:	2501      	movs	r5, #1
   1ca44:	9302      	str	r3, [sp, #8]
   1ca46:	f003 f85d 	bl	1fb04 <memset>
   1ca4a:	0039      	movs	r1, r7
   1ca4c:	4029      	ands	r1, r5
   1ca4e:	40a9      	lsls	r1, r5
   1ca50:	9a01      	ldr	r2, [sp, #4]
   1ca52:	b2c9      	uxtb	r1, r1
   1ca54:	402a      	ands	r2, r5
   1ca56:	00d2      	lsls	r2, r2, #3
   1ca58:	4311      	orrs	r1, r2
   1ca5a:	402c      	ands	r4, r5
   1ca5c:	0123      	lsls	r3, r4, #4
   1ca5e:	000c      	movs	r4, r1
   1ca60:	9a1c      	ldr	r2, [sp, #112]	; 0x70
   1ca62:	431c      	orrs	r4, r3
   1ca64:	7034      	strb	r4, [r6, #0]
   1ca66:	7c92      	ldrb	r2, [r2, #18]
   1ca68:	ab07      	add	r3, sp, #28
   1ca6a:	709a      	strb	r2, [r3, #2]
   1ca6c:	9a1d      	ldr	r2, [sp, #116]	; 0x74
   1ca6e:	ac05      	add	r4, sp, #20
   1ca70:	8812      	ldrh	r2, [r2, #0]
   1ca72:	2100      	movs	r1, #0
   1ca74:	801a      	strh	r2, [r3, #0]
   1ca76:	0020      	movs	r0, r4
   1ca78:	2203      	movs	r2, #3
   1ca7a:	f003 f843 	bl	1fb04 <memset>
   1ca7e:	2f00      	cmp	r7, #0
   1ca80:	d002      	beq.n	1ca88 <simple_ble_add_characteristic+0x5e>
   1ca82:	2310      	movs	r3, #16
   1ca84:	431d      	orrs	r5, r3
   1ca86:	7025      	strb	r5, [r4, #0]
   1ca88:	9b01      	ldr	r3, [sp, #4]
   1ca8a:	2b00      	cmp	r3, #0
   1ca8c:	d002      	beq.n	1ca94 <simple_ble_add_characteristic+0x6a>
   1ca8e:	2211      	movs	r2, #17
   1ca90:	ab05      	add	r3, sp, #20
   1ca92:	705a      	strb	r2, [r3, #1]
   1ca94:	2206      	movs	r2, #6
   1ca96:	ac05      	add	r4, sp, #20
   1ca98:	78a3      	ldrb	r3, [r4, #2]
   1ca9a:	2001      	movs	r0, #1
   1ca9c:	4393      	bics	r3, r2
   1ca9e:	001a      	movs	r2, r3
   1caa0:	2304      	movs	r3, #4
   1caa2:	9903      	ldr	r1, [sp, #12]
   1caa4:	4313      	orrs	r3, r2
   1caa6:	ad08      	add	r5, sp, #32
   1caa8:	4001      	ands	r1, r0
   1caaa:	4383      	bics	r3, r0
   1caac:	430b      	orrs	r3, r1
   1caae:	2214      	movs	r2, #20
   1cab0:	2100      	movs	r1, #0
   1cab2:	0028      	movs	r0, r5
   1cab4:	70a3      	strb	r3, [r4, #2]
   1cab6:	f003 f825 	bl	1fb04 <memset>
   1caba:	ab07      	add	r3, sp, #28
   1cabc:	9308      	str	r3, [sp, #32]
   1cabe:	466b      	mov	r3, sp
   1cac0:	891b      	ldrh	r3, [r3, #8]
   1cac2:	9a1c      	ldr	r2, [sp, #112]	; 0x70
   1cac4:	812b      	strh	r3, [r5, #8]
   1cac6:	466b      	mov	r3, sp
   1cac8:	891b      	ldrh	r3, [r3, #8]
   1caca:	606c      	str	r4, [r5, #4]
   1cacc:	81ab      	strh	r3, [r5, #12]
   1cace:	9b1b      	ldr	r3, [sp, #108]	; 0x6c
   1cad0:	0031      	movs	r1, r6
   1cad2:	612b      	str	r3, [r5, #16]
   1cad4:	9b1d      	ldr	r3, [sp, #116]	; 0x74
   1cad6:	8a90      	ldrh	r0, [r2, #20]
   1cad8:	3302      	adds	r3, #2
   1cada:	002a      	movs	r2, r5
   1cadc:	f7ff fd7a 	bl	1c5d4 <sd_ble_gatts_characteristic_add>
   1cae0:	9006      	str	r0, [sp, #24]
   1cae2:	9806      	ldr	r0, [sp, #24]
   1cae4:	2800      	cmp	r0, #0
   1cae6:	d001      	beq.n	1caec <simple_ble_add_characteristic+0xc2>
   1cae8:	f7ff fd2e 	bl	1c548 <app_error_handler_bare>
   1caec:	b015      	add	sp, #84	; 0x54
   1caee:	bdf0      	pop	{r4, r5, r6, r7, pc}

0001caf0 <simple_ble_is_char_event>:
   1caf0:	88c3      	ldrh	r3, [r0, #6]
   1caf2:	8848      	ldrh	r0, [r1, #2]
   1caf4:	1a18      	subs	r0, r3, r0
   1caf6:	4243      	negs	r3, r0
   1caf8:	4158      	adcs	r0, r3
   1cafa:	b2c0      	uxtb	r0, r0
   1cafc:	4770      	bx	lr

0001cafe <full_adv>:
   1cafe:	b5f0      	push	{r4, r5, r6, r7, lr}
   1cb00:	b09d      	sub	sp, #116	; 0x74
   1cb02:	0007      	movs	r7, r0
   1cb04:	000e      	movs	r6, r1
   1cb06:	0015      	movs	r5, r2
   1cb08:	2100      	movs	r1, #0
   1cb0a:	2238      	movs	r2, #56	; 0x38
   1cb0c:	4668      	mov	r0, sp
   1cb0e:	ac0e      	add	r4, sp, #56	; 0x38
   1cb10:	f002 fff8 	bl	1fb04 <memset>
   1cb14:	2238      	movs	r2, #56	; 0x38
   1cb16:	2100      	movs	r1, #0
   1cb18:	0020      	movs	r0, r4
   1cb1a:	f002 fff3 	bl	1fb04 <memset>
   1cb1e:	2306      	movs	r3, #6
   1cb20:	466a      	mov	r2, sp
   1cb22:	70d3      	strb	r3, [r2, #3]
   1cb24:	3b04      	subs	r3, #4
   1cb26:	2f00      	cmp	r7, #0
   1cb28:	d001      	beq.n	1cb2e <full_adv+0x30>
   1cb2a:	7013      	strb	r3, [r2, #0]
   1cb2c:	e000      	b.n	1cb30 <full_adv+0x32>
   1cb2e:	7023      	strb	r3, [r4, #0]
   1cb30:	2e00      	cmp	r6, #0
   1cb32:	d003      	beq.n	1cb3c <full_adv+0x3e>
   1cb34:	2301      	movs	r3, #1
   1cb36:	466a      	mov	r2, sp
   1cb38:	9605      	str	r6, [sp, #20]
   1cb3a:	8213      	strh	r3, [r2, #16]
   1cb3c:	2d00      	cmp	r5, #0
   1cb3e:	d000      	beq.n	1cb42 <full_adv+0x44>
   1cb40:	9509      	str	r5, [sp, #36]	; 0x24
   1cb42:	0021      	movs	r1, r4
   1cb44:	4668      	mov	r0, sp
   1cb46:	f7ff f80d 	bl	1bb64 <ble_advdata_set>
   1cb4a:	2800      	cmp	r0, #0
   1cb4c:	d001      	beq.n	1cb52 <full_adv+0x54>
   1cb4e:	f7ff fcfb 	bl	1c548 <app_error_handler_bare>
   1cb52:	f7ff fe79 	bl	1c848 <advertising_start>
   1cb56:	b01d      	add	sp, #116	; 0x74
   1cb58:	bdf0      	pop	{r4, r5, r6, r7, pc}

0001cb5a <simple_adv_only_name>:
   1cb5a:	2200      	movs	r2, #0
   1cb5c:	b510      	push	{r4, lr}
   1cb5e:	0011      	movs	r1, r2
   1cb60:	2001      	movs	r0, #1
   1cb62:	f7ff ffcc 	bl	1cafe <full_adv>
   1cb66:	bd10      	pop	{r4, pc}

0001cb68 <transfer_byte>:
   1cb68:	23a3      	movs	r3, #163	; 0xa3
   1cb6a:	b573      	push	{r0, r1, r4, r5, r6, lr}
   1cb6c:	00db      	lsls	r3, r3, #3
   1cb6e:	58c3      	ldr	r3, [r0, r3]
   1cb70:	0002      	movs	r2, r0
   1cb72:	4668      	mov	r0, sp
   1cb74:	b2db      	uxtb	r3, r3
   1cb76:	71c3      	strb	r3, [r0, #7]
   1cb78:	7f0b      	ldrb	r3, [r1, #28]
   1cb7a:	7d0c      	ldrb	r4, [r1, #20]
   1cb7c:	3007      	adds	r0, #7
   1cb7e:	429c      	cmp	r4, r3
   1cb80:	d902      	bls.n	1cb88 <transfer_byte+0x20>
   1cb82:	7800      	ldrb	r0, [r0, #0]
   1cb84:	690c      	ldr	r4, [r1, #16]
   1cb86:	54e0      	strb	r0, [r4, r3]
   1cb88:	7f0b      	ldrb	r3, [r1, #28]
   1cb8a:	7b0e      	ldrb	r6, [r1, #12]
   1cb8c:	3301      	adds	r3, #1
   1cb8e:	b2db      	uxtb	r3, r3
   1cb90:	1c5c      	adds	r4, r3, #1
   1cb92:	770b      	strb	r3, [r1, #28]
   1cb94:	42b4      	cmp	r4, r6
   1cb96:	d205      	bcs.n	1cba4 <transfer_byte+0x3c>
   1cb98:	688b      	ldr	r3, [r1, #8]
   1cb9a:	2001      	movs	r0, #1
   1cb9c:	5d19      	ldrb	r1, [r3, r4]
   1cb9e:	4b08      	ldr	r3, [pc, #32]	; (1cbc0 <transfer_byte+0x58>)
   1cba0:	50d1      	str	r1, [r2, r3]
   1cba2:	e00c      	b.n	1cbbe <transfer_byte+0x56>
   1cba4:	7d0d      	ldrb	r5, [r1, #20]
   1cba6:	2001      	movs	r0, #1
   1cba8:	42ac      	cmp	r4, r5
   1cbaa:	d203      	bcs.n	1cbb4 <transfer_byte+0x4c>
   1cbac:	7ec9      	ldrb	r1, [r1, #27]
   1cbae:	4b04      	ldr	r3, [pc, #16]	; (1cbc0 <transfer_byte+0x58>)
   1cbb0:	50d1      	str	r1, [r2, r3]
   1cbb2:	e004      	b.n	1cbbe <transfer_byte+0x56>
   1cbb4:	42b3      	cmp	r3, r6
   1cbb6:	d302      	bcc.n	1cbbe <transfer_byte+0x56>
   1cbb8:	42ab      	cmp	r3, r5
   1cbba:	419b      	sbcs	r3, r3
   1cbbc:	4258      	negs	r0, r3
   1cbbe:	bd76      	pop	{r1, r2, r4, r5, r6, pc}
   1cbc0:	051c      	lsls	r4, r3, #20
	...

0001cbc4 <nrf_drv_spi_init>:
   1cbc4:	b5f7      	push	{r0, r1, r2, r4, r5, r6, r7, lr}
   1cbc6:	7943      	ldrb	r3, [r0, #5]
   1cbc8:	0005      	movs	r5, r0
   1cbca:	9301      	str	r3, [sp, #4]
   1cbcc:	9801      	ldr	r0, [sp, #4]
   1cbce:	4b4c      	ldr	r3, [pc, #304]	; (1cd00 <nrf_drv_spi_init+0x13c>)
   1cbd0:	0144      	lsls	r4, r0, #5
   1cbd2:	1918      	adds	r0, r3, r4
   1cbd4:	7e06      	ldrb	r6, [r0, #24]
   1cbd6:	2008      	movs	r0, #8
   1cbd8:	2e00      	cmp	r6, #0
   1cbda:	d000      	beq.n	1cbde <nrf_drv_spi_init+0x1a>
   1cbdc:	e08e      	b.n	1ccfc <nrf_drv_spi_init+0x138>
   1cbde:	2900      	cmp	r1, #0
   1cbe0:	d103      	bne.n	1cbea <nrf_drv_spi_init+0x26>
   1cbe2:	9901      	ldr	r1, [sp, #4]
   1cbe4:	4847      	ldr	r0, [pc, #284]	; (1cd04 <nrf_drv_spi_init+0x140>)
   1cbe6:	0109      	lsls	r1, r1, #4
   1cbe8:	1841      	adds	r1, r0, r1
   1cbea:	511a      	str	r2, [r3, r4]
   1cbec:	24a0      	movs	r4, #160	; 0xa0
   1cbee:	2301      	movs	r3, #1
   1cbf0:	7b0f      	ldrb	r7, [r1, #12]
   1cbf2:	780e      	ldrb	r6, [r1, #0]
   1cbf4:	05e4      	lsls	r4, r4, #23
   1cbf6:	4844      	ldr	r0, [pc, #272]	; (1cd08 <nrf_drv_spi_init+0x144>)
   1cbf8:	429f      	cmp	r7, r3
   1cbfa:	d802      	bhi.n	1cc02 <nrf_drv_spi_init+0x3e>
   1cbfc:	40b3      	lsls	r3, r6
   1cbfe:	5023      	str	r3, [r4, r0]
   1cc00:	e003      	b.n	1cc0a <nrf_drv_spi_init+0x46>
   1cc02:	40b3      	lsls	r3, r6
   1cc04:	26a1      	movs	r6, #161	; 0xa1
   1cc06:	00f6      	lsls	r6, r6, #3
   1cc08:	51a3      	str	r3, [r4, r6]
   1cc0a:	2301      	movs	r3, #1
   1cc0c:	26a0      	movs	r6, #160	; 0xa0
   1cc0e:	780f      	ldrb	r7, [r1, #0]
   1cc10:	05f6      	lsls	r6, r6, #23
   1cc12:	37c1      	adds	r7, #193	; 0xc1
   1cc14:	37ff      	adds	r7, #255	; 0xff
   1cc16:	00bf      	lsls	r7, r7, #2
   1cc18:	51e3      	str	r3, [r4, r7]
   1cc1a:	784c      	ldrb	r4, [r1, #1]
   1cc1c:	2cff      	cmp	r4, #255	; 0xff
   1cc1e:	d008      	beq.n	1cc32 <nrf_drv_spi_init+0x6e>
   1cc20:	40a3      	lsls	r3, r4
   1cc22:	5033      	str	r3, [r6, r0]
   1cc24:	0023      	movs	r3, r4
   1cc26:	2703      	movs	r7, #3
   1cc28:	33c1      	adds	r3, #193	; 0xc1
   1cc2a:	33ff      	adds	r3, #255	; 0xff
   1cc2c:	009b      	lsls	r3, r3, #2
   1cc2e:	519f      	str	r7, [r3, r6]
   1cc30:	e001      	b.n	1cc36 <nrf_drv_spi_init+0x72>
   1cc32:	2401      	movs	r4, #1
   1cc34:	4264      	negs	r4, r4
   1cc36:	788b      	ldrb	r3, [r1, #2]
   1cc38:	2bff      	cmp	r3, #255	; 0xff
   1cc3a:	d008      	beq.n	1cc4e <nrf_drv_spi_init+0x8a>
   1cc3c:	26a0      	movs	r6, #160	; 0xa0
   1cc3e:	2700      	movs	r7, #0
   1cc40:	469c      	mov	ip, r3
   1cc42:	33c1      	adds	r3, #193	; 0xc1
   1cc44:	33ff      	adds	r3, #255	; 0xff
   1cc46:	009b      	lsls	r3, r3, #2
   1cc48:	05f6      	lsls	r6, r6, #23
   1cc4a:	519f      	str	r7, [r3, r6]
   1cc4c:	e002      	b.n	1cc54 <nrf_drv_spi_init+0x90>
   1cc4e:	2301      	movs	r3, #1
   1cc50:	425b      	negs	r3, r3
   1cc52:	469c      	mov	ip, r3
   1cc54:	78ce      	ldrb	r6, [r1, #3]
   1cc56:	2eff      	cmp	r6, #255	; 0xff
   1cc58:	d00c      	beq.n	1cc74 <nrf_drv_spi_init+0xb0>
   1cc5a:	2301      	movs	r3, #1
   1cc5c:	27a1      	movs	r7, #161	; 0xa1
   1cc5e:	40b3      	lsls	r3, r6
   1cc60:	26a0      	movs	r6, #160	; 0xa0
   1cc62:	00ff      	lsls	r7, r7, #3
   1cc64:	05f6      	lsls	r6, r6, #23
   1cc66:	51f3      	str	r3, [r6, r7]
   1cc68:	2703      	movs	r7, #3
   1cc6a:	78cb      	ldrb	r3, [r1, #3]
   1cc6c:	33c1      	adds	r3, #193	; 0xc1
   1cc6e:	33ff      	adds	r3, #255	; 0xff
   1cc70:	009b      	lsls	r3, r3, #2
   1cc72:	519f      	str	r7, [r3, r6]
   1cc74:	796b      	ldrb	r3, [r5, #5]
   1cc76:	4e22      	ldr	r6, [pc, #136]	; (1cd00 <nrf_drv_spi_init+0x13c>)
   1cc78:	78cf      	ldrb	r7, [r1, #3]
   1cc7a:	015b      	lsls	r3, r3, #5
   1cc7c:	18f3      	adds	r3, r6, r3
   1cc7e:	769f      	strb	r7, [r3, #26]
   1cc80:	780f      	ldrb	r7, [r1, #0]
   1cc82:	682b      	ldr	r3, [r5, #0]
   1cc84:	003e      	movs	r6, r7
   1cc86:	27a1      	movs	r7, #161	; 0xa1
   1cc88:	00ff      	lsls	r7, r7, #3
   1cc8a:	51de      	str	r6, [r3, r7]
   1cc8c:	501c      	str	r4, [r3, r0]
   1cc8e:	20a2      	movs	r0, #162	; 0xa2
   1cc90:	4664      	mov	r4, ip
   1cc92:	00c0      	lsls	r0, r0, #3
   1cc94:	501c      	str	r4, [r3, r0]
   1cc96:	688c      	ldr	r4, [r1, #8]
   1cc98:	481c      	ldr	r0, [pc, #112]	; (1cd0c <nrf_drv_spi_init+0x148>)
   1cc9a:	501c      	str	r4, [r3, r0]
   1cc9c:	7b48      	ldrb	r0, [r1, #13]
   1cc9e:	7b0f      	ldrb	r7, [r1, #12]
   1cca0:	1e44      	subs	r4, r0, #1
   1cca2:	41a0      	sbcs	r0, r4
   1cca4:	4c16      	ldr	r4, [pc, #88]	; (1cd00 <nrf_drv_spi_init+0x13c>)
   1cca6:	2f02      	cmp	r7, #2
   1cca8:	d005      	beq.n	1ccb6 <nrf_drv_spi_init+0xf2>
   1ccaa:	2f03      	cmp	r7, #3
   1ccac:	d005      	beq.n	1ccba <nrf_drv_spi_init+0xf6>
   1ccae:	2602      	movs	r6, #2
   1ccb0:	2f01      	cmp	r7, #1
   1ccb2:	d104      	bne.n	1ccbe <nrf_drv_spi_init+0xfa>
   1ccb4:	e002      	b.n	1ccbc <nrf_drv_spi_init+0xf8>
   1ccb6:	2604      	movs	r6, #4
   1ccb8:	e000      	b.n	1ccbc <nrf_drv_spi_init+0xf8>
   1ccba:	2606      	movs	r6, #6
   1ccbc:	4330      	orrs	r0, r6
   1ccbe:	4e14      	ldr	r6, [pc, #80]	; (1cd10 <nrf_drv_spi_init+0x14c>)
   1ccc0:	5198      	str	r0, [r3, r6]
   1ccc2:	7968      	ldrb	r0, [r5, #5]
   1ccc4:	794e      	ldrb	r6, [r1, #5]
   1ccc6:	0140      	lsls	r0, r0, #5
   1ccc8:	1820      	adds	r0, r4, r0
   1ccca:	76c6      	strb	r6, [r0, #27]
   1cccc:	2a00      	cmp	r2, #0
   1ccce:	d003      	beq.n	1ccd8 <nrf_drv_spi_init+0x114>
   1ccd0:	20c1      	movs	r0, #193	; 0xc1
   1ccd2:	2604      	movs	r6, #4
   1ccd4:	0080      	lsls	r0, r0, #2
   1ccd6:	501e      	str	r6, [r3, r0]
   1ccd8:	20a0      	movs	r0, #160	; 0xa0
   1ccda:	2601      	movs	r6, #1
   1ccdc:	00c0      	lsls	r0, r0, #3
   1ccde:	501e      	str	r6, [r3, r0]
   1cce0:	2a00      	cmp	r2, #0
   1cce2:	d004      	beq.n	1ccee <nrf_drv_spi_init+0x12a>
   1cce4:	2004      	movs	r0, #4
   1cce6:	7909      	ldrb	r1, [r1, #4]
   1cce8:	5628      	ldrsb	r0, [r5, r0]
   1ccea:	f000 f8c9 	bl	1ce80 <nrf_drv_common_irq_enable>
   1ccee:	9b01      	ldr	r3, [sp, #4]
   1ccf0:	2000      	movs	r0, #0
   1ccf2:	015b      	lsls	r3, r3, #5
   1ccf4:	18e4      	adds	r4, r4, r3
   1ccf6:	2301      	movs	r3, #1
   1ccf8:	7660      	strb	r0, [r4, #25]
   1ccfa:	7623      	strb	r3, [r4, #24]
   1ccfc:	bdfe      	pop	{r1, r2, r3, r4, r5, r6, r7, pc}
   1ccfe:	46c0      	nop			; (mov r8, r8)
   1cd00:	6ba0      	ldr	r0, [r4, #56]	; 0x38
   1cd02:	2000      	movs	r0, #0
   1cd04:	fd78 0001 	ldc2l	0, cr0, [r8, #-4]!
   1cd08:	050c      	lsls	r4, r1, #20
   1cd0a:	0000      	movs	r0, r0
   1cd0c:	0524      	lsls	r4, r4, #20
   1cd0e:	0000      	movs	r0, r0
   1cd10:	0554      	lsls	r4, r2, #21
	...

0001cd14 <nrf_drv_spi_xfer>:
   1cd14:	b5f7      	push	{r0, r1, r2, r4, r5, r6, r7, lr}
   1cd16:	9001      	str	r0, [sp, #4]
   1cd18:	7943      	ldrb	r3, [r0, #5]
   1cd1a:	9300      	str	r3, [sp, #0]
   1cd1c:	9c00      	ldr	r4, [sp, #0]
   1cd1e:	4b3c      	ldr	r3, [pc, #240]	; (1ce10 <nrf_drv_spi_xfer+0xfc>)
   1cd20:	0165      	lsls	r5, r4, #5
   1cd22:	195e      	adds	r6, r3, r5
   1cd24:	7e77      	ldrb	r7, [r6, #25]
   1cd26:	2411      	movs	r4, #17
   1cd28:	2f00      	cmp	r7, #0
   1cd2a:	d16e      	bne.n	1ce0a <nrf_drv_spi_xfer+0xf6>
   1cd2c:	58ec      	ldr	r4, [r5, r3]
   1cd2e:	46a4      	mov	ip, r4
   1cd30:	2c00      	cmp	r4, #0
   1cd32:	d004      	beq.n	1cd3e <nrf_drv_spi_xfer+0x2a>
   1cd34:	2414      	movs	r4, #20
   1cd36:	4222      	tst	r2, r4
   1cd38:	d101      	bne.n	1cd3e <nrf_drv_spi_xfer+0x2a>
   1cd3a:	3c13      	subs	r4, #19
   1cd3c:	7674      	strb	r4, [r6, #25]
   1cd3e:	195b      	adds	r3, r3, r5
   1cd40:	001c      	movs	r4, r3
   1cd42:	000e      	movs	r6, r1
   1cd44:	3408      	adds	r4, #8
   1cd46:	cea1      	ldmia	r6!, {r0, r5, r7}
   1cd48:	c4a1      	stmia	r4!, {r0, r5, r7}
   1cd4a:	0025      	movs	r5, r4
   1cd4c:	6834      	ldr	r4, [r6, #0]
   1cd4e:	2702      	movs	r7, #2
   1cd50:	602c      	str	r4, [r5, #0]
   1cd52:	2501      	movs	r5, #1
   1cd54:	7f5c      	ldrb	r4, [r3, #29]
   1cd56:	43ac      	bics	r4, r5
   1cd58:	43bc      	bics	r4, r7
   1cd5a:	775c      	strb	r4, [r3, #29]
   1cd5c:	7e9b      	ldrb	r3, [r3, #26]
   1cd5e:	2bff      	cmp	r3, #255	; 0xff
   1cd60:	d004      	beq.n	1cd6c <nrf_drv_spi_xfer+0x58>
   1cd62:	24a0      	movs	r4, #160	; 0xa0
   1cd64:	409d      	lsls	r5, r3
   1cd66:	4b2b      	ldr	r3, [pc, #172]	; (1ce14 <nrf_drv_spi_xfer+0x100>)
   1cd68:	05e4      	lsls	r4, r4, #23
   1cd6a:	50e5      	str	r5, [r4, r3]
   1cd6c:	9b00      	ldr	r3, [sp, #0]
   1cd6e:	4e28      	ldr	r6, [pc, #160]	; (1ce10 <nrf_drv_spi_xfer+0xfc>)
   1cd70:	015b      	lsls	r3, r3, #5
   1cd72:	2a00      	cmp	r2, #0
   1cd74:	d004      	beq.n	1cd80 <nrf_drv_spi_xfer+0x6c>
   1cd76:	2200      	movs	r2, #0
   1cd78:	18f3      	adds	r3, r6, r3
   1cd7a:	765a      	strb	r2, [r3, #25]
   1cd7c:	2406      	movs	r4, #6
   1cd7e:	e044      	b.n	1ce0a <nrf_drv_spi_xfer+0xf6>
   1cd80:	9801      	ldr	r0, [sp, #4]
   1cd82:	2504      	movs	r5, #4
   1cd84:	6804      	ldr	r4, [r0, #0]
   1cd86:	20c2      	movs	r0, #194	; 0xc2
   1cd88:	0027      	movs	r7, r4
   1cd8a:	18f3      	adds	r3, r6, r3
   1cd8c:	0080      	lsls	r0, r0, #2
   1cd8e:	37fc      	adds	r7, #252	; 0xfc
   1cd90:	5025      	str	r5, [r4, r0]
   1cd92:	771a      	strb	r2, [r3, #28]
   1cd94:	60fa      	str	r2, [r7, #12]
   1cd96:	790a      	ldrb	r2, [r1, #4]
   1cd98:	2a00      	cmp	r2, #0
   1cd9a:	d002      	beq.n	1cda2 <nrf_drv_spi_xfer+0x8e>
   1cd9c:	680b      	ldr	r3, [r1, #0]
   1cd9e:	781a      	ldrb	r2, [r3, #0]
   1cda0:	e000      	b.n	1cda4 <nrf_drv_spi_xfer+0x90>
   1cda2:	7eda      	ldrb	r2, [r3, #27]
   1cda4:	4b1c      	ldr	r3, [pc, #112]	; (1ce18 <nrf_drv_spi_xfer+0x104>)
   1cda6:	50e2      	str	r2, [r4, r3]
   1cda8:	790a      	ldrb	r2, [r1, #4]
   1cdaa:	2a01      	cmp	r2, #1
   1cdac:	d902      	bls.n	1cdb4 <nrf_drv_spi_xfer+0xa0>
   1cdae:	680a      	ldr	r2, [r1, #0]
   1cdb0:	7852      	ldrb	r2, [r2, #1]
   1cdb2:	e006      	b.n	1cdc2 <nrf_drv_spi_xfer+0xae>
   1cdb4:	7b0a      	ldrb	r2, [r1, #12]
   1cdb6:	2a01      	cmp	r2, #1
   1cdb8:	d904      	bls.n	1cdc4 <nrf_drv_spi_xfer+0xb0>
   1cdba:	9a00      	ldr	r2, [sp, #0]
   1cdbc:	0152      	lsls	r2, r2, #5
   1cdbe:	18b2      	adds	r2, r6, r2
   1cdc0:	7ed2      	ldrb	r2, [r2, #27]
   1cdc2:	50e2      	str	r2, [r4, r3]
   1cdc4:	4663      	mov	r3, ip
   1cdc6:	2b00      	cmp	r3, #0
   1cdc8:	d010      	beq.n	1cdec <nrf_drv_spi_xfer+0xd8>
   1cdca:	23c1      	movs	r3, #193	; 0xc1
   1cdcc:	2204      	movs	r2, #4
   1cdce:	009b      	lsls	r3, r3, #2
   1cdd0:	50e2      	str	r2, [r4, r3]
   1cdd2:	2400      	movs	r4, #0
   1cdd4:	e019      	b.n	1ce0a <nrf_drv_spi_xfer+0xf6>
   1cdd6:	2300      	movs	r3, #0
   1cdd8:	60fb      	str	r3, [r7, #12]
   1cdda:	9b00      	ldr	r3, [sp, #0]
   1cddc:	0020      	movs	r0, r4
   1cdde:	015d      	lsls	r5, r3, #5
   1cde0:	1975      	adds	r5, r6, r5
   1cde2:	0029      	movs	r1, r5
   1cde4:	f7ff fec0 	bl	1cb68 <transfer_byte>
   1cde8:	2800      	cmp	r0, #0
   1cdea:	d003      	beq.n	1cdf4 <nrf_drv_spi_xfer+0xe0>
   1cdec:	68fb      	ldr	r3, [r7, #12]
   1cdee:	2b00      	cmp	r3, #0
   1cdf0:	d0fc      	beq.n	1cdec <nrf_drv_spi_xfer+0xd8>
   1cdf2:	e7f0      	b.n	1cdd6 <nrf_drv_spi_xfer+0xc2>
   1cdf4:	7eaa      	ldrb	r2, [r5, #26]
   1cdf6:	0004      	movs	r4, r0
   1cdf8:	2aff      	cmp	r2, #255	; 0xff
   1cdfa:	d006      	beq.n	1ce0a <nrf_drv_spi_xfer+0xf6>
   1cdfc:	2301      	movs	r3, #1
   1cdfe:	21a0      	movs	r1, #160	; 0xa0
   1ce00:	4093      	lsls	r3, r2
   1ce02:	22a1      	movs	r2, #161	; 0xa1
   1ce04:	05c9      	lsls	r1, r1, #23
   1ce06:	00d2      	lsls	r2, r2, #3
   1ce08:	508b      	str	r3, [r1, r2]
   1ce0a:	0020      	movs	r0, r4
   1ce0c:	bdfe      	pop	{r1, r2, r3, r4, r5, r6, r7, pc}
   1ce0e:	46c0      	nop			; (mov r8, r8)
   1ce10:	6ba0      	ldr	r0, [r4, #56]	; 0x38
   1ce12:	2000      	movs	r0, #0
   1ce14:	050c      	lsls	r4, r1, #20
   1ce16:	0000      	movs	r0, r0
   1ce18:	051c      	lsls	r4, r3, #20
	...

0001ce1c <nrf_drv_spi_transfer>:
   1ce1c:	b51f      	push	{r0, r1, r2, r3, r4, lr}
   1ce1e:	9302      	str	r3, [sp, #8]
   1ce20:	466b      	mov	r3, sp
   1ce22:	ac06      	add	r4, sp, #24
   1ce24:	7824      	ldrb	r4, [r4, #0]
   1ce26:	9100      	str	r1, [sp, #0]
   1ce28:	711a      	strb	r2, [r3, #4]
   1ce2a:	4669      	mov	r1, sp
   1ce2c:	2200      	movs	r2, #0
   1ce2e:	731c      	strb	r4, [r3, #12]
   1ce30:	f7ff ff70 	bl	1cd14 <nrf_drv_spi_xfer>
   1ce34:	b004      	add	sp, #16
   1ce36:	bd10      	pop	{r4, pc}

0001ce38 <SPI0_TWI0_IRQHandler>:
   1ce38:	2200      	movs	r2, #0
   1ce3a:	b510      	push	{r4, lr}
   1ce3c:	4b0d      	ldr	r3, [pc, #52]	; (1ce74 <SPI0_TWI0_IRQHandler+0x3c>)
   1ce3e:	4c0e      	ldr	r4, [pc, #56]	; (1ce78 <SPI0_TWI0_IRQHandler+0x40>)
   1ce40:	60da      	str	r2, [r3, #12]
   1ce42:	0021      	movs	r1, r4
   1ce44:	480d      	ldr	r0, [pc, #52]	; (1ce7c <SPI0_TWI0_IRQHandler+0x44>)
   1ce46:	f7ff fe8f 	bl	1cb68 <transfer_byte>
   1ce4a:	0021      	movs	r1, r4
   1ce4c:	2800      	cmp	r0, #0
   1ce4e:	d10f      	bne.n	1ce70 <SPI0_TWI0_IRQHandler+0x38>
   1ce50:	7ea2      	ldrb	r2, [r4, #26]
   1ce52:	2aff      	cmp	r2, #255	; 0xff
   1ce54:	d006      	beq.n	1ce64 <SPI0_TWI0_IRQHandler+0x2c>
   1ce56:	2301      	movs	r3, #1
   1ce58:	20a0      	movs	r0, #160	; 0xa0
   1ce5a:	4093      	lsls	r3, r2
   1ce5c:	22a1      	movs	r2, #161	; 0xa1
   1ce5e:	05c0      	lsls	r0, r0, #23
   1ce60:	00d2      	lsls	r2, r2, #3
   1ce62:	5083      	str	r3, [r0, r2]
   1ce64:	2300      	movs	r3, #0
   1ce66:	1d08      	adds	r0, r1, #4
   1ce68:	764b      	strb	r3, [r1, #25]
   1ce6a:	710b      	strb	r3, [r1, #4]
   1ce6c:	680b      	ldr	r3, [r1, #0]
   1ce6e:	4798      	blx	r3
   1ce70:	bd10      	pop	{r4, pc}
   1ce72:	46c0      	nop			; (mov r8, r8)
   1ce74:	30fc      	adds	r0, #252	; 0xfc
   1ce76:	4000      	ands	r0, r0
   1ce78:	6ba0      	ldr	r0, [r4, #56]	; 0x38
   1ce7a:	2000      	movs	r0, #0
   1ce7c:	3000      	adds	r0, #0
   1ce7e:	4000      	ands	r0, r0

0001ce80 <nrf_drv_common_irq_enable>:
   1ce80:	b5f0      	push	{r4, r5, r6, r7, lr}
   1ce82:	0189      	lsls	r1, r1, #6
   1ce84:	2800      	cmp	r0, #0
   1ce86:	da14      	bge.n	1ceb2 <nrf_drv_common_irq_enable+0x32>
   1ce88:	230f      	movs	r3, #15
   1ce8a:	b2c4      	uxtb	r4, r0
   1ce8c:	4023      	ands	r3, r4
   1ce8e:	3b08      	subs	r3, #8
   1ce90:	4a16      	ldr	r2, [pc, #88]	; (1ceec <nrf_drv_common_irq_enable+0x6c>)
   1ce92:	089b      	lsrs	r3, r3, #2
   1ce94:	2503      	movs	r5, #3
   1ce96:	009b      	lsls	r3, r3, #2
   1ce98:	189b      	adds	r3, r3, r2
   1ce9a:	22ff      	movs	r2, #255	; 0xff
   1ce9c:	402c      	ands	r4, r5
   1ce9e:	40ac      	lsls	r4, r5
   1cea0:	0015      	movs	r5, r2
   1cea2:	4011      	ands	r1, r2
   1cea4:	40a5      	lsls	r5, r4
   1cea6:	40a1      	lsls	r1, r4
   1cea8:	69de      	ldr	r6, [r3, #28]
   1ceaa:	43ae      	bics	r6, r5
   1ceac:	4331      	orrs	r1, r6
   1ceae:	61d9      	str	r1, [r3, #28]
   1ceb0:	e011      	b.n	1ced6 <nrf_drv_common_irq_enable+0x56>
   1ceb2:	4b0f      	ldr	r3, [pc, #60]	; (1cef0 <nrf_drv_common_irq_enable+0x70>)
   1ceb4:	0882      	lsrs	r2, r0, #2
   1ceb6:	0092      	lsls	r2, r2, #2
   1ceb8:	18d2      	adds	r2, r2, r3
   1ceba:	23ff      	movs	r3, #255	; 0xff
   1cebc:	2403      	movs	r4, #3
   1cebe:	001f      	movs	r7, r3
   1cec0:	25c0      	movs	r5, #192	; 0xc0
   1cec2:	4004      	ands	r4, r0
   1cec4:	00e4      	lsls	r4, r4, #3
   1cec6:	40a7      	lsls	r7, r4
   1cec8:	400b      	ands	r3, r1
   1ceca:	40a3      	lsls	r3, r4
   1cecc:	00ad      	lsls	r5, r5, #2
   1cece:	5956      	ldr	r6, [r2, r5]
   1ced0:	43be      	bics	r6, r7
   1ced2:	4333      	orrs	r3, r6
   1ced4:	5153      	str	r3, [r2, r5]
   1ced6:	231f      	movs	r3, #31
   1ced8:	21c0      	movs	r1, #192	; 0xc0
   1ceda:	4018      	ands	r0, r3
   1cedc:	3b1e      	subs	r3, #30
   1cede:	4083      	lsls	r3, r0
   1cee0:	4a03      	ldr	r2, [pc, #12]	; (1cef0 <nrf_drv_common_irq_enable+0x70>)
   1cee2:	0049      	lsls	r1, r1, #1
   1cee4:	5053      	str	r3, [r2, r1]
   1cee6:	6013      	str	r3, [r2, #0]
   1cee8:	bdf0      	pop	{r4, r5, r6, r7, pc}
   1ceea:	46c0      	nop			; (mov r8, r8)
   1ceec:	ed00 e000 	stc	0, cr14, [r0, #-0]
   1cef0:	e100      	b.n	1d0f4 <eddystone_adv+0x5c>
   1cef2:	e000      	b.n	1cef6 <nrf_gpio_cfg_sense_set+0x2>

0001cef4 <nrf_gpio_cfg_sense_set>:
   1cef4:	23a0      	movs	r3, #160	; 0xa0
   1cef6:	0080      	lsls	r0, r0, #2
   1cef8:	05db      	lsls	r3, r3, #23
   1cefa:	18c0      	adds	r0, r0, r3
   1cefc:	23e0      	movs	r3, #224	; 0xe0
   1cefe:	00db      	lsls	r3, r3, #3
   1cf00:	b510      	push	{r4, lr}
   1cf02:	4a04      	ldr	r2, [pc, #16]	; (1cf14 <nrf_gpio_cfg_sense_set+0x20>)
   1cf04:	58c4      	ldr	r4, [r0, r3]
   1cf06:	0409      	lsls	r1, r1, #16
   1cf08:	4022      	ands	r2, r4
   1cf0a:	50c2      	str	r2, [r0, r3]
   1cf0c:	58c2      	ldr	r2, [r0, r3]
   1cf0e:	4311      	orrs	r1, r2
   1cf10:	50c1      	str	r1, [r0, r3]
   1cf12:	bd10      	pop	{r4, pc}
   1cf14:	ffff fffc 			; <UNDEFINED> instruction: 0xfffffffc

0001cf18 <GPIOTE_IRQHandler>:
   1cf18:	b5f7      	push	{r0, r1, r2, r4, r5, r6, r7, lr}
   1cf1a:	2400      	movs	r4, #0
   1cf1c:	25c1      	movs	r5, #193	; 0xc1
   1cf1e:	2201      	movs	r2, #1
   1cf20:	0026      	movs	r6, r4
   1cf22:	4b4a      	ldr	r3, [pc, #296]	; (1d04c <GPIOTE_IRQHandler+0x134>)
   1cf24:	484a      	ldr	r0, [pc, #296]	; (1d050 <GPIOTE_IRQHandler+0x138>)
   1cf26:	494b      	ldr	r1, [pc, #300]	; (1d054 <GPIOTE_IRQHandler+0x13c>)
   1cf28:	00ad      	lsls	r5, r5, #2
   1cf2a:	681f      	ldr	r7, [r3, #0]
   1cf2c:	2f01      	cmp	r7, #1
   1cf2e:	d104      	bne.n	1cf3a <GPIOTE_IRQHandler+0x22>
   1cf30:	5947      	ldr	r7, [r0, r5]
   1cf32:	423a      	tst	r2, r7
   1cf34:	d001      	beq.n	1cf3a <GPIOTE_IRQHandler+0x22>
   1cf36:	601e      	str	r6, [r3, #0]
   1cf38:	4314      	orrs	r4, r2
   1cf3a:	3304      	adds	r3, #4
   1cf3c:	0052      	lsls	r2, r2, #1
   1cf3e:	428b      	cmp	r3, r1
   1cf40:	d1f3      	bne.n	1cf2a <GPIOTE_IRQHandler+0x12>
   1cf42:	2200      	movs	r2, #0
   1cf44:	4b44      	ldr	r3, [pc, #272]	; (1d058 <GPIOTE_IRQHandler+0x140>)
   1cf46:	9200      	str	r2, [sp, #0]
   1cf48:	681a      	ldr	r2, [r3, #0]
   1cf4a:	2a01      	cmp	r2, #1
   1cf4c:	d10a      	bne.n	1cf64 <GPIOTE_IRQHandler+0x4c>
   1cf4e:	2200      	movs	r2, #0
   1cf50:	601a      	str	r2, [r3, #0]
   1cf52:	2380      	movs	r3, #128	; 0x80
   1cf54:	061b      	lsls	r3, r3, #24
   1cf56:	431c      	orrs	r4, r3
   1cf58:	22a0      	movs	r2, #160	; 0xa0
   1cf5a:	23a2      	movs	r3, #162	; 0xa2
   1cf5c:	05d2      	lsls	r2, r2, #23
   1cf5e:	00db      	lsls	r3, r3, #3
   1cf60:	58d3      	ldr	r3, [r2, r3]
   1cf62:	9300      	str	r3, [sp, #0]
   1cf64:	0723      	lsls	r3, r4, #28
   1cf66:	d105      	bne.n	1cf74 <GPIOTE_IRQHandler+0x5c>
   1cf68:	2c00      	cmp	r4, #0
   1cf6a:	da6d      	bge.n	1d048 <GPIOTE_IRQHandler+0x130>
   1cf6c:	2301      	movs	r3, #1
   1cf6e:	2700      	movs	r7, #0
   1cf70:	425b      	negs	r3, r3
   1cf72:	e04c      	b.n	1d00e <GPIOTE_IRQHandler+0xf6>
   1cf74:	27a2      	movs	r7, #162	; 0xa2
   1cf76:	2601      	movs	r6, #1
   1cf78:	2500      	movs	r5, #0
   1cf7a:	00ff      	lsls	r7, r7, #3
   1cf7c:	4226      	tst	r6, r4
   1cf7e:	d00c      	beq.n	1cf9a <GPIOTE_IRQHandler+0x82>
   1cf80:	4a33      	ldr	r2, [pc, #204]	; (1d050 <GPIOTE_IRQHandler+0x138>)
   1cf82:	00ab      	lsls	r3, r5, #2
   1cf84:	189a      	adds	r2, r3, r2
   1cf86:	59d0      	ldr	r0, [r2, r7]
   1cf88:	59d1      	ldr	r1, [r2, r7]
   1cf8a:	2203      	movs	r2, #3
   1cf8c:	0c09      	lsrs	r1, r1, #16
   1cf8e:	4011      	ands	r1, r2
   1cf90:	4a32      	ldr	r2, [pc, #200]	; (1d05c <GPIOTE_IRQHandler+0x144>)
   1cf92:	04c0      	lsls	r0, r0, #19
   1cf94:	0ec0      	lsrs	r0, r0, #27
   1cf96:	589b      	ldr	r3, [r3, r2]
   1cf98:	4798      	blx	r3
   1cf9a:	3501      	adds	r5, #1
   1cf9c:	0076      	lsls	r6, r6, #1
   1cf9e:	2d04      	cmp	r5, #4
   1cfa0:	d1ec      	bne.n	1cf7c <GPIOTE_IRQHandler+0x64>
   1cfa2:	e7e1      	b.n	1cf68 <GPIOTE_IRQHandler+0x50>
   1cfa4:	b2e4      	uxtb	r4, r4
   1cfa6:	21c0      	movs	r1, #192	; 0xc0
   1cfa8:	0025      	movs	r5, r4
   1cfaa:	438d      	bics	r5, r1
   1cfac:	40eb      	lsrs	r3, r5
   1cfae:	39bf      	subs	r1, #191	; 0xbf
   1cfb0:	420b      	tst	r3, r1
   1cfb2:	d049      	beq.n	1d048 <GPIOTE_IRQHandler+0x130>
   1cfb4:	1953      	adds	r3, r2, r5
   1cfb6:	7d1b      	ldrb	r3, [r3, #20]
   1cfb8:	09a4      	lsrs	r4, r4, #6
   1cfba:	b25b      	sxtb	r3, r3
   1cfbc:	009b      	lsls	r3, r3, #2
   1cfbe:	589e      	ldr	r6, [r3, r2]
   1cfc0:	2e00      	cmp	r6, #0
   1cfc2:	d02a      	beq.n	1d01a <GPIOTE_IRQHandler+0x102>
   1cfc4:	2201      	movs	r2, #1
   1cfc6:	40aa      	lsls	r2, r5
   1cfc8:	2c03      	cmp	r4, #3
   1cfca:	d100      	bne.n	1cfce <GPIOTE_IRQHandler+0xb6>
   1cfcc:	4317      	orrs	r7, r2
   1cfce:	002b      	movs	r3, r5
   1cfd0:	21a0      	movs	r1, #160	; 0xa0
   1cfd2:	33c1      	adds	r3, #193	; 0xc1
   1cfd4:	33ff      	adds	r3, #255	; 0xff
   1cfd6:	05c9      	lsls	r1, r1, #23
   1cfd8:	009b      	lsls	r3, r3, #2
   1cfda:	585b      	ldr	r3, [r3, r1]
   1cfdc:	9900      	ldr	r1, [sp, #0]
   1cfde:	039b      	lsls	r3, r3, #14
   1cfe0:	0f9b      	lsrs	r3, r3, #30
   1cfe2:	420a      	tst	r2, r1
   1cfe4:	d11c      	bne.n	1d020 <GPIOTE_IRQHandler+0x108>
   1cfe6:	2b03      	cmp	r3, #3
   1cfe8:	d12e      	bne.n	1d048 <GPIOTE_IRQHandler+0x130>
   1cfea:	2c03      	cmp	r4, #3
   1cfec:	d11b      	bne.n	1d026 <GPIOTE_IRQHandler+0x10e>
   1cfee:	2102      	movs	r1, #2
   1cff0:	0028      	movs	r0, r5
   1cff2:	f7ff ff7f 	bl	1cef4 <nrf_gpio_cfg_sense_set>
   1cff6:	2e00      	cmp	r6, #0
   1cff8:	d119      	bne.n	1d02e <GPIOTE_IRQHandler+0x116>
   1cffa:	23a2      	movs	r3, #162	; 0xa2
   1cffc:	22a0      	movs	r2, #160	; 0xa0
   1cffe:	00db      	lsls	r3, r3, #3
   1d000:	05d2      	lsls	r2, r2, #23
   1d002:	58d2      	ldr	r2, [r2, r3]
   1d004:	9b00      	ldr	r3, [sp, #0]
   1d006:	4293      	cmp	r3, r2
   1d008:	d01e      	beq.n	1d048 <GPIOTE_IRQHandler+0x130>
   1d00a:	003b      	movs	r3, r7
   1d00c:	9200      	str	r2, [sp, #0]
   1d00e:	2434      	movs	r4, #52	; 0x34
   1d010:	4a12      	ldr	r2, [pc, #72]	; (1d05c <GPIOTE_IRQHandler+0x144>)
   1d012:	5714      	ldrsb	r4, [r2, r4]
   1d014:	1c61      	adds	r1, r4, #1
   1d016:	d1c5      	bne.n	1cfa4 <GPIOTE_IRQHandler+0x8c>
   1d018:	e016      	b.n	1d048 <GPIOTE_IRQHandler+0x130>
   1d01a:	2c03      	cmp	r4, #3
   1d01c:	d114      	bne.n	1d048 <GPIOTE_IRQHandler+0x130>
   1d01e:	e7d1      	b.n	1cfc4 <GPIOTE_IRQHandler+0xac>
   1d020:	2b02      	cmp	r3, #2
   1d022:	d111      	bne.n	1d048 <GPIOTE_IRQHandler+0x130>
   1d024:	e00c      	b.n	1d040 <GPIOTE_IRQHandler+0x128>
   1d026:	2e00      	cmp	r6, #0
   1d028:	d00e      	beq.n	1d048 <GPIOTE_IRQHandler+0x130>
   1d02a:	2300      	movs	r3, #0
   1d02c:	e000      	b.n	1d030 <GPIOTE_IRQHandler+0x118>
   1d02e:	2301      	movs	r3, #1
   1d030:	9301      	str	r3, [sp, #4]
   1d032:	0021      	movs	r1, r4
   1d034:	0028      	movs	r0, r5
   1d036:	47b0      	blx	r6
   1d038:	9b01      	ldr	r3, [sp, #4]
   1d03a:	2b00      	cmp	r3, #0
   1d03c:	d1dd      	bne.n	1cffa <GPIOTE_IRQHandler+0xe2>
   1d03e:	e003      	b.n	1d048 <GPIOTE_IRQHandler+0x130>
   1d040:	2c03      	cmp	r4, #3
   1d042:	d1f0      	bne.n	1d026 <GPIOTE_IRQHandler+0x10e>
   1d044:	0021      	movs	r1, r4
   1d046:	e7d3      	b.n	1cff0 <GPIOTE_IRQHandler+0xd8>
   1d048:	bdf7      	pop	{r0, r1, r2, r4, r5, r6, r7, pc}
   1d04a:	46c0      	nop			; (mov r8, r8)
   1d04c:	6100      	str	r0, [r0, #16]
   1d04e:	4000      	ands	r0, r0
   1d050:	6000      	str	r0, [r0, #0]
   1d052:	4000      	ands	r0, r0
   1d054:	6110      	str	r0, [r2, #16]
   1d056:	4000      	ands	r0, r0
   1d058:	617c      	str	r4, [r7, #20]
   1d05a:	4000      	ands	r0, r0
   1d05c:	6bc0      	ldr	r0, [r0, #60]	; 0x3c
   1d05e:	2000      	movs	r0, #0

0001d060 <nrf_delay_ms>:
   1d060:	b082      	sub	sp, #8
   1d062:	9001      	str	r0, [sp, #4]
   1d064:	9b01      	ldr	r3, [sp, #4]
   1d066:	2b00      	cmp	r3, #0
   1d068:	d012      	beq.n	1d090 <nrf_delay_ms+0x30>
   1d06a:	9b01      	ldr	r3, [sp, #4]
   1d06c:	4809      	ldr	r0, [pc, #36]	; (1d094 <nrf_delay_ms+0x34>)
   1d06e:	3b01      	subs	r3, #1
   1d070:	9301      	str	r3, [sp, #4]
   1d072:	3801      	subs	r0, #1
   1d074:	46c0      	nop			; (mov r8, r8)
   1d076:	46c0      	nop			; (mov r8, r8)
   1d078:	46c0      	nop			; (mov r8, r8)
   1d07a:	46c0      	nop			; (mov r8, r8)
   1d07c:	46c0      	nop			; (mov r8, r8)
   1d07e:	46c0      	nop			; (mov r8, r8)
   1d080:	46c0      	nop			; (mov r8, r8)
   1d082:	46c0      	nop			; (mov r8, r8)
   1d084:	46c0      	nop			; (mov r8, r8)
   1d086:	46c0      	nop			; (mov r8, r8)
   1d088:	46c0      	nop			; (mov r8, r8)
   1d08a:	46c0      	nop			; (mov r8, r8)
   1d08c:	d1f1      	bne.n	1d072 <nrf_delay_ms+0x12>
   1d08e:	e7e9      	b.n	1d064 <nrf_delay_ms+0x4>
   1d090:	b002      	add	sp, #8
   1d092:	4770      	bx	lr
   1d094:	03e7      	lsls	r7, r4, #15
	...

0001d098 <eddystone_adv>:
   1d098:	2308      	movs	r3, #8
   1d09a:	b5f0      	push	{r4, r5, r6, r7, lr}
   1d09c:	0006      	movs	r6, r0
   1d09e:	b095      	sub	sp, #84	; 0x54
   1d0a0:	af00      	add	r7, sp, #0
   1d0a2:	2204      	movs	r2, #4
   1d0a4:	18f8      	adds	r0, r7, r3
   1d0a6:	6039      	str	r1, [r7, #0]
   1d0a8:	4925      	ldr	r1, [pc, #148]	; (1d140 <eddystone_adv+0xa8>)
   1d0aa:	f002 fd0d 	bl	1fac8 <memcpy>
   1d0ae:	0030      	movs	r0, r6
   1d0b0:	f002 fdf6 	bl	1fca0 <strlen>
   1d0b4:	466a      	mov	r2, sp
   1d0b6:	3003      	adds	r0, #3
   1d0b8:	b2c3      	uxtb	r3, r0
   1d0ba:	607b      	str	r3, [r7, #4]
   1d0bc:	3307      	adds	r3, #7
   1d0be:	08db      	lsrs	r3, r3, #3
   1d0c0:	00db      	lsls	r3, r3, #3
   1d0c2:	1ad3      	subs	r3, r2, r3
   1d0c4:	469d      	mov	sp, r3
   1d0c6:	2310      	movs	r3, #16
   1d0c8:	466d      	mov	r5, sp
   1d0ca:	2400      	movs	r4, #0
   1d0cc:	702b      	strb	r3, [r5, #0]
   1d0ce:	33aa      	adds	r3, #170	; 0xaa
   1d0d0:	706b      	strb	r3, [r5, #1]
   1d0d2:	3bb8      	subs	r3, #184	; 0xb8
   1d0d4:	70ab      	strb	r3, [r5, #2]
   1d0d6:	0030      	movs	r0, r6
   1d0d8:	f002 fde2 	bl	1fca0 <strlen>
   1d0dc:	4284      	cmp	r4, r0
   1d0de:	d205      	bcs.n	1d0ec <eddystone_adv+0x54>
   1d0e0:	5d32      	ldrb	r2, [r6, r4]
   1d0e2:	192b      	adds	r3, r5, r4
   1d0e4:	3401      	adds	r4, #1
   1d0e6:	70da      	strb	r2, [r3, #3]
   1d0e8:	b2e4      	uxtb	r4, r4
   1d0ea:	e7f4      	b.n	1d0d6 <eddystone_adv+0x3e>
   1d0ec:	230c      	movs	r3, #12
   1d0ee:	18fc      	adds	r4, r7, r3
   1d0f0:	4b14      	ldr	r3, [pc, #80]	; (1d144 <eddystone_adv+0xac>)
   1d0f2:	2008      	movs	r0, #8
   1d0f4:	8023      	strh	r3, [r4, #0]
   1d0f6:	88bb      	ldrh	r3, [r7, #4]
   1d0f8:	1838      	adds	r0, r7, r0
   1d0fa:	80a3      	strh	r3, [r4, #4]
   1d0fc:	2310      	movs	r3, #16
   1d0fe:	2238      	movs	r2, #56	; 0x38
   1d100:	2100      	movs	r1, #0
   1d102:	18c0      	adds	r0, r0, r3
   1d104:	60a5      	str	r5, [r4, #8]
   1d106:	f002 fcfd 	bl	1fb04 <memset>
   1d10a:	2108      	movs	r1, #8
   1d10c:	2306      	movs	r3, #6
   1d10e:	223c      	movs	r2, #60	; 0x3c
   1d110:	1879      	adds	r1, r7, r1
   1d112:	188a      	adds	r2, r1, r2
   1d114:	76fb      	strb	r3, [r7, #27]
   1d116:	3b05      	subs	r3, #5
   1d118:	7013      	strb	r3, [r2, #0]
   1d11a:	2208      	movs	r2, #8
   1d11c:	853b      	strh	r3, [r7, #40]	; 0x28
   1d11e:	2310      	movs	r3, #16
   1d120:	18ba      	adds	r2, r7, r2
   1d122:	62f9      	str	r1, [r7, #44]	; 0x2c
   1d124:	18d0      	adds	r0, r2, r3
   1d126:	6839      	ldr	r1, [r7, #0]
   1d128:	643c      	str	r4, [r7, #64]	; 0x40
   1d12a:	f7fe fd1b 	bl	1bb64 <ble_advdata_set>
   1d12e:	2800      	cmp	r0, #0
   1d130:	d001      	beq.n	1d136 <eddystone_adv+0x9e>
   1d132:	f7ff fa09 	bl	1c548 <app_error_handler_bare>
   1d136:	f7ff fb87 	bl	1c848 <advertising_start>
   1d13a:	46bd      	mov	sp, r7
   1d13c:	b015      	add	sp, #84	; 0x54
   1d13e:	bdf0      	pop	{r4, r5, r6, r7, pc}
   1d140:	fd88 0001 	stc2	0, cr0, [r8, #4]
   1d144:	feaa ffff 	mcr2	15, 5, pc, cr10, cr15, {7}	; <UNPREDICTABLE>

0001d148 <wait_for_not_busy>:
   1d148:	b5f7      	push	{r0, r1, r2, r4, r5, r6, r7, lr}
   1d14a:	4c1b      	ldr	r4, [pc, #108]	; (1d1b8 <wait_for_not_busy+0x70>)
   1d14c:	2501      	movs	r5, #1
   1d14e:	6820      	ldr	r0, [r4, #0]
   1d150:	f7ff fa16 	bl	1c580 <led_on>
   1d154:	2300      	movs	r3, #0
   1d156:	4a19      	ldr	r2, [pc, #100]	; (1d1bc <wait_for_not_busy+0x74>)
   1d158:	20a0      	movs	r0, #160	; 0xa0
   1d15a:	6811      	ldr	r1, [r2, #0]
   1d15c:	0022      	movs	r2, r4
   1d15e:	24a2      	movs	r4, #162	; 0xa2
   1d160:	001f      	movs	r7, r3
   1d162:	4e17      	ldr	r6, [pc, #92]	; (1d1c0 <wait_for_not_busy+0x78>)
   1d164:	9301      	str	r3, [sp, #4]
   1d166:	05c0      	lsls	r0, r0, #23
   1d168:	00e4      	lsls	r4, r4, #3
   1d16a:	5903      	ldr	r3, [r0, r4]
   1d16c:	40cb      	lsrs	r3, r1
   1d16e:	402b      	ands	r3, r5
   1d170:	2f00      	cmp	r7, #0
   1d172:	d003      	beq.n	1d17c <wait_for_not_busy+0x34>
   1d174:	2b00      	cmp	r3, #0
   1d176:	d10b      	bne.n	1d190 <wait_for_not_busy+0x48>
   1d178:	2701      	movs	r7, #1
   1d17a:	e002      	b.n	1d182 <wait_for_not_busy+0x3a>
   1d17c:	425f      	negs	r7, r3
   1d17e:	417b      	adcs	r3, r7
   1d180:	b2df      	uxtb	r7, r3
   1d182:	9b01      	ldr	r3, [sp, #4]
   1d184:	42b3      	cmp	r3, r6
   1d186:	d803      	bhi.n	1d190 <wait_for_not_busy+0x48>
   1d188:	9b01      	ldr	r3, [sp, #4]
   1d18a:	3301      	adds	r3, #1
   1d18c:	9301      	str	r3, [sp, #4]
   1d18e:	e7ec      	b.n	1d16a <wait_for_not_busy+0x22>
   1d190:	6810      	ldr	r0, [r2, #0]
   1d192:	f7ff f9ff 	bl	1c594 <led_off>
   1d196:	2005      	movs	r0, #5
   1d198:	3801      	subs	r0, #1
   1d19a:	46c0      	nop			; (mov r8, r8)
   1d19c:	46c0      	nop			; (mov r8, r8)
   1d19e:	46c0      	nop			; (mov r8, r8)
   1d1a0:	46c0      	nop			; (mov r8, r8)
   1d1a2:	46c0      	nop			; (mov r8, r8)
   1d1a4:	46c0      	nop			; (mov r8, r8)
   1d1a6:	46c0      	nop			; (mov r8, r8)
   1d1a8:	46c0      	nop			; (mov r8, r8)
   1d1aa:	46c0      	nop			; (mov r8, r8)
   1d1ac:	46c0      	nop			; (mov r8, r8)
   1d1ae:	46c0      	nop			; (mov r8, r8)
   1d1b0:	46c0      	nop			; (mov r8, r8)
   1d1b2:	d1f1      	bne.n	1d198 <wait_for_not_busy+0x50>
   1d1b4:	bdf7      	pop	{r0, r1, r2, r4, r5, r6, r7, pc}
   1d1b6:	46c0      	nop			; (mov r8, r8)
   1d1b8:	6718      	str	r0, [r3, #112]	; 0x70
   1d1ba:	2000      	movs	r0, #0
   1d1bc:	6704      	str	r4, [r0, #112]	; 0x70
   1d1be:	2000      	movs	r0, #0
   1d1c0:	4240      	negs	r0, r0
   1d1c2:	000f      	movs	r7, r1

0001d1c4 <tcmp441_setPixel>:
   1d1c4:	2332      	movs	r3, #50	; 0x32
   1d1c6:	b530      	push	{r4, r5, lr}
   1d1c8:	4359      	muls	r1, r3
   1d1ca:	17c4      	asrs	r4, r0, #31
   1d1cc:	3b2b      	subs	r3, #43	; 0x2b
   1d1ce:	4023      	ands	r3, r4
   1d1d0:	181b      	adds	r3, r3, r0
   1d1d2:	10db      	asrs	r3, r3, #3
   1d1d4:	18c9      	adds	r1, r1, r3
   1d1d6:	4c0a      	ldr	r4, [pc, #40]	; (1d200 <tcmp441_setPixel+0x3c>)
   1d1d8:	4b0a      	ldr	r3, [pc, #40]	; (1d204 <tcmp441_setPixel+0x40>)
   1d1da:	5665      	ldrsb	r5, [r4, r1]
   1d1dc:	4018      	ands	r0, r3
   1d1de:	d504      	bpl.n	1d1ea <tcmp441_setPixel+0x26>
   1d1e0:	2308      	movs	r3, #8
   1d1e2:	3801      	subs	r0, #1
   1d1e4:	425b      	negs	r3, r3
   1d1e6:	4318      	orrs	r0, r3
   1d1e8:	3001      	adds	r0, #1
   1d1ea:	2307      	movs	r3, #7
   1d1ec:	1a18      	subs	r0, r3, r0
   1d1ee:	3b06      	subs	r3, #6
   1d1f0:	4083      	lsls	r3, r0
   1d1f2:	4252      	negs	r2, r2
   1d1f4:	406a      	eors	r2, r5
   1d1f6:	401a      	ands	r2, r3
   1d1f8:	406a      	eors	r2, r5
   1d1fa:	5462      	strb	r2, [r4, r1]
   1d1fc:	bd30      	pop	{r4, r5, pc}
   1d1fe:	46c0      	nop			; (mov r8, r8)
   1d200:	2c61      	cmp	r4, #97	; 0x61
   1d202:	2000      	movs	r0, #0
   1d204:	0007      	movs	r7, r0
   1d206:	8000      	strh	r0, [r0, #0]

0001d208 <tcmp441_clearScreen>:
   1d208:	b510      	push	{r4, lr}
   1d20a:	4a03      	ldr	r2, [pc, #12]	; (1d218 <tcmp441_clearScreen+0x10>)
   1d20c:	2100      	movs	r1, #0
   1d20e:	4803      	ldr	r0, [pc, #12]	; (1d21c <tcmp441_clearScreen+0x14>)
   1d210:	f002 fc78 	bl	1fb04 <memset>
   1d214:	bd10      	pop	{r4, pc}
   1d216:	46c0      	nop			; (mov r8, r8)
   1d218:	3a98      	subs	r2, #152	; 0x98
   1d21a:	0000      	movs	r0, r0
   1d21c:	2c61      	cmp	r4, #97	; 0x61
   1d21e:	2000      	movs	r0, #0

0001d220 <tcmp441_insertPixelGrid>:
   1d220:	b5f7      	push	{r0, r1, r2, r4, r5, r6, r7, lr}
   1d222:	001e      	movs	r6, r3
   1d224:	9d08      	ldr	r5, [sp, #32]
   1d226:	9000      	str	r0, [sp, #0]
   1d228:	9101      	str	r1, [sp, #4]
   1d22a:	1ad7      	subs	r7, r2, r3
   1d22c:	9b08      	ldr	r3, [sp, #32]
   1d22e:	9a01      	ldr	r2, [sp, #4]
   1d230:	1aeb      	subs	r3, r5, r3
   1d232:	429a      	cmp	r2, r3
   1d234:	dd11      	ble.n	1d25a <tcmp441_insertPixelGrid+0x3a>
   1d236:	0034      	movs	r4, r6
   1d238:	9a00      	ldr	r2, [sp, #0]
   1d23a:	1ba3      	subs	r3, r4, r6
   1d23c:	429a      	cmp	r2, r3
   1d23e:	dd09      	ble.n	1d254 <tcmp441_insertPixelGrid+0x34>
   1d240:	5d3a      	ldrb	r2, [r7, r4]
   1d242:	2a01      	cmp	r2, #1
   1d244:	d000      	beq.n	1d248 <tcmp441_insertPixelGrid+0x28>
   1d246:	2200      	movs	r2, #0
   1d248:	0020      	movs	r0, r4
   1d24a:	0029      	movs	r1, r5
   1d24c:	f7ff ffba 	bl	1d1c4 <tcmp441_setPixel>
   1d250:	3401      	adds	r4, #1
   1d252:	e7f1      	b.n	1d238 <tcmp441_insertPixelGrid+0x18>
   1d254:	3501      	adds	r5, #1
   1d256:	18bf      	adds	r7, r7, r2
   1d258:	e7e8      	b.n	1d22c <tcmp441_insertPixelGrid+0xc>
   1d25a:	bdf7      	pop	{r0, r1, r2, r4, r5, r6, r7, pc}

0001d25c <tcmp441_writeCharacterAtLocation>:
   1d25c:	b5f0      	push	{r4, r5, r6, r7, lr}
   1d25e:	b097      	sub	sp, #92	; 0x5c
   1d260:	9204      	str	r2, [sp, #16]
   1d262:	4a20      	ldr	r2, [pc, #128]	; (1d2e4 <tcmp441_writeCharacterAtLocation+0x88>)
   1d264:	00c0      	lsls	r0, r0, #3
   1d266:	1812      	adds	r2, r2, r0
   1d268:	001e      	movs	r6, r3
   1d26a:	2000      	movs	r0, #0
   1d26c:	2701      	movs	r7, #1
   1d26e:	9103      	str	r1, [sp, #12]
   1d270:	ab06      	add	r3, sp, #24
   1d272:	00c4      	lsls	r4, r0, #3
   1d274:	191c      	adds	r4, r3, r4
   1d276:	2300      	movs	r3, #0
   1d278:	5c15      	ldrb	r5, [r2, r0]
   1d27a:	0039      	movs	r1, r7
   1d27c:	4099      	lsls	r1, r3
   1d27e:	4029      	ands	r1, r5
   1d280:	4119      	asrs	r1, r3
   1d282:	54e1      	strb	r1, [r4, r3]
   1d284:	3301      	adds	r3, #1
   1d286:	2b08      	cmp	r3, #8
   1d288:	d1f7      	bne.n	1d27a <tcmp441_writeCharacterAtLocation+0x1e>
   1d28a:	3001      	adds	r0, #1
   1d28c:	2808      	cmp	r0, #8
   1d28e:	d1ef      	bne.n	1d270 <tcmp441_writeCharacterAtLocation+0x14>
   1d290:	2e01      	cmp	r6, #1
   1d292:	d01d      	beq.n	1d2d0 <tcmp441_writeCharacterAtLocation+0x74>
   1d294:	2500      	movs	r5, #0
   1d296:	00f7      	lsls	r7, r6, #3
   1d298:	42bd      	cmp	r5, r7
   1d29a:	d020      	beq.n	1d2de <tcmp441_writeCharacterAtLocation+0x82>
   1d29c:	0031      	movs	r1, r6
   1d29e:	0028      	movs	r0, r5
   1d2a0:	f002 fac6 	bl	1f830 <__aeabi_idiv>
   1d2a4:	2400      	movs	r4, #0
   1d2a6:	00c0      	lsls	r0, r0, #3
   1d2a8:	ab06      	add	r3, sp, #24
   1d2aa:	181b      	adds	r3, r3, r0
   1d2ac:	9305      	str	r3, [sp, #20]
   1d2ae:	0031      	movs	r1, r6
   1d2b0:	0020      	movs	r0, r4
   1d2b2:	f002 fabd 	bl	1f830 <__aeabi_idiv>
   1d2b6:	9b05      	ldr	r3, [sp, #20]
   1d2b8:	5c1a      	ldrb	r2, [r3, r0]
   1d2ba:	9b04      	ldr	r3, [sp, #16]
   1d2bc:	1959      	adds	r1, r3, r5
   1d2be:	9b03      	ldr	r3, [sp, #12]
   1d2c0:	18e0      	adds	r0, r4, r3
   1d2c2:	3401      	adds	r4, #1
   1d2c4:	f7ff ff7e 	bl	1d1c4 <tcmp441_setPixel>
   1d2c8:	42a7      	cmp	r7, r4
   1d2ca:	dcf0      	bgt.n	1d2ae <tcmp441_writeCharacterAtLocation+0x52>
   1d2cc:	3501      	adds	r5, #1
   1d2ce:	e7e3      	b.n	1d298 <tcmp441_writeCharacterAtLocation+0x3c>
   1d2d0:	9b04      	ldr	r3, [sp, #16]
   1d2d2:	aa06      	add	r2, sp, #24
   1d2d4:	9300      	str	r3, [sp, #0]
   1d2d6:	0001      	movs	r1, r0
   1d2d8:	9b03      	ldr	r3, [sp, #12]
   1d2da:	f7ff ffa1 	bl	1d220 <tcmp441_insertPixelGrid>
   1d2de:	b017      	add	sp, #92	; 0x5c
   1d2e0:	bdf0      	pop	{r4, r5, r6, r7, pc}
   1d2e2:	46c0      	nop			; (mov r8, r8)
   1d2e4:	2861      	cmp	r0, #97	; 0x61
   1d2e6:	2000      	movs	r0, #0

0001d2e8 <tcmp441_writeStringAtLocation>:
   1d2e8:	b5f7      	push	{r0, r1, r2, r4, r5, r6, r7, lr}
   1d2ea:	001f      	movs	r7, r3
   1d2ec:	2500      	movs	r5, #0
   1d2ee:	00de      	lsls	r6, r3, #3
   1d2f0:	9000      	str	r0, [sp, #0]
   1d2f2:	9201      	str	r2, [sp, #4]
   1d2f4:	1874      	adds	r4, r6, r1
   1d2f6:	9800      	ldr	r0, [sp, #0]
   1d2f8:	f002 fcd2 	bl	1fca0 <strlen>
   1d2fc:	42a8      	cmp	r0, r5
   1d2fe:	d90d      	bls.n	1d31c <tcmp441_writeStringAtLocation+0x34>
   1d300:	2390      	movs	r3, #144	; 0x90
   1d302:	33ff      	adds	r3, #255	; 0xff
   1d304:	1ba1      	subs	r1, r4, r6
   1d306:	429c      	cmp	r4, r3
   1d308:	dc05      	bgt.n	1d316 <tcmp441_writeStringAtLocation+0x2e>
   1d30a:	9a00      	ldr	r2, [sp, #0]
   1d30c:	b2fb      	uxtb	r3, r7
   1d30e:	5d50      	ldrb	r0, [r2, r5]
   1d310:	9a01      	ldr	r2, [sp, #4]
   1d312:	f7ff ffa3 	bl	1d25c <tcmp441_writeCharacterAtLocation>
   1d316:	3501      	adds	r5, #1
   1d318:	19a4      	adds	r4, r4, r6
   1d31a:	e7ec      	b.n	1d2f6 <tcmp441_writeStringAtLocation+0xe>
   1d31c:	bdf7      	pop	{r0, r1, r2, r4, r5, r6, r7, pc}
	...

0001d320 <tcmp441_setBlock>:
   1d320:	23c8      	movs	r3, #200	; 0xc8
   1d322:	005b      	lsls	r3, r3, #1
   1d324:	4359      	muls	r1, r3
   1d326:	b510      	push	{r4, lr}
   1d328:	2300      	movs	r3, #0
   1d32a:	24ff      	movs	r4, #255	; 0xff
   1d32c:	1840      	adds	r0, r0, r1
   1d32e:	4907      	ldr	r1, [pc, #28]	; (1d34c <tcmp441_setBlock+0x2c>)
   1d330:	1808      	adds	r0, r1, r0
   1d332:	2a01      	cmp	r2, #1
   1d334:	d101      	bne.n	1d33a <tcmp441_setBlock+0x1a>
   1d336:	54c4      	strb	r4, [r0, r3]
   1d338:	e001      	b.n	1d33e <tcmp441_setBlock+0x1e>
   1d33a:	2100      	movs	r1, #0
   1d33c:	54c1      	strb	r1, [r0, r3]
   1d33e:	21c8      	movs	r1, #200	; 0xc8
   1d340:	3332      	adds	r3, #50	; 0x32
   1d342:	0049      	lsls	r1, r1, #1
   1d344:	428b      	cmp	r3, r1
   1d346:	d1f4      	bne.n	1d332 <tcmp441_setBlock+0x12>
   1d348:	bd10      	pop	{r4, pc}
   1d34a:	46c0      	nop			; (mov r8, r8)
   1d34c:	2c61      	cmp	r4, #97	; 0x61
   1d34e:	2000      	movs	r0, #0

0001d350 <tcmp441_insertBigPixelGrid>:
   1d350:	b5f7      	push	{r0, r1, r2, r4, r5, r6, r7, lr}
   1d352:	0007      	movs	r7, r0
   1d354:	0016      	movs	r6, r2
   1d356:	2500      	movs	r5, #0
   1d358:	9101      	str	r1, [sp, #4]
   1d35a:	9b01      	ldr	r3, [sp, #4]
   1d35c:	429d      	cmp	r5, r3
   1d35e:	da0f      	bge.n	1d380 <tcmp441_insertBigPixelGrid+0x30>
   1d360:	2400      	movs	r4, #0
   1d362:	42bc      	cmp	r4, r7
   1d364:	da09      	bge.n	1d37a <tcmp441_insertBigPixelGrid+0x2a>
   1d366:	5d32      	ldrb	r2, [r6, r4]
   1d368:	2a01      	cmp	r2, #1
   1d36a:	d000      	beq.n	1d36e <tcmp441_insertBigPixelGrid+0x1e>
   1d36c:	2200      	movs	r2, #0
   1d36e:	0020      	movs	r0, r4
   1d370:	0029      	movs	r1, r5
   1d372:	f7ff ffd5 	bl	1d320 <tcmp441_setBlock>
   1d376:	3401      	adds	r4, #1
   1d378:	e7f3      	b.n	1d362 <tcmp441_insertBigPixelGrid+0x12>
   1d37a:	3501      	adds	r5, #1
   1d37c:	19f6      	adds	r6, r6, r7
   1d37e:	e7ec      	b.n	1d35a <tcmp441_insertBigPixelGrid+0xa>
   1d380:	bdf7      	pop	{r0, r1, r2, r4, r5, r6, r7, pc}

0001d382 <tcmp441_writeQRcode>:
   1d382:	2200      	movs	r2, #0
   1d384:	b5f0      	push	{r4, r5, r6, r7, lr}
   1d386:	b087      	sub	sp, #28
   1d388:	af02      	add	r7, sp, #8
   1d38a:	0011      	movs	r1, r2
   1d38c:	f001 fe69 	bl	1f062 <QRcode_encodeString8bit>
   1d390:	7904      	ldrb	r4, [r0, #4]
   1d392:	466a      	mov	r2, sp
   1d394:	0023      	movs	r3, r4
   1d396:	4363      	muls	r3, r4
   1d398:	60fb      	str	r3, [r7, #12]
   1d39a:	3307      	adds	r3, #7
   1d39c:	08db      	lsrs	r3, r3, #3
   1d39e:	00db      	lsls	r3, r3, #3
   1d3a0:	1ad3      	subs	r3, r2, r3
   1d3a2:	469d      	mov	sp, r3
   1d3a4:	0006      	movs	r6, r0
   1d3a6:	2500      	movs	r5, #0
   1d3a8:	ab02      	add	r3, sp, #8
   1d3aa:	60bb      	str	r3, [r7, #8]
   1d3ac:	68fb      	ldr	r3, [r7, #12]
   1d3ae:	429d      	cmp	r5, r3
   1d3b0:	d015      	beq.n	1d3de <tcmp441_writeQRcode+0x5c>
   1d3b2:	0028      	movs	r0, r5
   1d3b4:	0021      	movs	r1, r4
   1d3b6:	f002 fb21 	bl	1f9fc <__aeabi_idivmod>
   1d3ba:	4361      	muls	r1, r4
   1d3bc:	0028      	movs	r0, r5
   1d3be:	6079      	str	r1, [r7, #4]
   1d3c0:	0021      	movs	r1, r4
   1d3c2:	f002 fa35 	bl	1f830 <__aeabi_idiv>
   1d3c6:	68b9      	ldr	r1, [r7, #8]
   1d3c8:	687b      	ldr	r3, [r7, #4]
   1d3ca:	468c      	mov	ip, r1
   1d3cc:	2101      	movs	r1, #1
   1d3ce:	4463      	add	r3, ip
   1d3d0:	001a      	movs	r2, r3
   1d3d2:	68b3      	ldr	r3, [r6, #8]
   1d3d4:	5d5b      	ldrb	r3, [r3, r5]
   1d3d6:	186d      	adds	r5, r5, r1
   1d3d8:	400b      	ands	r3, r1
   1d3da:	5413      	strb	r3, [r2, r0]
   1d3dc:	e7e6      	b.n	1d3ac <tcmp441_writeQRcode+0x2a>
   1d3de:	230a      	movs	r3, #10
   1d3e0:	9300      	str	r3, [sp, #0]
   1d3e2:	68ba      	ldr	r2, [r7, #8]
   1d3e4:	0021      	movs	r1, r4
   1d3e6:	0020      	movs	r0, r4
   1d3e8:	f7ff ffb2 	bl	1d350 <tcmp441_insertBigPixelGrid>
   1d3ec:	46bd      	mov	sp, r7
   1d3ee:	b005      	add	sp, #20
   1d3f0:	bdf0      	pop	{r4, r5, r6, r7, pc}
	...

0001d3f4 <tcmp441_updateDisplay>:
   1d3f4:	b5f0      	push	{r4, r5, r6, r7, lr}
   1d3f6:	2701      	movs	r7, #1
   1d3f8:	0039      	movs	r1, r7
   1d3fa:	4b45      	ldr	r3, [pc, #276]	; (1d510 <tcmp441_updateDisplay+0x11c>)
   1d3fc:	22a0      	movs	r2, #160	; 0xa0
   1d3fe:	681b      	ldr	r3, [r3, #0]
   1d400:	05d2      	lsls	r2, r2, #23
   1d402:	4099      	lsls	r1, r3
   1d404:	4b43      	ldr	r3, [pc, #268]	; (1d514 <tcmp441_updateDisplay+0x120>)
   1d406:	b0c5      	sub	sp, #276	; 0x114
   1d408:	50d1      	str	r1, [r2, r3]
   1d40a:	200a      	movs	r0, #10
   1d40c:	f7ff fe28 	bl	1d060 <nrf_delay_ms>
   1d410:	2280      	movs	r2, #128	; 0x80
   1d412:	2100      	movs	r1, #0
   1d414:	0052      	lsls	r2, r2, #1
   1d416:	4840      	ldr	r0, [pc, #256]	; (1d518 <tcmp441_updateDisplay+0x124>)
   1d418:	f002 fb74 	bl	1fb04 <memset>
   1d41c:	2330      	movs	r3, #48	; 0x30
   1d41e:	2500      	movs	r5, #0
   1d420:	4e3e      	ldr	r6, [pc, #248]	; (1d51c <tcmp441_updateDisplay+0x128>)
   1d422:	ac04      	add	r4, sp, #16
   1d424:	7033      	strb	r3, [r6, #0]
   1d426:	3b10      	subs	r3, #16
   1d428:	7023      	strb	r3, [r4, #0]
   1d42a:	3b10      	subs	r3, #16
   1d42c:	70e3      	strb	r3, [r4, #3]
   1d42e:	3323      	adds	r3, #35	; 0x23
   1d430:	7123      	strb	r3, [r4, #4]
   1d432:	335d      	adds	r3, #93	; 0x5d
   1d434:	71a3      	strb	r3, [r4, #6]
   1d436:	3b64      	subs	r3, #100	; 0x64
   1d438:	7077      	strb	r7, [r6, #1]
   1d43a:	70b7      	strb	r7, [r6, #2]
   1d43c:	7067      	strb	r7, [r4, #1]
   1d43e:	7167      	strb	r7, [r4, #5]
   1d440:	71e7      	strb	r7, [r4, #7]
   1d442:	7223      	strb	r3, [r4, #8]
   1d444:	7267      	strb	r7, [r4, #9]
   1d446:	002b      	movs	r3, r5
   1d448:	2214      	movs	r2, #20
   1d44a:	0021      	movs	r1, r4
   1d44c:	70f5      	strb	r5, [r6, #3]
   1d44e:	7135      	strb	r5, [r6, #4]
   1d450:	7175      	strb	r5, [r6, #5]
   1d452:	70a5      	strb	r5, [r4, #2]
   1d454:	72a5      	strb	r5, [r4, #10]
   1d456:	72e5      	strb	r5, [r4, #11]
   1d458:	7325      	strb	r5, [r4, #12]
   1d45a:	7365      	strb	r5, [r4, #13]
   1d45c:	73a5      	strb	r5, [r4, #14]
   1d45e:	73e5      	strb	r5, [r4, #15]
   1d460:	7425      	strb	r5, [r4, #16]
   1d462:	7465      	strb	r5, [r4, #17]
   1d464:	74a5      	strb	r5, [r4, #18]
   1d466:	74e5      	strb	r5, [r4, #19]
   1d468:	19ff      	adds	r7, r7, r7
   1d46a:	9500      	str	r5, [sp, #0]
   1d46c:	482c      	ldr	r0, [pc, #176]	; (1d520 <tcmp441_updateDisplay+0x12c>)
   1d46e:	f7ff fcd5 	bl	1ce1c <nrf_drv_spi_transfer>
   1d472:	f7ff fe69 	bl	1d148 <wait_for_not_busy>
   1d476:	4b28      	ldr	r3, [pc, #160]	; (1d518 <tcmp441_updateDisplay+0x124>)
   1d478:	002a      	movs	r2, r5
   1d47a:	0029      	movs	r1, r5
   1d47c:	9700      	str	r7, [sp, #0]
   1d47e:	4828      	ldr	r0, [pc, #160]	; (1d520 <tcmp441_updateDisplay+0x12c>)
   1d480:	f7ff fccc 	bl	1ce1c <nrf_drv_spi_transfer>
   1d484:	f7ff fe60 	bl	1d148 <wait_for_not_busy>
   1d488:	23fa      	movs	r3, #250	; 0xfa
   1d48a:	9703      	str	r7, [sp, #12]
   1d48c:	70e3      	strb	r3, [r4, #3]
   1d48e:	2400      	movs	r4, #0
   1d490:	4924      	ldr	r1, [pc, #144]	; (1d524 <tcmp441_updateDisplay+0x130>)
   1d492:	22fa      	movs	r2, #250	; 0xfa
   1d494:	1949      	adds	r1, r1, r5
   1d496:	a805      	add	r0, sp, #20
   1d498:	f002 fb16 	bl	1fac8 <memcpy>
   1d49c:	4f20      	ldr	r7, [pc, #128]	; (1d520 <tcmp441_updateDisplay+0x12c>)
   1d49e:	0023      	movs	r3, r4
   1d4a0:	22fe      	movs	r2, #254	; 0xfe
   1d4a2:	a904      	add	r1, sp, #16
   1d4a4:	9400      	str	r4, [sp, #0]
   1d4a6:	0038      	movs	r0, r7
   1d4a8:	f7ff fcb8 	bl	1ce1c <nrf_drv_spi_transfer>
   1d4ac:	f7ff fe4c 	bl	1d148 <wait_for_not_busy>
   1d4b0:	9b03      	ldr	r3, [sp, #12]
   1d4b2:	0022      	movs	r2, r4
   1d4b4:	9300      	str	r3, [sp, #0]
   1d4b6:	0021      	movs	r1, r4
   1d4b8:	4b17      	ldr	r3, [pc, #92]	; (1d518 <tcmp441_updateDisplay+0x124>)
   1d4ba:	0038      	movs	r0, r7
   1d4bc:	f7ff fcae 	bl	1ce1c <nrf_drv_spi_transfer>
   1d4c0:	f7ff fe42 	bl	1d148 <wait_for_not_busy>
   1d4c4:	4b18      	ldr	r3, [pc, #96]	; (1d528 <tcmp441_updateDisplay+0x134>)
   1d4c6:	35fa      	adds	r5, #250	; 0xfa
   1d4c8:	429d      	cmp	r5, r3
   1d4ca:	d1e0      	bne.n	1d48e <tcmp441_updateDisplay+0x9a>
   1d4cc:	2324      	movs	r3, #36	; 0x24
   1d4ce:	2501      	movs	r5, #1
   1d4d0:	7033      	strb	r3, [r6, #0]
   1d4d2:	7075      	strb	r5, [r6, #1]
   1d4d4:	0023      	movs	r3, r4
   1d4d6:	0031      	movs	r1, r6
   1d4d8:	70b4      	strb	r4, [r6, #2]
   1d4da:	2203      	movs	r2, #3
   1d4dc:	9400      	str	r4, [sp, #0]
   1d4de:	0038      	movs	r0, r7
   1d4e0:	f7ff fc9c 	bl	1ce1c <nrf_drv_spi_transfer>
   1d4e4:	f7ff fe30 	bl	1d148 <wait_for_not_busy>
   1d4e8:	2302      	movs	r3, #2
   1d4ea:	0022      	movs	r2, r4
   1d4ec:	9300      	str	r3, [sp, #0]
   1d4ee:	0021      	movs	r1, r4
   1d4f0:	4b09      	ldr	r3, [pc, #36]	; (1d518 <tcmp441_updateDisplay+0x124>)
   1d4f2:	0038      	movs	r0, r7
   1d4f4:	f7ff fc92 	bl	1ce1c <nrf_drv_spi_transfer>
   1d4f8:	f7ff fe26 	bl	1d148 <wait_for_not_busy>
   1d4fc:	4b04      	ldr	r3, [pc, #16]	; (1d510 <tcmp441_updateDisplay+0x11c>)
   1d4fe:	22a0      	movs	r2, #160	; 0xa0
   1d500:	681b      	ldr	r3, [r3, #0]
   1d502:	05d2      	lsls	r2, r2, #23
   1d504:	409d      	lsls	r5, r3
   1d506:	23a1      	movs	r3, #161	; 0xa1
   1d508:	00db      	lsls	r3, r3, #3
   1d50a:	50d5      	str	r5, [r2, r3]
   1d50c:	b045      	add	sp, #276	; 0x114
   1d50e:	bdf0      	pop	{r4, r5, r6, r7, pc}
   1d510:	6708      	str	r0, [r1, #112]	; 0x70
   1d512:	2000      	movs	r0, #0
   1d514:	050c      	lsls	r4, r1, #20
   1d516:	0000      	movs	r0, r0
   1d518:	6bf8      	ldr	r0, [r7, #60]	; 0x3c
   1d51a:	2000      	movs	r0, #0
   1d51c:	671c      	str	r4, [r3, #112]	; 0x70
   1d51e:	2000      	movs	r0, #0
   1d520:	670c      	str	r4, [r1, #112]	; 0x70
   1d522:	2000      	movs	r0, #0
   1d524:	2c61      	cmp	r4, #97	; 0x61
   1d526:	2000      	movs	r0, #0
   1d528:	3a98      	subs	r2, #152	; 0x98
	...

0001d52c <tcmp441_init>:
   1d52c:	b5f0      	push	{r4, r5, r6, r7, lr}
   1d52e:	4c30      	ldr	r4, [pc, #192]	; (1d5f0 <tcmp441_init+0xc4>)
   1d530:	b087      	sub	sp, #28
   1d532:	6022      	str	r2, [r4, #0]
   1d534:	4a2f      	ldr	r2, [pc, #188]	; (1d5f4 <tcmp441_init+0xc8>)
   1d536:	4f30      	ldr	r7, [pc, #192]	; (1d5f8 <tcmp441_init+0xcc>)
   1d538:	6013      	str	r3, [r2, #0]
   1d53a:	9b0c      	ldr	r3, [sp, #48]	; 0x30
   1d53c:	9a0d      	ldr	r2, [sp, #52]	; 0x34
   1d53e:	4e2f      	ldr	r6, [pc, #188]	; (1d5fc <tcmp441_init+0xd0>)
   1d540:	4d2f      	ldr	r5, [pc, #188]	; (1d600 <tcmp441_init+0xd4>)
   1d542:	603b      	str	r3, [r7, #0]
   1d544:	4b2f      	ldr	r3, [pc, #188]	; (1d604 <tcmp441_init+0xd8>)
   1d546:	6029      	str	r1, [r5, #0]
   1d548:	601a      	str	r2, [r3, #0]
   1d54a:	6030      	str	r0, [r6, #0]
   1d54c:	f7ff fe5c 	bl	1d208 <tcmp441_clearScreen>
   1d550:	6830      	ldr	r0, [r6, #0]
   1d552:	f7ff f807 	bl	1c564 <led_init>
   1d556:	6830      	ldr	r0, [r6, #0]
   1d558:	f7ff f81c 	bl	1c594 <led_off>
   1d55c:	6828      	ldr	r0, [r5, #0]
   1d55e:	f7ff f801 	bl	1c564 <led_init>
   1d562:	6828      	ldr	r0, [r5, #0]
   1d564:	f7ff f816 	bl	1c594 <led_off>
   1d568:	6820      	ldr	r0, [r4, #0]
   1d56a:	f7fe fffb 	bl	1c564 <led_init>
   1d56e:	6820      	ldr	r0, [r4, #0]
   1d570:	f7ff f810 	bl	1c594 <led_off>
   1d574:	21a0      	movs	r1, #160	; 0xa0
   1d576:	2200      	movs	r2, #0
   1d578:	2003      	movs	r0, #3
   1d57a:	683b      	ldr	r3, [r7, #0]
   1d57c:	05c9      	lsls	r1, r1, #23
   1d57e:	33c1      	adds	r3, #193	; 0xc1
   1d580:	33ff      	adds	r3, #255	; 0xff
   1d582:	009b      	lsls	r3, r3, #2
   1d584:	505a      	str	r2, [r3, r1]
   1d586:	4b1b      	ldr	r3, [pc, #108]	; (1d5f4 <tcmp441_init+0xc8>)
   1d588:	681b      	ldr	r3, [r3, #0]
   1d58a:	33c1      	adds	r3, #193	; 0xc1
   1d58c:	33ff      	adds	r3, #255	; 0xff
   1d58e:	009b      	lsls	r3, r3, #2
   1d590:	5058      	str	r0, [r3, r1]
   1d592:	a902      	add	r1, sp, #8
   1d594:	0008      	movs	r0, r1
   1d596:	4b1c      	ldr	r3, [pc, #112]	; (1d608 <tcmp441_init+0xdc>)
   1d598:	cb70      	ldmia	r3!, {r4, r5, r6}
   1d59a:	c070      	stmia	r0!, {r4, r5, r6}
   1d59c:	681b      	ldr	r3, [r3, #0]
   1d59e:	4c1b      	ldr	r4, [pc, #108]	; (1d60c <tcmp441_init+0xe0>)
   1d5a0:	6003      	str	r3, [r0, #0]
   1d5a2:	2380      	movs	r3, #128	; 0x80
   1d5a4:	05db      	lsls	r3, r3, #23
   1d5a6:	608b      	str	r3, [r1, #8]
   1d5a8:	4b16      	ldr	r3, [pc, #88]	; (1d604 <tcmp441_init+0xd8>)
   1d5aa:	0020      	movs	r0, r4
   1d5ac:	681b      	ldr	r3, [r3, #0]
   1d5ae:	70cb      	strb	r3, [r1, #3]
   1d5b0:	2302      	movs	r3, #2
   1d5b2:	730b      	strb	r3, [r1, #12]
   1d5b4:	f7ff fb06 	bl	1cbc4 <nrf_drv_spi_init>
   1d5b8:	2800      	cmp	r0, #0
   1d5ba:	d001      	beq.n	1d5c0 <tcmp441_init+0x94>
   1d5bc:	f7fe ffc4 	bl	1c548 <app_error_handler_bare>
   1d5c0:	2500      	movs	r5, #0
   1d5c2:	2204      	movs	r2, #4
   1d5c4:	002b      	movs	r3, r5
   1d5c6:	4912      	ldr	r1, [pc, #72]	; (1d610 <tcmp441_init+0xe4>)
   1d5c8:	9500      	str	r5, [sp, #0]
   1d5ca:	0020      	movs	r0, r4
   1d5cc:	f7ff fc26 	bl	1ce1c <nrf_drv_spi_transfer>
   1d5d0:	f7ff fdba 	bl	1d148 <wait_for_not_busy>
   1d5d4:	231c      	movs	r3, #28
   1d5d6:	002a      	movs	r2, r5
   1d5d8:	9300      	str	r3, [sp, #0]
   1d5da:	0029      	movs	r1, r5
   1d5dc:	4b0d      	ldr	r3, [pc, #52]	; (1d614 <tcmp441_init+0xe8>)
   1d5de:	0020      	movs	r0, r4
   1d5e0:	f7ff fc1c 	bl	1ce1c <nrf_drv_spi_transfer>
   1d5e4:	2001      	movs	r0, #1
   1d5e6:	f7ff fd3b 	bl	1d060 <nrf_delay_ms>
   1d5ea:	b007      	add	sp, #28
   1d5ec:	bdf0      	pop	{r4, r5, r6, r7, pc}
   1d5ee:	46c0      	nop			; (mov r8, r8)
   1d5f0:	6718      	str	r0, [r3, #112]	; 0x70
   1d5f2:	2000      	movs	r0, #0
   1d5f4:	6708      	str	r0, [r1, #112]	; 0x70
   1d5f6:	2000      	movs	r0, #0
   1d5f8:	6704      	str	r4, [r0, #112]	; 0x70
   1d5fa:	2000      	movs	r0, #0
   1d5fc:	6700      	str	r0, [r0, #112]	; 0x70
   1d5fe:	2000      	movs	r0, #0
   1d600:	6714      	str	r4, [r2, #112]	; 0x70
   1d602:	2000      	movs	r0, #0
   1d604:	66fc      	str	r4, [r7, #108]	; 0x6c
   1d606:	2000      	movs	r0, #0
   1d608:	fd8c 0001 	stc2	0, cr0, [ip, #4]
   1d60c:	670c      	str	r4, [r1, #112]	; 0x70
   1d60e:	2000      	movs	r0, #0
   1d610:	671c      	str	r4, [r3, #112]	; 0x70
   1d612:	2000      	movs	r0, #0
   1d614:	6bf8      	ldr	r0, [r7, #60]	; 0x3c
   1d616:	2000      	movs	r0, #0

0001d618 <QRinput_List_freeEntry>:
   1d618:	b510      	push	{r4, lr}
   1d61a:	1e04      	subs	r4, r0, #0
   1d61c:	d008      	beq.n	1d630 <QRinput_List_freeEntry+0x18>
   1d61e:	6880      	ldr	r0, [r0, #8]
   1d620:	f002 fa48 	bl	1fab4 <free>
   1d624:	68e0      	ldr	r0, [r4, #12]
   1d626:	f002 f81d 	bl	1f664 <BitStream_free>
   1d62a:	0020      	movs	r0, r4
   1d62c:	f002 fa42 	bl	1fab4 <free>
   1d630:	bd10      	pop	{r4, pc}

0001d632 <QRinput_isSplittableMode>:
   1d632:	b2c3      	uxtb	r3, r0
   1d634:	2203      	movs	r2, #3
   1d636:	2000      	movs	r0, #0
   1d638:	429a      	cmp	r2, r3
   1d63a:	4140      	adcs	r0, r0
   1d63c:	4770      	bx	lr

0001d63e <QRinput_new2>:
   1d63e:	b570      	push	{r4, r5, r6, lr}
   1d640:	0005      	movs	r5, r0
   1d642:	000c      	movs	r4, r1
   1d644:	2828      	cmp	r0, #40	; 0x28
   1d646:	d801      	bhi.n	1d64c <QRinput_new2+0xe>
   1d648:	2903      	cmp	r1, #3
   1d64a:	d905      	bls.n	1d658 <QRinput_new2+0x1a>
   1d64c:	f002 f9e6 	bl	1fa1c <__errno>
   1d650:	2316      	movs	r3, #22
   1d652:	6003      	str	r3, [r0, #0]
   1d654:	2000      	movs	r0, #0
   1d656:	e00b      	b.n	1d670 <QRinput_new2+0x32>
   1d658:	201c      	movs	r0, #28
   1d65a:	f002 fa21 	bl	1faa0 <malloc>
   1d65e:	2200      	movs	r2, #0
   1d660:	4290      	cmp	r0, r2
   1d662:	d005      	beq.n	1d670 <QRinput_new2+0x32>
   1d664:	6082      	str	r2, [r0, #8]
   1d666:	60c2      	str	r2, [r0, #12]
   1d668:	6005      	str	r5, [r0, #0]
   1d66a:	7104      	strb	r4, [r0, #4]
   1d66c:	6102      	str	r2, [r0, #16]
   1d66e:	6142      	str	r2, [r0, #20]
   1d670:	bd70      	pop	{r4, r5, r6, pc}

0001d672 <QRinput_newMQR>:
   1d672:	1e43      	subs	r3, r0, #1
   1d674:	b570      	push	{r4, r5, r6, lr}
   1d676:	0004      	movs	r4, r0
   1d678:	000d      	movs	r5, r1
   1d67a:	2b03      	cmp	r3, #3
   1d67c:	d80c      	bhi.n	1d698 <QRinput_newMQR+0x26>
   1d67e:	f001 fe97 	bl	1f3b0 <MQRspec_getECCLength>
   1d682:	2800      	cmp	r0, #0
   1d684:	d008      	beq.n	1d698 <QRinput_newMQR+0x26>
   1d686:	0029      	movs	r1, r5
   1d688:	0020      	movs	r0, r4
   1d68a:	f7ff ffd8 	bl	1d63e <QRinput_new2>
   1d68e:	2800      	cmp	r0, #0
   1d690:	d007      	beq.n	1d6a2 <QRinput_newMQR+0x30>
   1d692:	2201      	movs	r2, #1
   1d694:	6102      	str	r2, [r0, #16]
   1d696:	e004      	b.n	1d6a2 <QRinput_newMQR+0x30>
   1d698:	f002 f9c0 	bl	1fa1c <__errno>
   1d69c:	2316      	movs	r3, #22
   1d69e:	6003      	str	r3, [r0, #0]
   1d6a0:	2000      	movs	r0, #0
   1d6a2:	bd70      	pop	{r4, r5, r6, pc}

0001d6a4 <QRinput_setVersion>:
   1d6a4:	6903      	ldr	r3, [r0, #16]
   1d6a6:	b510      	push	{r4, lr}
   1d6a8:	2b00      	cmp	r3, #0
   1d6aa:	d101      	bne.n	1d6b0 <QRinput_setVersion+0xc>
   1d6ac:	2928      	cmp	r1, #40	; 0x28
   1d6ae:	d905      	bls.n	1d6bc <QRinput_setVersion+0x18>
   1d6b0:	f002 f9b4 	bl	1fa1c <__errno>
   1d6b4:	2316      	movs	r3, #22
   1d6b6:	6003      	str	r3, [r0, #0]
   1d6b8:	3b17      	subs	r3, #23
   1d6ba:	e000      	b.n	1d6be <QRinput_setVersion+0x1a>
   1d6bc:	6001      	str	r1, [r0, #0]
   1d6be:	0018      	movs	r0, r3
   1d6c0:	bd10      	pop	{r4, pc}

0001d6c2 <QRinput_free>:
   1d6c2:	b570      	push	{r4, r5, r6, lr}
   1d6c4:	1e04      	subs	r4, r0, #0
   1d6c6:	d00a      	beq.n	1d6de <QRinput_free+0x1c>
   1d6c8:	6880      	ldr	r0, [r0, #8]
   1d6ca:	2800      	cmp	r0, #0
   1d6cc:	d004      	beq.n	1d6d8 <QRinput_free+0x16>
   1d6ce:	6905      	ldr	r5, [r0, #16]
   1d6d0:	f7ff ffa2 	bl	1d618 <QRinput_List_freeEntry>
   1d6d4:	0028      	movs	r0, r5
   1d6d6:	e7f8      	b.n	1d6ca <QRinput_free+0x8>
   1d6d8:	0020      	movs	r0, r4
   1d6da:	f002 f9eb 	bl	1fab4 <free>
   1d6de:	bd70      	pop	{r4, r5, r6, pc}

0001d6e0 <QRinput_estimateBitsModeNum>:
   1d6e0:	b510      	push	{r4, lr}
   1d6e2:	2103      	movs	r1, #3
   1d6e4:	0004      	movs	r4, r0
   1d6e6:	f002 f8a3 	bl	1f830 <__aeabi_idiv>
   1d6ea:	230a      	movs	r3, #10
   1d6ec:	0082      	lsls	r2, r0, #2
   1d6ee:	4343      	muls	r3, r0
   1d6f0:	1a80      	subs	r0, r0, r2
   1d6f2:	1904      	adds	r4, r0, r4
   1d6f4:	2c01      	cmp	r4, #1
   1d6f6:	d003      	beq.n	1d700 <QRinput_estimateBitsModeNum+0x20>
   1d6f8:	2c02      	cmp	r4, #2
   1d6fa:	d102      	bne.n	1d702 <QRinput_estimateBitsModeNum+0x22>
   1d6fc:	3307      	adds	r3, #7
   1d6fe:	e000      	b.n	1d702 <QRinput_estimateBitsModeNum+0x22>
   1d700:	3304      	adds	r3, #4
   1d702:	0018      	movs	r0, r3
   1d704:	bd10      	pop	{r4, pc}

0001d706 <QRinput_estimateBitsModeAn>:
   1d706:	230b      	movs	r3, #11
   1d708:	0001      	movs	r1, r0
   1d70a:	0fc2      	lsrs	r2, r0, #31
   1d70c:	1812      	adds	r2, r2, r0
   1d70e:	1052      	asrs	r2, r2, #1
   1d710:	4353      	muls	r3, r2
   1d712:	0018      	movs	r0, r3
   1d714:	07cb      	lsls	r3, r1, #31
   1d716:	d500      	bpl.n	1d71a <QRinput_estimateBitsModeAn+0x14>
   1d718:	3006      	adds	r0, #6
   1d71a:	4770      	bx	lr

0001d71c <QRinput_estimateBitStreamSizeOfEntry>:
   1d71c:	b5f7      	push	{r0, r1, r2, r4, r5, r6, r7, lr}
   1d71e:	0005      	movs	r5, r0
   1d720:	1e0e      	subs	r6, r1, #0
   1d722:	9201      	str	r2, [sp, #4]
   1d724:	d100      	bne.n	1d728 <QRinput_estimateBitStreamSizeOfEntry+0xc>
   1d726:	3601      	adds	r6, #1
   1d728:	2700      	movs	r7, #0
   1d72a:	57ef      	ldrsb	r7, [r5, r7]
   1d72c:	2000      	movs	r0, #0
   1d72e:	2f07      	cmp	r7, #7
   1d730:	d849      	bhi.n	1d7c6 <QRinput_estimateBitStreamSizeOfEntry+0xaa>
   1d732:	0038      	movs	r0, r7
   1d734:	f002 f868 	bl	1f808 <__gnu_thumb1_case_uqi>
   1d738:	0a06      	lsrs	r6, r0, #8
   1d73a:	120f      	asrs	r7, r1, #8
   1d73c:	1946      	adds	r6, r0, r5
   1d73e:	2c04      	cmp	r4, #4
   1d740:	2004      	movs	r0, #4
   1d742:	e040      	b.n	1d7c6 <QRinput_estimateBitStreamSizeOfEntry+0xaa>
   1d744:	6868      	ldr	r0, [r5, #4]
   1d746:	f7ff ffcb 	bl	1d6e0 <QRinput_estimateBitsModeNum>
   1d74a:	e002      	b.n	1d752 <QRinput_estimateBitStreamSizeOfEntry+0x36>
   1d74c:	6868      	ldr	r0, [r5, #4]
   1d74e:	f7ff ffda 	bl	1d706 <QRinput_estimateBitsModeAn>
   1d752:	0004      	movs	r4, r0
   1d754:	e01e      	b.n	1d794 <QRinput_estimateBitStreamSizeOfEntry+0x78>
   1d756:	686b      	ldr	r3, [r5, #4]
   1d758:	00dc      	lsls	r4, r3, #3
   1d75a:	e01b      	b.n	1d794 <QRinput_estimateBitStreamSizeOfEntry+0x78>
   1d75c:	686b      	ldr	r3, [r5, #4]
   1d75e:	0fdc      	lsrs	r4, r3, #31
   1d760:	18e3      	adds	r3, r4, r3
   1d762:	240d      	movs	r4, #13
   1d764:	105b      	asrs	r3, r3, #1
   1d766:	435c      	muls	r4, r3
   1d768:	e014      	b.n	1d794 <QRinput_estimateBitStreamSizeOfEntry+0x78>
   1d76a:	68ab      	ldr	r3, [r5, #8]
   1d76c:	1cda      	adds	r2, r3, #3
   1d76e:	1e59      	subs	r1, r3, #1
   1d770:	2300      	movs	r3, #0
   1d772:	7810      	ldrb	r0, [r2, #0]
   1d774:	021b      	lsls	r3, r3, #8
   1d776:	3a01      	subs	r2, #1
   1d778:	4303      	orrs	r3, r0
   1d77a:	4291      	cmp	r1, r2
   1d77c:	d1f9      	bne.n	1d772 <QRinput_estimateBitStreamSizeOfEntry+0x56>
   1d77e:	240c      	movs	r4, #12
   1d780:	2b7f      	cmp	r3, #127	; 0x7f
   1d782:	d907      	bls.n	1d794 <QRinput_estimateBitStreamSizeOfEntry+0x78>
   1d784:	4a10      	ldr	r2, [pc, #64]	; (1d7c8 <QRinput_estimateBitStreamSizeOfEntry+0xac>)
   1d786:	3408      	adds	r4, #8
   1d788:	4293      	cmp	r3, r2
   1d78a:	d903      	bls.n	1d794 <QRinput_estimateBitStreamSizeOfEntry+0x78>
   1d78c:	3408      	adds	r4, #8
   1d78e:	e001      	b.n	1d794 <QRinput_estimateBitStreamSizeOfEntry+0x78>
   1d790:	200c      	movs	r0, #12
   1d792:	e018      	b.n	1d7c6 <QRinput_estimateBitStreamSizeOfEntry+0xaa>
   1d794:	9b01      	ldr	r3, [sp, #4]
   1d796:	0031      	movs	r1, r6
   1d798:	0038      	movs	r0, r7
   1d79a:	2b00      	cmp	r3, #0
   1d79c:	d004      	beq.n	1d7a8 <QRinput_estimateBitStreamSizeOfEntry+0x8c>
   1d79e:	f000 ff8d 	bl	1e6bc <QRspec_lengthIndicator>
   1d7a2:	3e01      	subs	r6, #1
   1d7a4:	1830      	adds	r0, r6, r0
   1d7a6:	e00b      	b.n	1d7c0 <QRinput_estimateBitStreamSizeOfEntry+0xa4>
   1d7a8:	f000 ff88 	bl	1e6bc <QRspec_lengthIndicator>
   1d7ac:	2101      	movs	r1, #1
   1d7ae:	4081      	lsls	r1, r0
   1d7b0:	0007      	movs	r7, r0
   1d7b2:	6868      	ldr	r0, [r5, #4]
   1d7b4:	3704      	adds	r7, #4
   1d7b6:	1808      	adds	r0, r1, r0
   1d7b8:	3801      	subs	r0, #1
   1d7ba:	f002 f839 	bl	1f830 <__aeabi_idiv>
   1d7be:	4378      	muls	r0, r7
   1d7c0:	1900      	adds	r0, r0, r4
   1d7c2:	e000      	b.n	1d7c6 <QRinput_estimateBitStreamSizeOfEntry+0xaa>
   1d7c4:	2014      	movs	r0, #20
   1d7c6:	bdfe      	pop	{r1, r2, r3, r4, r5, r6, r7, pc}
   1d7c8:	3fff      	subs	r7, #255	; 0xff
	...

0001d7cc <QRinput_check>:
   1d7cc:	b5f0      	push	{r4, r5, r6, r7, lr}
   1d7ce:	2806      	cmp	r0, #6
   1d7d0:	d102      	bne.n	1d7d8 <QRinput_check+0xc>
   1d7d2:	2900      	cmp	r1, #0
   1d7d4:	da3e      	bge.n	1d854 <QRinput_check+0x88>
   1d7d6:	e03b      	b.n	1d850 <QRinput_check+0x84>
   1d7d8:	2900      	cmp	r1, #0
   1d7da:	dd39      	ble.n	1d850 <QRinput_check+0x84>
   1d7dc:	2807      	cmp	r0, #7
   1d7de:	d837      	bhi.n	1d850 <QRinput_check+0x84>
   1d7e0:	f002 f812 	bl	1f808 <__gnu_thumb1_case_uqi>
   1d7e4:	0d04      	lsrs	r4, r0, #20
   1d7e6:	1b19      	subs	r1, r3, r4
   1d7e8:	1919      	adds	r1, r3, r4
   1d7ea:	3219      	adds	r2, #25
   1d7ec:	1850      	adds	r0, r2, r1
   1d7ee:	7813      	ldrb	r3, [r2, #0]
   1d7f0:	3b30      	subs	r3, #48	; 0x30
   1d7f2:	2b09      	cmp	r3, #9
   1d7f4:	d82c      	bhi.n	1d850 <QRinput_check+0x84>
   1d7f6:	3201      	adds	r2, #1
   1d7f8:	4290      	cmp	r0, r2
   1d7fa:	d1f8      	bne.n	1d7ee <QRinput_check+0x22>
   1d7fc:	e00b      	b.n	1d816 <QRinput_check+0x4a>
   1d7fe:	1850      	adds	r0, r2, r1
   1d800:	4916      	ldr	r1, [pc, #88]	; (1d85c <QRinput_check+0x90>)
   1d802:	7813      	ldrb	r3, [r2, #0]
   1d804:	b25c      	sxtb	r4, r3
   1d806:	2c00      	cmp	r4, #0
   1d808:	db22      	blt.n	1d850 <QRinput_check+0x84>
   1d80a:	5ccb      	ldrb	r3, [r1, r3]
   1d80c:	2b7f      	cmp	r3, #127	; 0x7f
   1d80e:	d81f      	bhi.n	1d850 <QRinput_check+0x84>
   1d810:	3201      	adds	r2, #1
   1d812:	4282      	cmp	r2, r0
   1d814:	d1f5      	bne.n	1d802 <QRinput_check+0x36>
   1d816:	2000      	movs	r0, #0
   1d818:	e01f      	b.n	1d85a <QRinput_check+0x8e>
   1d81a:	2001      	movs	r0, #1
   1d81c:	4008      	ands	r0, r1
   1d81e:	d117      	bne.n	1d850 <QRinput_check+0x84>
   1d820:	0015      	movs	r5, r2
   1d822:	4e0f      	ldr	r6, [pc, #60]	; (1d860 <QRinput_check+0x94>)
   1d824:	4f0f      	ldr	r7, [pc, #60]	; (1d864 <QRinput_check+0x98>)
   1d826:	782b      	ldrb	r3, [r5, #0]
   1d828:	786c      	ldrb	r4, [r5, #1]
   1d82a:	021b      	lsls	r3, r3, #8
   1d82c:	4323      	orrs	r3, r4
   1d82e:	4c0e      	ldr	r4, [pc, #56]	; (1d868 <QRinput_check+0x9c>)
   1d830:	191c      	adds	r4, r3, r4
   1d832:	42b4      	cmp	r4, r6
   1d834:	d80c      	bhi.n	1d850 <QRinput_check+0x84>
   1d836:	4c0d      	ldr	r4, [pc, #52]	; (1d86c <QRinput_check+0xa0>)
   1d838:	191b      	adds	r3, r3, r4
   1d83a:	42bb      	cmp	r3, r7
   1d83c:	d908      	bls.n	1d850 <QRinput_check+0x84>
   1d83e:	3502      	adds	r5, #2
   1d840:	1aab      	subs	r3, r5, r2
   1d842:	4299      	cmp	r1, r3
   1d844:	dcef      	bgt.n	1d826 <QRinput_check+0x5a>
   1d846:	e008      	b.n	1d85a <QRinput_check+0x8e>
   1d848:	1e48      	subs	r0, r1, #1
   1d84a:	1e41      	subs	r1, r0, #1
   1d84c:	4188      	sbcs	r0, r1
   1d84e:	e003      	b.n	1d858 <QRinput_check+0x8c>
   1d850:	2001      	movs	r0, #1
   1d852:	e001      	b.n	1d858 <QRinput_check+0x8c>
   1d854:	4248      	negs	r0, r1
   1d856:	4148      	adcs	r0, r1
   1d858:	4240      	negs	r0, r0
   1d85a:	bdf0      	pop	{r4, r5, r6, r7, pc}
   1d85c:	fd9c 0001 	ldc2	0, cr0, [ip, #4]
   1d860:	6a7f      	ldr	r7, [r7, #36]	; 0x24
   1d862:	0000      	movs	r0, r0
   1d864:	4042      	eors	r2, r0
   1d866:	0000      	movs	r0, r0
   1d868:	7ec0      	ldrb	r0, [r0, #27]
   1d86a:	ffff 6003 	vaddl.u<illegal width 64>	q11, d15, d3
   1d86e:	ffff b5f7 	vsli.64	<illegal reg q13.5>, <illegal reg q11.5>, #63	; 0x3f

0001d870 <QRinput_List_newEntry>:
   1d870:	b5f7      	push	{r0, r1, r2, r4, r5, r6, r7, lr}
   1d872:	0007      	movs	r7, r0
   1d874:	000d      	movs	r5, r1
   1d876:	9201      	str	r2, [sp, #4]
   1d878:	f7ff ffa8 	bl	1d7cc <QRinput_check>
   1d87c:	1e06      	subs	r6, r0, #0
   1d87e:	d005      	beq.n	1d88c <QRinput_List_newEntry+0x1c>
   1d880:	f002 f8cc 	bl	1fa1c <__errno>
   1d884:	2316      	movs	r3, #22
   1d886:	6003      	str	r3, [r0, #0]
   1d888:	2000      	movs	r0, #0
   1d88a:	e01b      	b.n	1d8c4 <QRinput_List_newEntry+0x54>
   1d88c:	2014      	movs	r0, #20
   1d88e:	f002 f907 	bl	1faa0 <malloc>
   1d892:	1e04      	subs	r4, r0, #0
   1d894:	d016      	beq.n	1d8c4 <QRinput_List_newEntry+0x54>
   1d896:	7007      	strb	r7, [r0, #0]
   1d898:	6045      	str	r5, [r0, #4]
   1d89a:	6086      	str	r6, [r0, #8]
   1d89c:	2d00      	cmp	r5, #0
   1d89e:	dd0d      	ble.n	1d8bc <QRinput_List_newEntry+0x4c>
   1d8a0:	0028      	movs	r0, r5
   1d8a2:	f002 f8fd 	bl	1faa0 <malloc>
   1d8a6:	60a0      	str	r0, [r4, #8]
   1d8a8:	2800      	cmp	r0, #0
   1d8aa:	d103      	bne.n	1d8b4 <QRinput_List_newEntry+0x44>
   1d8ac:	0020      	movs	r0, r4
   1d8ae:	f002 f901 	bl	1fab4 <free>
   1d8b2:	e7e9      	b.n	1d888 <QRinput_List_newEntry+0x18>
   1d8b4:	002a      	movs	r2, r5
   1d8b6:	9901      	ldr	r1, [sp, #4]
   1d8b8:	f002 f906 	bl	1fac8 <memcpy>
   1d8bc:	2300      	movs	r3, #0
   1d8be:	0020      	movs	r0, r4
   1d8c0:	60e3      	str	r3, [r4, #12]
   1d8c2:	6123      	str	r3, [r4, #16]
   1d8c4:	bdfe      	pop	{r1, r2, r3, r4, r5, r6, r7, pc}

0001d8c6 <QRinput_append>:
   1d8c6:	b510      	push	{r4, lr}
   1d8c8:	0004      	movs	r4, r0
   1d8ca:	0008      	movs	r0, r1
   1d8cc:	0011      	movs	r1, r2
   1d8ce:	001a      	movs	r2, r3
   1d8d0:	f7ff ffce 	bl	1d870 <QRinput_List_newEntry>
   1d8d4:	2800      	cmp	r0, #0
   1d8d6:	d00a      	beq.n	1d8ee <QRinput_append+0x28>
   1d8d8:	68e3      	ldr	r3, [r4, #12]
   1d8da:	2b00      	cmp	r3, #0
   1d8dc:	d101      	bne.n	1d8e2 <QRinput_append+0x1c>
   1d8de:	60a0      	str	r0, [r4, #8]
   1d8e0:	e000      	b.n	1d8e4 <QRinput_append+0x1e>
   1d8e2:	6118      	str	r0, [r3, #16]
   1d8e4:	2300      	movs	r3, #0
   1d8e6:	60e0      	str	r0, [r4, #12]
   1d8e8:	6103      	str	r3, [r0, #16]
   1d8ea:	0018      	movs	r0, r3
   1d8ec:	e001      	b.n	1d8f2 <QRinput_append+0x2c>
   1d8ee:	2001      	movs	r0, #1
   1d8f0:	4240      	negs	r0, r0
   1d8f2:	bd10      	pop	{r4, pc}

0001d8f4 <QRinput_encodeBitStream>:
   1d8f4:	b5f0      	push	{r4, r5, r6, r7, lr}
   1d8f6:	0004      	movs	r4, r0
   1d8f8:	2000      	movs	r0, #0
   1d8fa:	001e      	movs	r6, r3
   1d8fc:	680b      	ldr	r3, [r1, #0]
   1d8fe:	b085      	sub	sp, #20
   1d900:	000f      	movs	r7, r1
   1d902:	5620      	ldrsb	r0, [r4, r0]
   1d904:	0011      	movs	r1, r2
   1d906:	9303      	str	r3, [sp, #12]
   1d908:	0015      	movs	r5, r2
   1d90a:	f000 fef1 	bl	1e6f0 <QRspec_maximumWords>
   1d90e:	9001      	str	r0, [sp, #4]
   1d910:	2000      	movs	r0, #0
   1d912:	9b01      	ldr	r3, [sp, #4]
   1d914:	5620      	ldrsb	r0, [r4, r0]
   1d916:	2b00      	cmp	r3, #0
   1d918:	d030      	beq.n	1d97c <QRinput_encodeBitStream+0x88>
   1d91a:	6862      	ldr	r2, [r4, #4]
   1d91c:	4293      	cmp	r3, r2
   1d91e:	da2d      	bge.n	1d97c <QRinput_encodeBitStream+0x88>
   1d920:	68a2      	ldr	r2, [r4, #8]
   1d922:	0019      	movs	r1, r3
   1d924:	f7ff ffa4 	bl	1d870 <QRinput_List_newEntry>
   1d928:	9002      	str	r0, [sp, #8]
   1d92a:	2800      	cmp	r0, #0
   1d92c:	d100      	bne.n	1d930 <QRinput_encodeBitStream+0x3c>
   1d92e:	e1c4      	b.n	1dcba <QRinput_encodeBitStream+0x3c6>
   1d930:	2000      	movs	r0, #0
   1d932:	68a3      	ldr	r3, [r4, #8]
   1d934:	9a01      	ldr	r2, [sp, #4]
   1d936:	9901      	ldr	r1, [sp, #4]
   1d938:	189a      	adds	r2, r3, r2
   1d93a:	6863      	ldr	r3, [r4, #4]
   1d93c:	5620      	ldrsb	r0, [r4, r0]
   1d93e:	1a59      	subs	r1, r3, r1
   1d940:	f7ff ff96 	bl	1d870 <QRinput_List_newEntry>
   1d944:	1e04      	subs	r4, r0, #0
   1d946:	d100      	bne.n	1d94a <QRinput_encodeBitStream+0x56>
   1d948:	e1b7      	b.n	1dcba <QRinput_encodeBitStream+0x3c6>
   1d94a:	0033      	movs	r3, r6
   1d94c:	002a      	movs	r2, r5
   1d94e:	0039      	movs	r1, r7
   1d950:	9802      	ldr	r0, [sp, #8]
   1d952:	f7ff ffcf 	bl	1d8f4 <QRinput_encodeBitStream>
   1d956:	2800      	cmp	r0, #0
   1d958:	da00      	bge.n	1d95c <QRinput_encodeBitStream+0x68>
   1d95a:	e1af      	b.n	1dcbc <QRinput_encodeBitStream+0x3c8>
   1d95c:	0033      	movs	r3, r6
   1d95e:	002a      	movs	r2, r5
   1d960:	0039      	movs	r1, r7
   1d962:	0020      	movs	r0, r4
   1d964:	f7ff ffc6 	bl	1d8f4 <QRinput_encodeBitStream>
   1d968:	2800      	cmp	r0, #0
   1d96a:	da00      	bge.n	1d96e <QRinput_encodeBitStream+0x7a>
   1d96c:	e1a6      	b.n	1dcbc <QRinput_encodeBitStream+0x3c8>
   1d96e:	9802      	ldr	r0, [sp, #8]
   1d970:	f7ff fe52 	bl	1d618 <QRinput_List_freeEntry>
   1d974:	0020      	movs	r0, r4
   1d976:	f7ff fe4f 	bl	1d618 <QRinput_List_freeEntry>
   1d97a:	e19a      	b.n	1dcb2 <QRinput_encodeBitStream+0x3be>
   1d97c:	2807      	cmp	r0, #7
   1d97e:	d900      	bls.n	1d982 <QRinput_encodeBitStream+0x8e>
   1d980:	e197      	b.n	1dcb2 <QRinput_encodeBitStream+0x3be>
   1d982:	f001 ff4b 	bl	1f81c <__gnu_thumb1_case_uhi>
   1d986:	0008      	movs	r0, r1
   1d988:	006e      	lsls	r6, r5, #1
   1d98a:	00ce      	lsls	r6, r1, #3
   1d98c:	00f6      	lsls	r6, r6, #3
   1d98e:	013e      	lsls	r6, r7, #4
   1d990:	0162      	lsls	r2, r4, #5
   1d992:	0196      	lsls	r6, r2, #6
   1d994:	0188      	lsls	r0, r1, #6
   1d996:	2e00      	cmp	r6, #0
   1d998:	d00e      	beq.n	1d9b8 <QRinput_encodeBitStream+0xc4>
   1d99a:	2d01      	cmp	r5, #1
   1d99c:	dc04      	bgt.n	1d9a8 <QRinput_encodeBitStream+0xb4>
   1d99e:	0029      	movs	r1, r5
   1d9a0:	2000      	movs	r0, #0
   1d9a2:	f001 fd17 	bl	1f3d4 <MQRspec_lengthIndicator>
   1d9a6:	e013      	b.n	1d9d0 <QRinput_encodeBitStream+0xdc>
   1d9a8:	1e69      	subs	r1, r5, #1
   1d9aa:	2200      	movs	r2, #0
   1d9ac:	0038      	movs	r0, r7
   1d9ae:	f001 fdbc 	bl	1f52a <BitStream_appendNum>
   1d9b2:	2800      	cmp	r0, #0
   1d9b4:	daf3      	bge.n	1d99e <QRinput_encodeBitStream+0xaa>
   1d9b6:	e187      	b.n	1dcc8 <QRinput_encodeBitStream+0x3d4>
   1d9b8:	2201      	movs	r2, #1
   1d9ba:	2104      	movs	r1, #4
   1d9bc:	0038      	movs	r0, r7
   1d9be:	f001 fdb4 	bl	1f52a <BitStream_appendNum>
   1d9c2:	2800      	cmp	r0, #0
   1d9c4:	da00      	bge.n	1d9c8 <QRinput_encodeBitStream+0xd4>
   1d9c6:	e17f      	b.n	1dcc8 <QRinput_encodeBitStream+0x3d4>
   1d9c8:	0029      	movs	r1, r5
   1d9ca:	0030      	movs	r0, r6
   1d9cc:	f000 fe76 	bl	1e6bc <QRspec_lengthIndicator>
   1d9d0:	0001      	movs	r1, r0
   1d9d2:	6862      	ldr	r2, [r4, #4]
   1d9d4:	0038      	movs	r0, r7
   1d9d6:	f001 fda8 	bl	1f52a <BitStream_appendNum>
   1d9da:	2800      	cmp	r0, #0
   1d9dc:	da00      	bge.n	1d9e0 <QRinput_encodeBitStream+0xec>
   1d9de:	e173      	b.n	1dcc8 <QRinput_encodeBitStream+0x3d4>
   1d9e0:	2103      	movs	r1, #3
   1d9e2:	6860      	ldr	r0, [r4, #4]
   1d9e4:	f001 ff24 	bl	1f830 <__aeabi_idiv>
   1d9e8:	2600      	movs	r6, #0
   1d9ea:	0005      	movs	r5, r0
   1d9ec:	42b5      	cmp	r5, r6
   1d9ee:	dd18      	ble.n	1da22 <QRinput_encodeBitStream+0x12e>
   1d9f0:	2103      	movs	r1, #3
   1d9f2:	2064      	movs	r0, #100	; 0x64
   1d9f4:	4371      	muls	r1, r6
   1d9f6:	68a3      	ldr	r3, [r4, #8]
   1d9f8:	5c5b      	ldrb	r3, [r3, r1]
   1d9fa:	3b30      	subs	r3, #48	; 0x30
   1d9fc:	4358      	muls	r0, r3
   1d9fe:	68a3      	ldr	r3, [r4, #8]
   1da00:	1859      	adds	r1, r3, r1
   1da02:	788b      	ldrb	r3, [r1, #2]
   1da04:	784a      	ldrb	r2, [r1, #1]
   1da06:	210a      	movs	r1, #10
   1da08:	3a30      	subs	r2, #48	; 0x30
   1da0a:	434a      	muls	r2, r1
   1da0c:	3b30      	subs	r3, #48	; 0x30
   1da0e:	18c3      	adds	r3, r0, r3
   1da10:	18d2      	adds	r2, r2, r3
   1da12:	0038      	movs	r0, r7
   1da14:	f001 fd89 	bl	1f52a <BitStream_appendNum>
   1da18:	2800      	cmp	r0, #0
   1da1a:	da00      	bge.n	1da1e <QRinput_encodeBitStream+0x12a>
   1da1c:	e154      	b.n	1dcc8 <QRinput_encodeBitStream+0x3d4>
   1da1e:	3601      	adds	r6, #1
   1da20:	e7e4      	b.n	1d9ec <QRinput_encodeBitStream+0xf8>
   1da22:	00ab      	lsls	r3, r5, #2
   1da24:	6862      	ldr	r2, [r4, #4]
   1da26:	1aeb      	subs	r3, r5, r3
   1da28:	189b      	adds	r3, r3, r2
   1da2a:	2b01      	cmp	r3, #1
   1da2c:	d106      	bne.n	1da3c <QRinput_encodeBitStream+0x148>
   1da2e:	3302      	adds	r3, #2
   1da30:	435d      	muls	r5, r3
   1da32:	68a2      	ldr	r2, [r4, #8]
   1da34:	2104      	movs	r1, #4
   1da36:	5caa      	ldrb	r2, [r5, r2]
   1da38:	3a30      	subs	r2, #48	; 0x30
   1da3a:	e128      	b.n	1dc8e <QRinput_encodeBitStream+0x39a>
   1da3c:	2b02      	cmp	r3, #2
   1da3e:	d000      	beq.n	1da42 <QRinput_encodeBitStream+0x14e>
   1da40:	e137      	b.n	1dcb2 <QRinput_encodeBitStream+0x3be>
   1da42:	3301      	adds	r3, #1
   1da44:	435d      	muls	r5, r3
   1da46:	68a1      	ldr	r1, [r4, #8]
   1da48:	3307      	adds	r3, #7
   1da4a:	5d4a      	ldrb	r2, [r1, r5]
   1da4c:	194d      	adds	r5, r1, r5
   1da4e:	3a30      	subs	r2, #48	; 0x30
   1da50:	435a      	muls	r2, r3
   1da52:	786b      	ldrb	r3, [r5, #1]
   1da54:	2107      	movs	r1, #7
   1da56:	3b30      	subs	r3, #48	; 0x30
   1da58:	189a      	adds	r2, r3, r2
   1da5a:	0038      	movs	r0, r7
   1da5c:	f001 fd65 	bl	1f52a <BitStream_appendNum>
   1da60:	e127      	b.n	1dcb2 <QRinput_encodeBitStream+0x3be>
   1da62:	2e00      	cmp	r6, #0
   1da64:	d01c      	beq.n	1daa0 <QRinput_encodeBitStream+0x1ac>
   1da66:	2d01      	cmp	r5, #1
   1da68:	dc00      	bgt.n	1da6c <QRinput_encodeBitStream+0x178>
   1da6a:	e0cc      	b.n	1dc06 <QRinput_encodeBitStream+0x312>
   1da6c:	1e69      	subs	r1, r5, #1
   1da6e:	2201      	movs	r2, #1
   1da70:	0038      	movs	r0, r7
   1da72:	f001 fd5a 	bl	1f52a <BitStream_appendNum>
   1da76:	2800      	cmp	r0, #0
   1da78:	da00      	bge.n	1da7c <QRinput_encodeBitStream+0x188>
   1da7a:	e125      	b.n	1dcc8 <QRinput_encodeBitStream+0x3d4>
   1da7c:	0029      	movs	r1, r5
   1da7e:	2001      	movs	r0, #1
   1da80:	f001 fca8 	bl	1f3d4 <MQRspec_lengthIndicator>
   1da84:	0001      	movs	r1, r0
   1da86:	6862      	ldr	r2, [r4, #4]
   1da88:	0038      	movs	r0, r7
   1da8a:	f001 fd4e 	bl	1f52a <BitStream_appendNum>
   1da8e:	2800      	cmp	r0, #0
   1da90:	da00      	bge.n	1da94 <QRinput_encodeBitStream+0x1a0>
   1da92:	e119      	b.n	1dcc8 <QRinput_encodeBitStream+0x3d4>
   1da94:	6863      	ldr	r3, [r4, #4]
   1da96:	2600      	movs	r6, #0
   1da98:	0fdd      	lsrs	r5, r3, #31
   1da9a:	18ed      	adds	r5, r5, r3
   1da9c:	106d      	asrs	r5, r5, #1
   1da9e:	e026      	b.n	1daee <QRinput_encodeBitStream+0x1fa>
   1daa0:	2202      	movs	r2, #2
   1daa2:	2104      	movs	r1, #4
   1daa4:	0038      	movs	r0, r7
   1daa6:	f001 fd40 	bl	1f52a <BitStream_appendNum>
   1daaa:	2800      	cmp	r0, #0
   1daac:	da00      	bge.n	1dab0 <QRinput_encodeBitStream+0x1bc>
   1daae:	e10b      	b.n	1dcc8 <QRinput_encodeBitStream+0x3d4>
   1dab0:	0029      	movs	r1, r5
   1dab2:	2001      	movs	r0, #1
   1dab4:	f000 fe02 	bl	1e6bc <QRspec_lengthIndicator>
   1dab8:	e7e4      	b.n	1da84 <QRinput_encodeBitStream+0x190>
   1daba:	68a0      	ldr	r0, [r4, #8]
   1dabc:	0071      	lsls	r1, r6, #1
   1dabe:	5c43      	ldrb	r3, [r0, r1]
   1dac0:	b25a      	sxtb	r2, r3
   1dac2:	2a00      	cmp	r2, #0
   1dac4:	db16      	blt.n	1daf4 <QRinput_encodeBitStream+0x200>
   1dac6:	4a82      	ldr	r2, [pc, #520]	; (1dcd0 <QRinput_encodeBitStream+0x3dc>)
   1dac8:	56d2      	ldrsb	r2, [r2, r3]
   1daca:	232d      	movs	r3, #45	; 0x2d
   1dacc:	435a      	muls	r2, r3
   1dace:	1841      	adds	r1, r0, r1
   1dad0:	784b      	ldrb	r3, [r1, #1]
   1dad2:	b259      	sxtb	r1, r3
   1dad4:	2900      	cmp	r1, #0
   1dad6:	db10      	blt.n	1dafa <QRinput_encodeBitStream+0x206>
   1dad8:	497d      	ldr	r1, [pc, #500]	; (1dcd0 <QRinput_encodeBitStream+0x3dc>)
   1dada:	56cb      	ldrsb	r3, [r1, r3]
   1dadc:	18d2      	adds	r2, r2, r3
   1dade:	210b      	movs	r1, #11
   1dae0:	0038      	movs	r0, r7
   1dae2:	f001 fd22 	bl	1f52a <BitStream_appendNum>
   1dae6:	2800      	cmp	r0, #0
   1dae8:	da00      	bge.n	1daec <QRinput_encodeBitStream+0x1f8>
   1daea:	e0ed      	b.n	1dcc8 <QRinput_encodeBitStream+0x3d4>
   1daec:	3601      	adds	r6, #1
   1daee:	42b5      	cmp	r5, r6
   1daf0:	dce3      	bgt.n	1daba <QRinput_encodeBitStream+0x1c6>
   1daf2:	e005      	b.n	1db00 <QRinput_encodeBitStream+0x20c>
   1daf4:	222d      	movs	r2, #45	; 0x2d
   1daf6:	4252      	negs	r2, r2
   1daf8:	e7e9      	b.n	1dace <QRinput_encodeBitStream+0x1da>
   1dafa:	2301      	movs	r3, #1
   1dafc:	425b      	negs	r3, r3
   1dafe:	e7ed      	b.n	1dadc <QRinput_encodeBitStream+0x1e8>
   1db00:	6863      	ldr	r3, [r4, #4]
   1db02:	07db      	lsls	r3, r3, #31
   1db04:	d400      	bmi.n	1db08 <QRinput_encodeBitStream+0x214>
   1db06:	e0d4      	b.n	1dcb2 <QRinput_encodeBitStream+0x3be>
   1db08:	68a3      	ldr	r3, [r4, #8]
   1db0a:	006d      	lsls	r5, r5, #1
   1db0c:	5ceb      	ldrb	r3, [r5, r3]
   1db0e:	b25a      	sxtb	r2, r3
   1db10:	2a00      	cmp	r2, #0
   1db12:	db02      	blt.n	1db1a <QRinput_encodeBitStream+0x226>
   1db14:	4a6e      	ldr	r2, [pc, #440]	; (1dcd0 <QRinput_encodeBitStream+0x3dc>)
   1db16:	56d2      	ldrsb	r2, [r2, r3]
   1db18:	e001      	b.n	1db1e <QRinput_encodeBitStream+0x22a>
   1db1a:	2201      	movs	r2, #1
   1db1c:	4252      	negs	r2, r2
   1db1e:	2106      	movs	r1, #6
   1db20:	e0b5      	b.n	1dc8e <QRinput_encodeBitStream+0x39a>
   1db22:	2e00      	cmp	r6, #0
   1db24:	d018      	beq.n	1db58 <QRinput_encodeBitStream+0x264>
   1db26:	2d02      	cmp	r5, #2
   1db28:	dd6d      	ble.n	1dc06 <QRinput_encodeBitStream+0x312>
   1db2a:	1e69      	subs	r1, r5, #1
   1db2c:	2202      	movs	r2, #2
   1db2e:	0038      	movs	r0, r7
   1db30:	f001 fcfb 	bl	1f52a <BitStream_appendNum>
   1db34:	2800      	cmp	r0, #0
   1db36:	da00      	bge.n	1db3a <QRinput_encodeBitStream+0x246>
   1db38:	e0c6      	b.n	1dcc8 <QRinput_encodeBitStream+0x3d4>
   1db3a:	0029      	movs	r1, r5
   1db3c:	2002      	movs	r0, #2
   1db3e:	f001 fc49 	bl	1f3d4 <MQRspec_lengthIndicator>
   1db42:	0001      	movs	r1, r0
   1db44:	6862      	ldr	r2, [r4, #4]
   1db46:	0038      	movs	r0, r7
   1db48:	f001 fcef 	bl	1f52a <BitStream_appendNum>
   1db4c:	2800      	cmp	r0, #0
   1db4e:	da00      	bge.n	1db52 <QRinput_encodeBitStream+0x25e>
   1db50:	e0ba      	b.n	1dcc8 <QRinput_encodeBitStream+0x3d4>
   1db52:	68a2      	ldr	r2, [r4, #8]
   1db54:	6861      	ldr	r1, [r4, #4]
   1db56:	e0a7      	b.n	1dca8 <QRinput_encodeBitStream+0x3b4>
   1db58:	2204      	movs	r2, #4
   1db5a:	0038      	movs	r0, r7
   1db5c:	0011      	movs	r1, r2
   1db5e:	f001 fce4 	bl	1f52a <BitStream_appendNum>
   1db62:	2800      	cmp	r0, #0
   1db64:	da00      	bge.n	1db68 <QRinput_encodeBitStream+0x274>
   1db66:	e0af      	b.n	1dcc8 <QRinput_encodeBitStream+0x3d4>
   1db68:	0029      	movs	r1, r5
   1db6a:	2002      	movs	r0, #2
   1db6c:	f000 fda6 	bl	1e6bc <QRspec_lengthIndicator>
   1db70:	e7e7      	b.n	1db42 <QRinput_encodeBitStream+0x24e>
   1db72:	2e00      	cmp	r6, #0
   1db74:	d01b      	beq.n	1dbae <QRinput_encodeBitStream+0x2ba>
   1db76:	2d01      	cmp	r5, #1
   1db78:	dd45      	ble.n	1dc06 <QRinput_encodeBitStream+0x312>
   1db7a:	1e69      	subs	r1, r5, #1
   1db7c:	2203      	movs	r2, #3
   1db7e:	0038      	movs	r0, r7
   1db80:	f001 fcd3 	bl	1f52a <BitStream_appendNum>
   1db84:	2800      	cmp	r0, #0
   1db86:	da00      	bge.n	1db8a <QRinput_encodeBitStream+0x296>
   1db88:	e09e      	b.n	1dcc8 <QRinput_encodeBitStream+0x3d4>
   1db8a:	0029      	movs	r1, r5
   1db8c:	2003      	movs	r0, #3
   1db8e:	f001 fc21 	bl	1f3d4 <MQRspec_lengthIndicator>
   1db92:	6863      	ldr	r3, [r4, #4]
   1db94:	0001      	movs	r1, r0
   1db96:	0fda      	lsrs	r2, r3, #31
   1db98:	18d2      	adds	r2, r2, r3
   1db9a:	1052      	asrs	r2, r2, #1
   1db9c:	0038      	movs	r0, r7
   1db9e:	f001 fcc4 	bl	1f52a <BitStream_appendNum>
   1dba2:	2800      	cmp	r0, #0
   1dba4:	da00      	bge.n	1dba8 <QRinput_encodeBitStream+0x2b4>
   1dba6:	e08f      	b.n	1dcc8 <QRinput_encodeBitStream+0x3d4>
   1dba8:	2500      	movs	r5, #0
   1dbaa:	26ff      	movs	r6, #255	; 0xff
   1dbac:	e025      	b.n	1dbfa <QRinput_encodeBitStream+0x306>
   1dbae:	2208      	movs	r2, #8
   1dbb0:	2104      	movs	r1, #4
   1dbb2:	0038      	movs	r0, r7
   1dbb4:	f001 fcb9 	bl	1f52a <BitStream_appendNum>
   1dbb8:	2800      	cmp	r0, #0
   1dbba:	da00      	bge.n	1dbbe <QRinput_encodeBitStream+0x2ca>
   1dbbc:	e084      	b.n	1dcc8 <QRinput_encodeBitStream+0x3d4>
   1dbbe:	0029      	movs	r1, r5
   1dbc0:	2003      	movs	r0, #3
   1dbc2:	f000 fd7b 	bl	1e6bc <QRspec_lengthIndicator>
   1dbc6:	e7e4      	b.n	1db92 <QRinput_encodeBitStream+0x29e>
   1dbc8:	68a3      	ldr	r3, [r4, #8]
   1dbca:	4942      	ldr	r1, [pc, #264]	; (1dcd4 <QRinput_encodeBitStream+0x3e0>)
   1dbcc:	5d5a      	ldrb	r2, [r3, r5]
   1dbce:	195b      	adds	r3, r3, r5
   1dbd0:	785b      	ldrb	r3, [r3, #1]
   1dbd2:	0212      	lsls	r2, r2, #8
   1dbd4:	431a      	orrs	r2, r3
   1dbd6:	4b40      	ldr	r3, [pc, #256]	; (1dcd8 <QRinput_encodeBitStream+0x3e4>)
   1dbd8:	18d3      	adds	r3, r2, r3
   1dbda:	428a      	cmp	r2, r1
   1dbdc:	d801      	bhi.n	1dbe2 <QRinput_encodeBitStream+0x2ee>
   1dbde:	4b3f      	ldr	r3, [pc, #252]	; (1dcdc <QRinput_encodeBitStream+0x3e8>)
   1dbe0:	18d3      	adds	r3, r2, r3
   1dbe2:	21c0      	movs	r1, #192	; 0xc0
   1dbe4:	0a1a      	lsrs	r2, r3, #8
   1dbe6:	434a      	muls	r2, r1
   1dbe8:	4033      	ands	r3, r6
   1dbea:	18d2      	adds	r2, r2, r3
   1dbec:	39b3      	subs	r1, #179	; 0xb3
   1dbee:	0038      	movs	r0, r7
   1dbf0:	f001 fc9b 	bl	1f52a <BitStream_appendNum>
   1dbf4:	2800      	cmp	r0, #0
   1dbf6:	db67      	blt.n	1dcc8 <QRinput_encodeBitStream+0x3d4>
   1dbf8:	3502      	adds	r5, #2
   1dbfa:	6863      	ldr	r3, [r4, #4]
   1dbfc:	429d      	cmp	r5, r3
   1dbfe:	dbe3      	blt.n	1dbc8 <QRinput_encodeBitStream+0x2d4>
   1dc00:	e057      	b.n	1dcb2 <QRinput_encodeBitStream+0x3be>
   1dc02:	2e00      	cmp	r6, #0
   1dc04:	d004      	beq.n	1dc10 <QRinput_encodeBitStream+0x31c>
   1dc06:	f001 ff09 	bl	1fa1c <__errno>
   1dc0a:	2316      	movs	r3, #22
   1dc0c:	6003      	str	r3, [r0, #0]
   1dc0e:	e05b      	b.n	1dcc8 <QRinput_encodeBitStream+0x3d4>
   1dc10:	2203      	movs	r2, #3
   1dc12:	2104      	movs	r1, #4
   1dc14:	0038      	movs	r0, r7
   1dc16:	f001 fc88 	bl	1f52a <BitStream_appendNum>
   1dc1a:	2800      	cmp	r0, #0
   1dc1c:	db54      	blt.n	1dcc8 <QRinput_encodeBitStream+0x3d4>
   1dc1e:	68a3      	ldr	r3, [r4, #8]
   1dc20:	2104      	movs	r1, #4
   1dc22:	785a      	ldrb	r2, [r3, #1]
   1dc24:	0038      	movs	r0, r7
   1dc26:	3a01      	subs	r2, #1
   1dc28:	f001 fc7f 	bl	1f52a <BitStream_appendNum>
   1dc2c:	2800      	cmp	r0, #0
   1dc2e:	db4b      	blt.n	1dcc8 <QRinput_encodeBitStream+0x3d4>
   1dc30:	68a3      	ldr	r3, [r4, #8]
   1dc32:	2104      	movs	r1, #4
   1dc34:	781a      	ldrb	r2, [r3, #0]
   1dc36:	0038      	movs	r0, r7
   1dc38:	3a01      	subs	r2, #1
   1dc3a:	f001 fc76 	bl	1f52a <BitStream_appendNum>
   1dc3e:	2800      	cmp	r0, #0
   1dc40:	db42      	blt.n	1dcc8 <QRinput_encodeBitStream+0x3d4>
   1dc42:	68a3      	ldr	r3, [r4, #8]
   1dc44:	2108      	movs	r1, #8
   1dc46:	789a      	ldrb	r2, [r3, #2]
   1dc48:	e021      	b.n	1dc8e <QRinput_encodeBitStream+0x39a>
   1dc4a:	68a2      	ldr	r2, [r4, #8]
   1dc4c:	2400      	movs	r4, #0
   1dc4e:	1cd3      	adds	r3, r2, #3
   1dc50:	3a01      	subs	r2, #1
   1dc52:	7819      	ldrb	r1, [r3, #0]
   1dc54:	0224      	lsls	r4, r4, #8
   1dc56:	3b01      	subs	r3, #1
   1dc58:	430c      	orrs	r4, r1
   1dc5a:	429a      	cmp	r2, r3
   1dc5c:	d1f9      	bne.n	1dc52 <QRinput_encodeBitStream+0x35e>
   1dc5e:	2501      	movs	r5, #1
   1dc60:	2c7f      	cmp	r4, #127	; 0x7f
   1dc62:	d90b      	bls.n	1dc7c <QRinput_encodeBitStream+0x388>
   1dc64:	4b1e      	ldr	r3, [pc, #120]	; (1dce0 <QRinput_encodeBitStream+0x3ec>)
   1dc66:	429c      	cmp	r4, r3
   1dc68:	d804      	bhi.n	1dc74 <QRinput_encodeBitStream+0x380>
   1dc6a:	2380      	movs	r3, #128	; 0x80
   1dc6c:	021b      	lsls	r3, r3, #8
   1dc6e:	18e4      	adds	r4, r4, r3
   1dc70:	196d      	adds	r5, r5, r5
   1dc72:	e003      	b.n	1dc7c <QRinput_encodeBitStream+0x388>
   1dc74:	23c0      	movs	r3, #192	; 0xc0
   1dc76:	2503      	movs	r5, #3
   1dc78:	031b      	lsls	r3, r3, #12
   1dc7a:	18e4      	adds	r4, r4, r3
   1dc7c:	2207      	movs	r2, #7
   1dc7e:	2104      	movs	r1, #4
   1dc80:	0038      	movs	r0, r7
   1dc82:	f001 fc52 	bl	1f52a <BitStream_appendNum>
   1dc86:	2800      	cmp	r0, #0
   1dc88:	db1e      	blt.n	1dcc8 <QRinput_encodeBitStream+0x3d4>
   1dc8a:	0022      	movs	r2, r4
   1dc8c:	00e9      	lsls	r1, r5, #3
   1dc8e:	0038      	movs	r0, r7
   1dc90:	f001 fc4b 	bl	1f52a <BitStream_appendNum>
   1dc94:	e00b      	b.n	1dcae <QRinput_encodeBitStream+0x3ba>
   1dc96:	2209      	movs	r2, #9
   1dc98:	2104      	movs	r1, #4
   1dc9a:	0038      	movs	r0, r7
   1dc9c:	f001 fc45 	bl	1f52a <BitStream_appendNum>
   1dca0:	2800      	cmp	r0, #0
   1dca2:	db11      	blt.n	1dcc8 <QRinput_encodeBitStream+0x3d4>
   1dca4:	2101      	movs	r1, #1
   1dca6:	68a2      	ldr	r2, [r4, #8]
   1dca8:	0038      	movs	r0, r7
   1dcaa:	f001 fc68 	bl	1f57e <BitStream_appendBytes>
   1dcae:	2800      	cmp	r0, #0
   1dcb0:	db0a      	blt.n	1dcc8 <QRinput_encodeBitStream+0x3d4>
   1dcb2:	6838      	ldr	r0, [r7, #0]
   1dcb4:	9b03      	ldr	r3, [sp, #12]
   1dcb6:	1ac0      	subs	r0, r0, r3
   1dcb8:	e008      	b.n	1dccc <QRinput_encodeBitStream+0x3d8>
   1dcba:	2400      	movs	r4, #0
   1dcbc:	9802      	ldr	r0, [sp, #8]
   1dcbe:	f7ff fcab 	bl	1d618 <QRinput_List_freeEntry>
   1dcc2:	0020      	movs	r0, r4
   1dcc4:	f7ff fca8 	bl	1d618 <QRinput_List_freeEntry>
   1dcc8:	2001      	movs	r0, #1
   1dcca:	4240      	negs	r0, r0
   1dccc:	b005      	add	sp, #20
   1dcce:	bdf0      	pop	{r4, r5, r6, r7, pc}
   1dcd0:	fd9c 0001 	ldc2	0, cr0, [ip, #4]
   1dcd4:	9ffc      	ldr	r7, [sp, #1008]	; 0x3f0
   1dcd6:	0000      	movs	r0, r0
   1dcd8:	3ec0      	subs	r6, #192	; 0xc0
   1dcda:	ffff 7ec0 	vqrdmlah.s<illegal width 64>	<illegal reg q11.5>, <illegal reg q15.5>, d0[0]
   1dcde:	ffff 3fff 			; <UNDEFINED> instruction: 0xffff3fff
	...

0001dce4 <QRinput_createBitStream>:
   1dce4:	b5f8      	push	{r3, r4, r5, r6, r7, lr}
   1dce6:	0006      	movs	r6, r0
   1dce8:	000f      	movs	r7, r1
   1dcea:	2400      	movs	r4, #0
   1dcec:	6885      	ldr	r5, [r0, #8]
   1dcee:	2d00      	cmp	r5, #0
   1dcf0:	d00a      	beq.n	1dd08 <QRinput_createBitStream+0x24>
   1dcf2:	6933      	ldr	r3, [r6, #16]
   1dcf4:	6832      	ldr	r2, [r6, #0]
   1dcf6:	0039      	movs	r1, r7
   1dcf8:	0028      	movs	r0, r5
   1dcfa:	f7ff fdfb 	bl	1d8f4 <QRinput_encodeBitStream>
   1dcfe:	2800      	cmp	r0, #0
   1dd00:	db04      	blt.n	1dd0c <QRinput_createBitStream+0x28>
   1dd02:	1824      	adds	r4, r4, r0
   1dd04:	692d      	ldr	r5, [r5, #16]
   1dd06:	e7f2      	b.n	1dcee <QRinput_createBitStream+0xa>
   1dd08:	0020      	movs	r0, r4
   1dd0a:	e001      	b.n	1dd10 <QRinput_createBitStream+0x2c>
   1dd0c:	2001      	movs	r0, #1
   1dd0e:	4240      	negs	r0, r0
   1dd10:	bdf8      	pop	{r3, r4, r5, r6, r7, pc}

0001dd12 <QRinput_estimateBitStreamSize>:
   1dd12:	b5f8      	push	{r3, r4, r5, r6, r7, lr}
   1dd14:	0006      	movs	r6, r0
   1dd16:	000f      	movs	r7, r1
   1dd18:	2500      	movs	r5, #0
   1dd1a:	6884      	ldr	r4, [r0, #8]
   1dd1c:	2c00      	cmp	r4, #0
   1dd1e:	d007      	beq.n	1dd30 <QRinput_estimateBitStreamSize+0x1e>
   1dd20:	0020      	movs	r0, r4
   1dd22:	6932      	ldr	r2, [r6, #16]
   1dd24:	0039      	movs	r1, r7
   1dd26:	f7ff fcf9 	bl	1d71c <QRinput_estimateBitStreamSizeOfEntry>
   1dd2a:	6924      	ldr	r4, [r4, #16]
   1dd2c:	182d      	adds	r5, r5, r0
   1dd2e:	e7f5      	b.n	1dd1c <QRinput_estimateBitStreamSize+0xa>
   1dd30:	0028      	movs	r0, r5
   1dd32:	bdf8      	pop	{r3, r4, r5, r6, r7, pc}

0001dd34 <QRinput_mergeBitStream>:
   1dd34:	b5f8      	push	{r3, r4, r5, r6, r7, lr}
   1dd36:	6905      	ldr	r5, [r0, #16]
   1dd38:	0004      	movs	r4, r0
   1dd3a:	000f      	movs	r7, r1
   1dd3c:	2d00      	cmp	r5, #0
   1dd3e:	d003      	beq.n	1dd48 <QRinput_mergeBitStream+0x14>
   1dd40:	f7ff ffd0 	bl	1dce4 <QRinput_createBitStream>
   1dd44:	17c5      	asrs	r5, r0, #31
   1dd46:	e04c      	b.n	1dde2 <QRinput_mergeBitStream+0xae>
   1dd48:	6943      	ldr	r3, [r0, #20]
   1dd4a:	2b00      	cmp	r3, #0
   1dd4c:	d029      	beq.n	1dda2 <QRinput_mergeBitStream+0x6e>
   1dd4e:	2b01      	cmp	r3, #1
   1dd50:	d103      	bne.n	1dd5a <QRinput_mergeBitStream+0x26>
   1dd52:	002a      	movs	r2, r5
   1dd54:	0029      	movs	r1, r5
   1dd56:	2006      	movs	r0, #6
   1dd58:	e005      	b.n	1dd66 <QRinput_mergeBitStream+0x32>
   1dd5a:	2b02      	cmp	r3, #2
   1dd5c:	d11e      	bne.n	1dd9c <QRinput_mergeBitStream+0x68>
   1dd5e:	0002      	movs	r2, r0
   1dd60:	2101      	movs	r1, #1
   1dd62:	2007      	movs	r0, #7
   1dd64:	3218      	adds	r2, #24
   1dd66:	f7ff fd83 	bl	1d870 <QRinput_List_newEntry>
   1dd6a:	2800      	cmp	r0, #0
   1dd6c:	d016      	beq.n	1dd9c <QRinput_mergeBitStream+0x68>
   1dd6e:	68a3      	ldr	r3, [r4, #8]
   1dd70:	781a      	ldrb	r2, [r3, #0]
   1dd72:	3a04      	subs	r2, #4
   1dd74:	2a01      	cmp	r2, #1
   1dd76:	d902      	bls.n	1dd7e <QRinput_mergeBitStream+0x4a>
   1dd78:	6103      	str	r3, [r0, #16]
   1dd7a:	60a0      	str	r0, [r4, #8]
   1dd7c:	e011      	b.n	1dda2 <QRinput_mergeBitStream+0x6e>
   1dd7e:	691a      	ldr	r2, [r3, #16]
   1dd80:	6102      	str	r2, [r0, #16]
   1dd82:	6118      	str	r0, [r3, #16]
   1dd84:	e00d      	b.n	1dda2 <QRinput_mergeBitStream+0x6e>
   1dd86:	6823      	ldr	r3, [r4, #0]
   1dd88:	4283      	cmp	r3, r0
   1dd8a:	db26      	blt.n	1ddda <QRinput_mergeBitStream+0xa6>
   1dd8c:	2300      	movs	r3, #0
   1dd8e:	0039      	movs	r1, r7
   1dd90:	603b      	str	r3, [r7, #0]
   1dd92:	0020      	movs	r0, r4
   1dd94:	f7ff ffa6 	bl	1dce4 <QRinput_createBitStream>
   1dd98:	2800      	cmp	r0, #0
   1dd9a:	da15      	bge.n	1ddc8 <QRinput_mergeBitStream+0x94>
   1dd9c:	2501      	movs	r5, #1
   1dd9e:	426d      	negs	r5, r5
   1dda0:	e01f      	b.n	1dde2 <QRinput_mergeBitStream+0xae>
   1dda2:	2600      	movs	r6, #0
   1dda4:	0031      	movs	r1, r6
   1dda6:	0020      	movs	r0, r4
   1dda8:	f7ff ffb3 	bl	1dd12 <QRinput_estimateBitStreamSize>
   1ddac:	2207      	movs	r2, #7
   1ddae:	3007      	adds	r0, #7
   1ddb0:	17c3      	asrs	r3, r0, #31
   1ddb2:	4013      	ands	r3, r2
   1ddb4:	1818      	adds	r0, r3, r0
   1ddb6:	7921      	ldrb	r1, [r4, #4]
   1ddb8:	10c0      	asrs	r0, r0, #3
   1ddba:	f000 fc59 	bl	1e670 <QRspec_getMinimumVersion>
   1ddbe:	0001      	movs	r1, r0
   1ddc0:	4286      	cmp	r6, r0
   1ddc2:	dae0      	bge.n	1dd86 <QRinput_mergeBitStream+0x52>
   1ddc4:	000e      	movs	r6, r1
   1ddc6:	e7ed      	b.n	1dda4 <QRinput_mergeBitStream+0x70>
   1ddc8:	3007      	adds	r0, #7
   1ddca:	7921      	ldrb	r1, [r4, #4]
   1ddcc:	10c0      	asrs	r0, r0, #3
   1ddce:	f000 fc4f 	bl	1e670 <QRspec_getMinimumVersion>
   1ddd2:	6823      	ldr	r3, [r4, #0]
   1ddd4:	1e01      	subs	r1, r0, #0
   1ddd6:	4299      	cmp	r1, r3
   1ddd8:	dd03      	ble.n	1dde2 <QRinput_mergeBitStream+0xae>
   1ddda:	0020      	movs	r0, r4
   1dddc:	f7ff fc62 	bl	1d6a4 <QRinput_setVersion>
   1dde0:	e7d4      	b.n	1dd8c <QRinput_mergeBitStream+0x58>
   1dde2:	0028      	movs	r0, r5
   1dde4:	bdf8      	pop	{r3, r4, r5, r6, r7, pc}

0001dde6 <QRinput_getBitStream>:
   1dde6:	b5f7      	push	{r0, r1, r2, r4, r5, r6, r7, lr}
   1dde8:	0007      	movs	r7, r0
   1ddea:	000e      	movs	r6, r1
   1ddec:	f7ff ffa2 	bl	1dd34 <QRinput_mergeBitStream>
   1ddf0:	2800      	cmp	r0, #0
   1ddf2:	da00      	bge.n	1ddf6 <QRinput_getBitStream+0x10>
   1ddf4:	e084      	b.n	1df00 <QRinput_getBitStream+0x11a>
   1ddf6:	693d      	ldr	r5, [r7, #16]
   1ddf8:	6834      	ldr	r4, [r6, #0]
   1ddfa:	7939      	ldrb	r1, [r7, #4]
   1ddfc:	6838      	ldr	r0, [r7, #0]
   1ddfe:	2d00      	cmp	r5, #0
   1de00:	d045      	beq.n	1de8e <QRinput_getBitStream+0xa8>
   1de02:	f001 fab3 	bl	1f36c <MQRspec_getDataLengthBit>
   1de06:	0005      	movs	r5, r0
   1de08:	4284      	cmp	r4, r0
   1de0a:	dc46      	bgt.n	1de9a <QRinput_getBitStream+0xb4>
   1de0c:	d07b      	beq.n	1df06 <QRinput_getBitStream+0x120>
   1de0e:	683b      	ldr	r3, [r7, #0]
   1de10:	1b01      	subs	r1, r0, r4
   1de12:	005b      	lsls	r3, r3, #1
   1de14:	3301      	adds	r3, #1
   1de16:	2200      	movs	r2, #0
   1de18:	428b      	cmp	r3, r1
   1de1a:	da49      	bge.n	1deb0 <QRinput_getBitStream+0xca>
   1de1c:	17c7      	asrs	r7, r0, #31
   1de1e:	2007      	movs	r0, #7
   1de20:	18e1      	adds	r1, r4, r3
   1de22:	180a      	adds	r2, r1, r0
   1de24:	17d4      	asrs	r4, r2, #31
   1de26:	4004      	ands	r4, r0
   1de28:	18a4      	adds	r4, r4, r2
   1de2a:	10e4      	asrs	r4, r4, #3
   1de2c:	4007      	ands	r7, r0
   1de2e:	00e2      	lsls	r2, r4, #3
   1de30:	197f      	adds	r7, r7, r5
   1de32:	1aa8      	subs	r0, r5, r2
   1de34:	1a52      	subs	r2, r2, r1
   1de36:	10ff      	asrs	r7, r7, #3
   1de38:	18d1      	adds	r1, r2, r3
   1de3a:	2800      	cmp	r0, #0
   1de3c:	dd02      	ble.n	1de44 <QRinput_getBitStream+0x5e>
   1de3e:	42a7      	cmp	r7, r4
   1de40:	d100      	bne.n	1de44 <QRinput_getBitStream+0x5e>
   1de42:	1809      	adds	r1, r1, r0
   1de44:	2200      	movs	r2, #0
   1de46:	0030      	movs	r0, r6
   1de48:	f001 fb6f 	bl	1f52a <BitStream_appendNum>
   1de4c:	2800      	cmp	r0, #0
   1de4e:	db57      	blt.n	1df00 <QRinput_getBitStream+0x11a>
   1de50:	1b3b      	subs	r3, r7, r4
   1de52:	9301      	str	r3, [sp, #4]
   1de54:	2b00      	cmp	r3, #0
   1de56:	dd56      	ble.n	1df06 <QRinput_getBitStream+0x120>
   1de58:	2400      	movs	r4, #0
   1de5a:	2301      	movs	r3, #1
   1de5c:	2211      	movs	r2, #17
   1de5e:	421c      	tst	r4, r3
   1de60:	d100      	bne.n	1de64 <QRinput_getBitStream+0x7e>
   1de62:	32db      	adds	r2, #219	; 0xdb
   1de64:	2108      	movs	r1, #8
   1de66:	0030      	movs	r0, r6
   1de68:	f001 fb5f 	bl	1f52a <BitStream_appendNum>
   1de6c:	2800      	cmp	r0, #0
   1de6e:	db47      	blt.n	1df00 <QRinput_getBitStream+0x11a>
   1de70:	9b01      	ldr	r3, [sp, #4]
   1de72:	3401      	adds	r4, #1
   1de74:	42a3      	cmp	r3, r4
   1de76:	d1f0      	bne.n	1de5a <QRinput_getBitStream+0x74>
   1de78:	00ff      	lsls	r7, r7, #3
   1de7a:	1be9      	subs	r1, r5, r7
   1de7c:	2900      	cmp	r1, #0
   1de7e:	dd42      	ble.n	1df06 <QRinput_getBitStream+0x120>
   1de80:	2200      	movs	r2, #0
   1de82:	0030      	movs	r0, r6
   1de84:	f001 fb51 	bl	1f52a <BitStream_appendNum>
   1de88:	2800      	cmp	r0, #0
   1de8a:	da3c      	bge.n	1df06 <QRinput_getBitStream+0x120>
   1de8c:	e038      	b.n	1df00 <QRinput_getBitStream+0x11a>
   1de8e:	f000 fbdd 	bl	1e64c <QRspec_getDataLength>
   1de92:	0007      	movs	r7, r0
   1de94:	00c1      	lsls	r1, r0, #3
   1de96:	428c      	cmp	r4, r1
   1de98:	dd04      	ble.n	1dea4 <QRinput_getBitStream+0xbe>
   1de9a:	f001 fdbf 	bl	1fa1c <__errno>
   1de9e:	2322      	movs	r3, #34	; 0x22
   1dea0:	6003      	str	r3, [r0, #0]
   1dea2:	e02d      	b.n	1df00 <QRinput_getBitStream+0x11a>
   1dea4:	428c      	cmp	r4, r1
   1dea6:	d02e      	beq.n	1df06 <QRinput_getBitStream+0x120>
   1dea8:	1b09      	subs	r1, r1, r4
   1deaa:	2904      	cmp	r1, #4
   1deac:	dc05      	bgt.n	1deba <QRinput_getBitStream+0xd4>
   1deae:	002a      	movs	r2, r5
   1deb0:	0030      	movs	r0, r6
   1deb2:	f001 fb3a 	bl	1f52a <BitStream_appendNum>
   1deb6:	17c0      	asrs	r0, r0, #31
   1deb8:	e026      	b.n	1df08 <QRinput_getBitStream+0x122>
   1deba:	0023      	movs	r3, r4
   1debc:	2207      	movs	r2, #7
   1debe:	330b      	adds	r3, #11
   1dec0:	17d9      	asrs	r1, r3, #31
   1dec2:	400a      	ands	r2, r1
   1dec4:	18d3      	adds	r3, r2, r3
   1dec6:	10db      	asrs	r3, r3, #3
   1dec8:	00d9      	lsls	r1, r3, #3
   1deca:	1b09      	subs	r1, r1, r4
   1decc:	002a      	movs	r2, r5
   1dece:	0030      	movs	r0, r6
   1ded0:	9301      	str	r3, [sp, #4]
   1ded2:	f001 fb2a 	bl	1f52a <BitStream_appendNum>
   1ded6:	2800      	cmp	r0, #0
   1ded8:	db12      	blt.n	1df00 <QRinput_getBitStream+0x11a>
   1deda:	9b01      	ldr	r3, [sp, #4]
   1dedc:	1aff      	subs	r7, r7, r3
   1dede:	2f00      	cmp	r7, #0
   1dee0:	dd11      	ble.n	1df06 <QRinput_getBitStream+0x120>
   1dee2:	2401      	movs	r4, #1
   1dee4:	2211      	movs	r2, #17
   1dee6:	4225      	tst	r5, r4
   1dee8:	d100      	bne.n	1deec <QRinput_getBitStream+0x106>
   1deea:	32db      	adds	r2, #219	; 0xdb
   1deec:	2108      	movs	r1, #8
   1deee:	0030      	movs	r0, r6
   1def0:	f001 fb1b 	bl	1f52a <BitStream_appendNum>
   1def4:	2800      	cmp	r0, #0
   1def6:	db03      	blt.n	1df00 <QRinput_getBitStream+0x11a>
   1def8:	3501      	adds	r5, #1
   1defa:	42af      	cmp	r7, r5
   1defc:	d1f2      	bne.n	1dee4 <QRinput_getBitStream+0xfe>
   1defe:	e002      	b.n	1df06 <QRinput_getBitStream+0x120>
   1df00:	2001      	movs	r0, #1
   1df02:	4240      	negs	r0, r0
   1df04:	e000      	b.n	1df08 <QRinput_getBitStream+0x122>
   1df06:	2000      	movs	r0, #0
   1df08:	bdfe      	pop	{r1, r2, r3, r4, r5, r6, r7, pc}

0001df0a <QRinput_getByteStream>:
   1df0a:	b570      	push	{r4, r5, r6, lr}
   1df0c:	0005      	movs	r5, r0
   1df0e:	f001 faf5 	bl	1f4fc <BitStream_new>
   1df12:	1e04      	subs	r4, r0, #0
   1df14:	d012      	beq.n	1df3c <QRinput_getByteStream+0x32>
   1df16:	0001      	movs	r1, r0
   1df18:	0028      	movs	r0, r5
   1df1a:	f7ff ff64 	bl	1dde6 <QRinput_getBitStream>
   1df1e:	2800      	cmp	r0, #0
   1df20:	da04      	bge.n	1df2c <QRinput_getByteStream+0x22>
   1df22:	0020      	movs	r0, r4
   1df24:	f001 fb9e 	bl	1f664 <BitStream_free>
   1df28:	2000      	movs	r0, #0
   1df2a:	e007      	b.n	1df3c <QRinput_getByteStream+0x32>
   1df2c:	0020      	movs	r0, r4
   1df2e:	f001 fb56 	bl	1f5de <BitStream_toByte>
   1df32:	0005      	movs	r5, r0
   1df34:	0020      	movs	r0, r4
   1df36:	f001 fb95 	bl	1f664 <BitStream_free>
   1df3a:	0028      	movs	r0, r5
   1df3c:	bd70      	pop	{r4, r5, r6, pc}

0001df3e <Mask_mask0>:
   1df3e:	b5f7      	push	{r0, r1, r2, r4, r5, r6, r7, lr}
   1df40:	0005      	movs	r5, r0
   1df42:	2000      	movs	r0, #0
   1df44:	43eb      	mvns	r3, r5
   1df46:	0004      	movs	r4, r0
   1df48:	2701      	movs	r7, #1
   1df4a:	17db      	asrs	r3, r3, #31
   1df4c:	9100      	str	r1, [sp, #0]
   1df4e:	9301      	str	r3, [sp, #4]
   1df50:	42ac      	cmp	r4, r5
   1df52:	da1d      	bge.n	1df90 <Mask_mask0+0x52>
   1df54:	2300      	movs	r3, #0
   1df56:	42ab      	cmp	r3, r5
   1df58:	da12      	bge.n	1df80 <Mask_mask0+0x42>
   1df5a:	9900      	ldr	r1, [sp, #0]
   1df5c:	5cce      	ldrb	r6, [r1, r3]
   1df5e:	b271      	sxtb	r1, r6
   1df60:	468c      	mov	ip, r1
   1df62:	2900      	cmp	r1, #0
   1df64:	db06      	blt.n	1df74 <Mask_mask0+0x36>
   1df66:	0039      	movs	r1, r7
   1df68:	18e6      	adds	r6, r4, r3
   1df6a:	43b1      	bics	r1, r6
   1df6c:	000e      	movs	r6, r1
   1df6e:	4661      	mov	r1, ip
   1df70:	4071      	eors	r1, r6
   1df72:	000e      	movs	r6, r1
   1df74:	54d6      	strb	r6, [r2, r3]
   1df76:	5cd6      	ldrb	r6, [r2, r3]
   1df78:	3301      	adds	r3, #1
   1df7a:	403e      	ands	r6, r7
   1df7c:	1980      	adds	r0, r0, r6
   1df7e:	e7ea      	b.n	1df56 <Mask_mask0+0x18>
   1df80:	9b01      	ldr	r3, [sp, #4]
   1df82:	9900      	ldr	r1, [sp, #0]
   1df84:	402b      	ands	r3, r5
   1df86:	18c9      	adds	r1, r1, r3
   1df88:	9100      	str	r1, [sp, #0]
   1df8a:	18d2      	adds	r2, r2, r3
   1df8c:	3401      	adds	r4, #1
   1df8e:	e7df      	b.n	1df50 <Mask_mask0+0x12>
   1df90:	bdfe      	pop	{r1, r2, r3, r4, r5, r6, r7, pc}

0001df92 <Mask_mask1>:
   1df92:	b5f0      	push	{r4, r5, r6, r7, lr}
   1df94:	0005      	movs	r5, r0
   1df96:	2000      	movs	r0, #0
   1df98:	43eb      	mvns	r3, r5
   1df9a:	0004      	movs	r4, r0
   1df9c:	b085      	sub	sp, #20
   1df9e:	17db      	asrs	r3, r3, #31
   1dfa0:	9302      	str	r3, [sp, #8]
   1dfa2:	42ac      	cmp	r4, r5
   1dfa4:	da1e      	bge.n	1dfe4 <Mask_mask1+0x52>
   1dfa6:	2601      	movs	r6, #1
   1dfa8:	2300      	movs	r3, #0
   1dfaa:	43a6      	bics	r6, r4
   1dfac:	9601      	str	r6, [sp, #4]
   1dfae:	42ab      	cmp	r3, r5
   1dfb0:	da12      	bge.n	1dfd8 <Mask_mask1+0x46>
   1dfb2:	466f      	mov	r7, sp
   1dfb4:	5cce      	ldrb	r6, [r1, r3]
   1dfb6:	73fe      	strb	r6, [r7, #15]
   1dfb8:	46b4      	mov	ip, r6
   1dfba:	7bfe      	ldrb	r6, [r7, #15]
   1dfbc:	b276      	sxtb	r6, r6
   1dfbe:	2e00      	cmp	r6, #0
   1dfc0:	da01      	bge.n	1dfc6 <Mask_mask1+0x34>
   1dfc2:	4666      	mov	r6, ip
   1dfc4:	e001      	b.n	1dfca <Mask_mask1+0x38>
   1dfc6:	9f01      	ldr	r7, [sp, #4]
   1dfc8:	407e      	eors	r6, r7
   1dfca:	2701      	movs	r7, #1
   1dfcc:	54d6      	strb	r6, [r2, r3]
   1dfce:	5cd6      	ldrb	r6, [r2, r3]
   1dfd0:	19db      	adds	r3, r3, r7
   1dfd2:	403e      	ands	r6, r7
   1dfd4:	1980      	adds	r0, r0, r6
   1dfd6:	e7ea      	b.n	1dfae <Mask_mask1+0x1c>
   1dfd8:	9b02      	ldr	r3, [sp, #8]
   1dfda:	3401      	adds	r4, #1
   1dfdc:	402b      	ands	r3, r5
   1dfde:	18c9      	adds	r1, r1, r3
   1dfe0:	18d2      	adds	r2, r2, r3
   1dfe2:	e7de      	b.n	1dfa2 <Mask_mask1+0x10>
   1dfe4:	b005      	add	sp, #20
   1dfe6:	bdf0      	pop	{r4, r5, r6, r7, pc}

0001dfe8 <Mask_mask2>:
   1dfe8:	43c3      	mvns	r3, r0
   1dfea:	b5f0      	push	{r4, r5, r6, r7, lr}
   1dfec:	2600      	movs	r6, #0
   1dfee:	0007      	movs	r7, r0
   1dff0:	0015      	movs	r5, r2
   1dff2:	b085      	sub	sp, #20
   1dff4:	17db      	asrs	r3, r3, #31
   1dff6:	9101      	str	r1, [sp, #4]
   1dff8:	9600      	str	r6, [sp, #0]
   1dffa:	9303      	str	r3, [sp, #12]
   1dffc:	9b00      	ldr	r3, [sp, #0]
   1dffe:	42bb      	cmp	r3, r7
   1e000:	da23      	bge.n	1e04a <Mask_mask2+0x62>
   1e002:	2400      	movs	r4, #0
   1e004:	42bc      	cmp	r4, r7
   1e006:	da16      	bge.n	1e036 <Mask_mask2+0x4e>
   1e008:	9b01      	ldr	r3, [sp, #4]
   1e00a:	5d1b      	ldrb	r3, [r3, r4]
   1e00c:	b25a      	sxtb	r2, r3
   1e00e:	9202      	str	r2, [sp, #8]
   1e010:	2a00      	cmp	r2, #0
   1e012:	da01      	bge.n	1e018 <Mask_mask2+0x30>
   1e014:	552b      	strb	r3, [r5, r4]
   1e016:	e008      	b.n	1e02a <Mask_mask2+0x42>
   1e018:	2103      	movs	r1, #3
   1e01a:	0020      	movs	r0, r4
   1e01c:	f001 fcee 	bl	1f9fc <__aeabi_idivmod>
   1e020:	424b      	negs	r3, r1
   1e022:	4159      	adcs	r1, r3
   1e024:	9b02      	ldr	r3, [sp, #8]
   1e026:	404b      	eors	r3, r1
   1e028:	552b      	strb	r3, [r5, r4]
   1e02a:	2201      	movs	r2, #1
   1e02c:	5d2b      	ldrb	r3, [r5, r4]
   1e02e:	18a4      	adds	r4, r4, r2
   1e030:	4013      	ands	r3, r2
   1e032:	18f6      	adds	r6, r6, r3
   1e034:	e7e6      	b.n	1e004 <Mask_mask2+0x1c>
   1e036:	9b03      	ldr	r3, [sp, #12]
   1e038:	9a01      	ldr	r2, [sp, #4]
   1e03a:	403b      	ands	r3, r7
   1e03c:	18d2      	adds	r2, r2, r3
   1e03e:	18ed      	adds	r5, r5, r3
   1e040:	9b00      	ldr	r3, [sp, #0]
   1e042:	9201      	str	r2, [sp, #4]
   1e044:	3301      	adds	r3, #1
   1e046:	9300      	str	r3, [sp, #0]
   1e048:	e7d8      	b.n	1dffc <Mask_mask2+0x14>
   1e04a:	0030      	movs	r0, r6
   1e04c:	b005      	add	sp, #20
   1e04e:	bdf0      	pop	{r4, r5, r6, r7, pc}

0001e050 <Mask_mask3>:
   1e050:	43c3      	mvns	r3, r0
   1e052:	b5f0      	push	{r4, r5, r6, r7, lr}
   1e054:	2600      	movs	r6, #0
   1e056:	0007      	movs	r7, r0
   1e058:	0015      	movs	r5, r2
   1e05a:	b085      	sub	sp, #20
   1e05c:	17db      	asrs	r3, r3, #31
   1e05e:	9101      	str	r1, [sp, #4]
   1e060:	9600      	str	r6, [sp, #0]
   1e062:	9303      	str	r3, [sp, #12]
   1e064:	9b00      	ldr	r3, [sp, #0]
   1e066:	42bb      	cmp	r3, r7
   1e068:	da24      	bge.n	1e0b4 <Mask_mask3+0x64>
   1e06a:	2400      	movs	r4, #0
   1e06c:	42bc      	cmp	r4, r7
   1e06e:	da17      	bge.n	1e0a0 <Mask_mask3+0x50>
   1e070:	9b01      	ldr	r3, [sp, #4]
   1e072:	5d1b      	ldrb	r3, [r3, r4]
   1e074:	b25a      	sxtb	r2, r3
   1e076:	9202      	str	r2, [sp, #8]
   1e078:	2a00      	cmp	r2, #0
   1e07a:	da01      	bge.n	1e080 <Mask_mask3+0x30>
   1e07c:	552b      	strb	r3, [r5, r4]
   1e07e:	e009      	b.n	1e094 <Mask_mask3+0x44>
   1e080:	9b00      	ldr	r3, [sp, #0]
   1e082:	2103      	movs	r1, #3
   1e084:	1918      	adds	r0, r3, r4
   1e086:	f001 fcb9 	bl	1f9fc <__aeabi_idivmod>
   1e08a:	424b      	negs	r3, r1
   1e08c:	4159      	adcs	r1, r3
   1e08e:	9b02      	ldr	r3, [sp, #8]
   1e090:	404b      	eors	r3, r1
   1e092:	552b      	strb	r3, [r5, r4]
   1e094:	2201      	movs	r2, #1
   1e096:	5d2b      	ldrb	r3, [r5, r4]
   1e098:	18a4      	adds	r4, r4, r2
   1e09a:	4013      	ands	r3, r2
   1e09c:	18f6      	adds	r6, r6, r3
   1e09e:	e7e5      	b.n	1e06c <Mask_mask3+0x1c>
   1e0a0:	9b03      	ldr	r3, [sp, #12]
   1e0a2:	9a01      	ldr	r2, [sp, #4]
   1e0a4:	403b      	ands	r3, r7
   1e0a6:	18d2      	adds	r2, r2, r3
   1e0a8:	18ed      	adds	r5, r5, r3
   1e0aa:	9b00      	ldr	r3, [sp, #0]
   1e0ac:	9201      	str	r2, [sp, #4]
   1e0ae:	3301      	adds	r3, #1
   1e0b0:	9300      	str	r3, [sp, #0]
   1e0b2:	e7d7      	b.n	1e064 <Mask_mask3+0x14>
   1e0b4:	0030      	movs	r0, r6
   1e0b6:	b005      	add	sp, #20
   1e0b8:	bdf0      	pop	{r4, r5, r6, r7, pc}

0001e0ba <Mask_mask4>:
   1e0ba:	2300      	movs	r3, #0
   1e0bc:	b5f0      	push	{r4, r5, r6, r7, lr}
   1e0be:	b087      	sub	sp, #28
   1e0c0:	9301      	str	r3, [sp, #4]
   1e0c2:	001d      	movs	r5, r3
   1e0c4:	43c3      	mvns	r3, r0
   1e0c6:	0007      	movs	r7, r0
   1e0c8:	0016      	movs	r6, r2
   1e0ca:	17db      	asrs	r3, r3, #31
   1e0cc:	9102      	str	r1, [sp, #8]
   1e0ce:	9305      	str	r3, [sp, #20]
   1e0d0:	42bd      	cmp	r5, r7
   1e0d2:	da28      	bge.n	1e126 <Mask_mask4+0x6c>
   1e0d4:	2400      	movs	r4, #0
   1e0d6:	0feb      	lsrs	r3, r5, #31
   1e0d8:	195b      	adds	r3, r3, r5
   1e0da:	105b      	asrs	r3, r3, #1
   1e0dc:	9304      	str	r3, [sp, #16]
   1e0de:	42bc      	cmp	r4, r7
   1e0e0:	da19      	bge.n	1e116 <Mask_mask4+0x5c>
   1e0e2:	9b02      	ldr	r3, [sp, #8]
   1e0e4:	5d1b      	ldrb	r3, [r3, r4]
   1e0e6:	b25a      	sxtb	r2, r3
   1e0e8:	9203      	str	r2, [sp, #12]
   1e0ea:	2a00      	cmp	r2, #0
   1e0ec:	db0a      	blt.n	1e104 <Mask_mask4+0x4a>
   1e0ee:	2103      	movs	r1, #3
   1e0f0:	0020      	movs	r0, r4
   1e0f2:	f001 fb9d 	bl	1f830 <__aeabi_idiv>
   1e0f6:	9b04      	ldr	r3, [sp, #16]
   1e0f8:	9a03      	ldr	r2, [sp, #12]
   1e0fa:	18c0      	adds	r0, r0, r3
   1e0fc:	2301      	movs	r3, #1
   1e0fe:	4383      	bics	r3, r0
   1e100:	405a      	eors	r2, r3
   1e102:	0013      	movs	r3, r2
   1e104:	2201      	movs	r2, #1
   1e106:	5533      	strb	r3, [r6, r4]
   1e108:	5d33      	ldrb	r3, [r6, r4]
   1e10a:	3401      	adds	r4, #1
   1e10c:	4013      	ands	r3, r2
   1e10e:	9a01      	ldr	r2, [sp, #4]
   1e110:	18d3      	adds	r3, r2, r3
   1e112:	9301      	str	r3, [sp, #4]
   1e114:	e7e3      	b.n	1e0de <Mask_mask4+0x24>
   1e116:	9b05      	ldr	r3, [sp, #20]
   1e118:	9a02      	ldr	r2, [sp, #8]
   1e11a:	403b      	ands	r3, r7
   1e11c:	18d2      	adds	r2, r2, r3
   1e11e:	9202      	str	r2, [sp, #8]
   1e120:	18f6      	adds	r6, r6, r3
   1e122:	3501      	adds	r5, #1
   1e124:	e7d4      	b.n	1e0d0 <Mask_mask4+0x16>
   1e126:	9801      	ldr	r0, [sp, #4]
   1e128:	b007      	add	sp, #28
   1e12a:	bdf0      	pop	{r4, r5, r6, r7, pc}

0001e12c <Mask_mask5>:
   1e12c:	2300      	movs	r3, #0
   1e12e:	b5f0      	push	{r4, r5, r6, r7, lr}
   1e130:	b087      	sub	sp, #28
   1e132:	9302      	str	r3, [sp, #8]
   1e134:	9301      	str	r3, [sp, #4]
   1e136:	43c3      	mvns	r3, r0
   1e138:	0007      	movs	r7, r0
   1e13a:	0016      	movs	r6, r2
   1e13c:	17db      	asrs	r3, r3, #31
   1e13e:	9103      	str	r1, [sp, #12]
   1e140:	9305      	str	r3, [sp, #20]
   1e142:	9b01      	ldr	r3, [sp, #4]
   1e144:	42bb      	cmp	r3, r7
   1e146:	da2b      	bge.n	1e1a0 <Mask_mask5+0x74>
   1e148:	2500      	movs	r5, #0
   1e14a:	002c      	movs	r4, r5
   1e14c:	42bc      	cmp	r4, r7
   1e14e:	da1d      	bge.n	1e18c <Mask_mask5+0x60>
   1e150:	9b03      	ldr	r3, [sp, #12]
   1e152:	5d1b      	ldrb	r3, [r3, r4]
   1e154:	b25a      	sxtb	r2, r3
   1e156:	9204      	str	r2, [sp, #16]
   1e158:	2a00      	cmp	r2, #0
   1e15a:	da01      	bge.n	1e160 <Mask_mask5+0x34>
   1e15c:	5533      	strb	r3, [r6, r4]
   1e15e:	e00b      	b.n	1e178 <Mask_mask5+0x4c>
   1e160:	2103      	movs	r1, #3
   1e162:	0028      	movs	r0, r5
   1e164:	f001 fc4a 	bl	1f9fc <__aeabi_idivmod>
   1e168:	2301      	movs	r3, #1
   1e16a:	402b      	ands	r3, r5
   1e16c:	1859      	adds	r1, r3, r1
   1e16e:	424b      	negs	r3, r1
   1e170:	4159      	adcs	r1, r3
   1e172:	9b04      	ldr	r3, [sp, #16]
   1e174:	404b      	eors	r3, r1
   1e176:	5533      	strb	r3, [r6, r4]
   1e178:	2201      	movs	r2, #1
   1e17a:	5d33      	ldrb	r3, [r6, r4]
   1e17c:	3401      	adds	r4, #1
   1e17e:	4013      	ands	r3, r2
   1e180:	9a02      	ldr	r2, [sp, #8]
   1e182:	18d3      	adds	r3, r2, r3
   1e184:	9302      	str	r3, [sp, #8]
   1e186:	9b01      	ldr	r3, [sp, #4]
   1e188:	18ed      	adds	r5, r5, r3
   1e18a:	e7df      	b.n	1e14c <Mask_mask5+0x20>
   1e18c:	9b05      	ldr	r3, [sp, #20]
   1e18e:	9a03      	ldr	r2, [sp, #12]
   1e190:	403b      	ands	r3, r7
   1e192:	18d2      	adds	r2, r2, r3
   1e194:	18f6      	adds	r6, r6, r3
   1e196:	9b01      	ldr	r3, [sp, #4]
   1e198:	9203      	str	r2, [sp, #12]
   1e19a:	3301      	adds	r3, #1
   1e19c:	9301      	str	r3, [sp, #4]
   1e19e:	e7d0      	b.n	1e142 <Mask_mask5+0x16>
   1e1a0:	9802      	ldr	r0, [sp, #8]
   1e1a2:	b007      	add	sp, #28
   1e1a4:	bdf0      	pop	{r4, r5, r6, r7, pc}

0001e1a6 <Mask_mask6>:
   1e1a6:	2300      	movs	r3, #0
   1e1a8:	b5f0      	push	{r4, r5, r6, r7, lr}
   1e1aa:	b087      	sub	sp, #28
   1e1ac:	9302      	str	r3, [sp, #8]
   1e1ae:	9301      	str	r3, [sp, #4]
   1e1b0:	43c3      	mvns	r3, r0
   1e1b2:	0007      	movs	r7, r0
   1e1b4:	0016      	movs	r6, r2
   1e1b6:	17db      	asrs	r3, r3, #31
   1e1b8:	9103      	str	r1, [sp, #12]
   1e1ba:	9305      	str	r3, [sp, #20]
   1e1bc:	9b01      	ldr	r3, [sp, #4]
   1e1be:	42bb      	cmp	r3, r7
   1e1c0:	da28      	bge.n	1e214 <Mask_mask6+0x6e>
   1e1c2:	2500      	movs	r5, #0
   1e1c4:	002c      	movs	r4, r5
   1e1c6:	42bc      	cmp	r4, r7
   1e1c8:	da1a      	bge.n	1e200 <Mask_mask6+0x5a>
   1e1ca:	9b03      	ldr	r3, [sp, #12]
   1e1cc:	5d1b      	ldrb	r3, [r3, r4]
   1e1ce:	b25a      	sxtb	r2, r3
   1e1d0:	9204      	str	r2, [sp, #16]
   1e1d2:	2a00      	cmp	r2, #0
   1e1d4:	db09      	blt.n	1e1ea <Mask_mask6+0x44>
   1e1d6:	2103      	movs	r1, #3
   1e1d8:	0028      	movs	r0, r5
   1e1da:	f001 fc0f 	bl	1f9fc <__aeabi_idivmod>
   1e1de:	2301      	movs	r3, #1
   1e1e0:	1949      	adds	r1, r1, r5
   1e1e2:	9a04      	ldr	r2, [sp, #16]
   1e1e4:	438b      	bics	r3, r1
   1e1e6:	405a      	eors	r2, r3
   1e1e8:	0013      	movs	r3, r2
   1e1ea:	2201      	movs	r2, #1
   1e1ec:	5533      	strb	r3, [r6, r4]
   1e1ee:	5d33      	ldrb	r3, [r6, r4]
   1e1f0:	3401      	adds	r4, #1
   1e1f2:	4013      	ands	r3, r2
   1e1f4:	9a02      	ldr	r2, [sp, #8]
   1e1f6:	18d3      	adds	r3, r2, r3
   1e1f8:	9302      	str	r3, [sp, #8]
   1e1fa:	9b01      	ldr	r3, [sp, #4]
   1e1fc:	18ed      	adds	r5, r5, r3
   1e1fe:	e7e2      	b.n	1e1c6 <Mask_mask6+0x20>
   1e200:	9b05      	ldr	r3, [sp, #20]
   1e202:	9a03      	ldr	r2, [sp, #12]
   1e204:	403b      	ands	r3, r7
   1e206:	18d2      	adds	r2, r2, r3
   1e208:	18f6      	adds	r6, r6, r3
   1e20a:	9b01      	ldr	r3, [sp, #4]
   1e20c:	9203      	str	r2, [sp, #12]
   1e20e:	3301      	adds	r3, #1
   1e210:	9301      	str	r3, [sp, #4]
   1e212:	e7d3      	b.n	1e1bc <Mask_mask6+0x16>
   1e214:	9802      	ldr	r0, [sp, #8]
   1e216:	b007      	add	sp, #28
   1e218:	bdf0      	pop	{r4, r5, r6, r7, pc}

0001e21a <Mask_mask7>:
   1e21a:	2300      	movs	r3, #0
   1e21c:	b5f0      	push	{r4, r5, r6, r7, lr}
   1e21e:	b087      	sub	sp, #28
   1e220:	9301      	str	r3, [sp, #4]
   1e222:	001d      	movs	r5, r3
   1e224:	43c3      	mvns	r3, r0
   1e226:	0007      	movs	r7, r0
   1e228:	0016      	movs	r6, r2
   1e22a:	17db      	asrs	r3, r3, #31
   1e22c:	9103      	str	r1, [sp, #12]
   1e22e:	9305      	str	r3, [sp, #20]
   1e230:	42bd      	cmp	r5, r7
   1e232:	da29      	bge.n	1e288 <Mask_mask7+0x6e>
   1e234:	2300      	movs	r3, #0
   1e236:	001c      	movs	r4, r3
   1e238:	9302      	str	r3, [sp, #8]
   1e23a:	42bc      	cmp	r4, r7
   1e23c:	da1c      	bge.n	1e278 <Mask_mask7+0x5e>
   1e23e:	9b03      	ldr	r3, [sp, #12]
   1e240:	5d1b      	ldrb	r3, [r3, r4]
   1e242:	b25a      	sxtb	r2, r3
   1e244:	9204      	str	r2, [sp, #16]
   1e246:	2a00      	cmp	r2, #0
   1e248:	db0a      	blt.n	1e260 <Mask_mask7+0x46>
   1e24a:	2103      	movs	r1, #3
   1e24c:	9802      	ldr	r0, [sp, #8]
   1e24e:	f001 fbd5 	bl	1f9fc <__aeabi_idivmod>
   1e252:	1963      	adds	r3, r4, r5
   1e254:	18c9      	adds	r1, r1, r3
   1e256:	2301      	movs	r3, #1
   1e258:	9a04      	ldr	r2, [sp, #16]
   1e25a:	438b      	bics	r3, r1
   1e25c:	405a      	eors	r2, r3
   1e25e:	0013      	movs	r3, r2
   1e260:	2201      	movs	r2, #1
   1e262:	5533      	strb	r3, [r6, r4]
   1e264:	5d33      	ldrb	r3, [r6, r4]
   1e266:	3401      	adds	r4, #1
   1e268:	4013      	ands	r3, r2
   1e26a:	9a01      	ldr	r2, [sp, #4]
   1e26c:	18d3      	adds	r3, r2, r3
   1e26e:	9301      	str	r3, [sp, #4]
   1e270:	9b02      	ldr	r3, [sp, #8]
   1e272:	195b      	adds	r3, r3, r5
   1e274:	9302      	str	r3, [sp, #8]
   1e276:	e7e0      	b.n	1e23a <Mask_mask7+0x20>
   1e278:	9b05      	ldr	r3, [sp, #20]
   1e27a:	9a03      	ldr	r2, [sp, #12]
   1e27c:	403b      	ands	r3, r7
   1e27e:	18d2      	adds	r2, r2, r3
   1e280:	9203      	str	r2, [sp, #12]
   1e282:	18f6      	adds	r6, r6, r3
   1e284:	3501      	adds	r5, #1
   1e286:	e7d3      	b.n	1e230 <Mask_mask7+0x16>
   1e288:	9801      	ldr	r0, [sp, #4]
   1e28a:	b007      	add	sp, #28
   1e28c:	bdf0      	pop	{r4, r5, r6, r7, pc}

0001e28e <Mask_writeFormatInformation>:
   1e28e:	b5f7      	push	{r0, r1, r2, r4, r5, r6, r7, lr}
   1e290:	0004      	movs	r4, r0
   1e292:	9100      	str	r1, [sp, #0]
   1e294:	0010      	movs	r0, r2
   1e296:	0019      	movs	r1, r3
   1e298:	f000 fa8e 	bl	1e7b8 <QRspec_getFormatInfo>
   1e29c:	2501      	movs	r5, #1
   1e29e:	2300      	movs	r3, #0
   1e2a0:	2609      	movs	r6, #9
   1e2a2:	001a      	movs	r2, r3
   1e2a4:	46ac      	mov	ip, r5
   1e2a6:	4366      	muls	r6, r4
   1e2a8:	9900      	ldr	r1, [sp, #0]
   1e2aa:	9601      	str	r6, [sp, #4]
   1e2ac:	3108      	adds	r1, #8
   1e2ae:	4667      	mov	r7, ip
   1e2b0:	2584      	movs	r5, #132	; 0x84
   1e2b2:	4238      	tst	r0, r7
   1e2b4:	d001      	beq.n	1e2ba <Mask_writeFormatInformation+0x2c>
   1e2b6:	3302      	adds	r3, #2
   1e2b8:	3501      	adds	r5, #1
   1e2ba:	9e01      	ldr	r6, [sp, #4]
   1e2bc:	1ab7      	subs	r7, r6, r2
   1e2be:	9e00      	ldr	r6, [sp, #0]
   1e2c0:	3f01      	subs	r7, #1
   1e2c2:	55f5      	strb	r5, [r6, r7]
   1e2c4:	2a05      	cmp	r2, #5
   1e2c6:	dc01      	bgt.n	1e2cc <Mask_writeFormatInformation+0x3e>
   1e2c8:	700d      	strb	r5, [r1, #0]
   1e2ca:	e000      	b.n	1e2ce <Mask_writeFormatInformation+0x40>
   1e2cc:	550d      	strb	r5, [r1, r4]
   1e2ce:	3201      	adds	r2, #1
   1e2d0:	0840      	lsrs	r0, r0, #1
   1e2d2:	1909      	adds	r1, r1, r4
   1e2d4:	2a08      	cmp	r2, #8
   1e2d6:	d1ea      	bne.n	1e2ae <Mask_writeFormatInformation+0x20>
   1e2d8:	2501      	movs	r5, #1
   1e2da:	9900      	ldr	r1, [sp, #0]
   1e2dc:	00e6      	lsls	r6, r4, #3
   1e2de:	1df2      	adds	r2, r6, #7
   1e2e0:	188a      	adds	r2, r1, r2
   1e2e2:	9201      	str	r2, [sp, #4]
   1e2e4:	1fe2      	subs	r2, r4, #7
   1e2e6:	4362      	muls	r2, r4
   1e2e8:	3208      	adds	r2, #8
   1e2ea:	188a      	adds	r2, r1, r2
   1e2ec:	46ac      	mov	ip, r5
   1e2ee:	2106      	movs	r1, #6
   1e2f0:	4667      	mov	r7, ip
   1e2f2:	2584      	movs	r5, #132	; 0x84
   1e2f4:	4238      	tst	r0, r7
   1e2f6:	d001      	beq.n	1e2fc <Mask_writeFormatInformation+0x6e>
   1e2f8:	3302      	adds	r3, #2
   1e2fa:	3501      	adds	r5, #1
   1e2fc:	7015      	strb	r5, [r2, #0]
   1e2fe:	2906      	cmp	r1, #6
   1e300:	d102      	bne.n	1e308 <Mask_writeFormatInformation+0x7a>
   1e302:	9f01      	ldr	r7, [sp, #4]
   1e304:	703d      	strb	r5, [r7, #0]
   1e306:	e002      	b.n	1e30e <Mask_writeFormatInformation+0x80>
   1e308:	9f00      	ldr	r7, [sp, #0]
   1e30a:	19bf      	adds	r7, r7, r6
   1e30c:	547d      	strb	r5, [r7, r1]
   1e30e:	0840      	lsrs	r0, r0, #1
   1e310:	1912      	adds	r2, r2, r4
   1e312:	3901      	subs	r1, #1
   1e314:	d2ec      	bcs.n	1e2f0 <Mask_writeFormatInformation+0x62>
   1e316:	0018      	movs	r0, r3
   1e318:	bdfe      	pop	{r1, r2, r3, r4, r5, r6, r7, pc}
	...

0001e31c <Mask_makeMask>:
   1e31c:	b5f7      	push	{r0, r1, r2, r4, r5, r6, r7, lr}
   1e31e:	0005      	movs	r5, r0
   1e320:	000f      	movs	r7, r1
   1e322:	1e16      	subs	r6, r2, #0
   1e324:	9301      	str	r3, [sp, #4]
   1e326:	2e07      	cmp	r6, #7
   1e328:	d905      	bls.n	1e336 <Mask_makeMask+0x1a>
   1e32a:	f001 fb77 	bl	1fa1c <__errno>
   1e32e:	2316      	movs	r3, #22
   1e330:	6003      	str	r3, [r0, #0]
   1e332:	2000      	movs	r0, #0
   1e334:	e012      	b.n	1e35c <Mask_makeMask+0x40>
   1e336:	4340      	muls	r0, r0
   1e338:	f001 fbb2 	bl	1faa0 <malloc>
   1e33c:	1e04      	subs	r4, r0, #0
   1e33e:	d00d      	beq.n	1e35c <Mask_makeMask+0x40>
   1e340:	4b07      	ldr	r3, [pc, #28]	; (1e360 <Mask_makeMask+0x44>)
   1e342:	00b2      	lsls	r2, r6, #2
   1e344:	58d3      	ldr	r3, [r2, r3]
   1e346:	0039      	movs	r1, r7
   1e348:	0002      	movs	r2, r0
   1e34a:	0028      	movs	r0, r5
   1e34c:	4798      	blx	r3
   1e34e:	9b01      	ldr	r3, [sp, #4]
   1e350:	0032      	movs	r2, r6
   1e352:	0021      	movs	r1, r4
   1e354:	0028      	movs	r0, r5
   1e356:	f7ff ff9a 	bl	1e28e <Mask_writeFormatInformation>
   1e35a:	0020      	movs	r0, r4
   1e35c:	bdfe      	pop	{r1, r2, r3, r4, r5, r6, r7, pc}
   1e35e:	46c0      	nop			; (mov r8, r8)
   1e360:	fe1c 0001 	cdp2	0, 1, cr0, cr12, cr1, {0}

0001e364 <Mask_calcN1N3>:
   1e364:	b5f7      	push	{r0, r1, r2, r4, r5, r6, r7, lr}
   1e366:	2500      	movs	r5, #0
   1e368:	0003      	movs	r3, r0
   1e36a:	390c      	subs	r1, #12
   1e36c:	000c      	movs	r4, r1
   1e36e:	002e      	movs	r6, r5
   1e370:	3b02      	subs	r3, #2
   1e372:	9000      	str	r0, [sp, #0]
   1e374:	9301      	str	r3, [sp, #4]
   1e376:	9b00      	ldr	r3, [sp, #0]
   1e378:	429e      	cmp	r6, r3
   1e37a:	da33      	bge.n	1e3e4 <Mask_calcN1N3+0x80>
   1e37c:	68e7      	ldr	r7, [r4, #12]
   1e37e:	2f04      	cmp	r7, #4
   1e380:	dd01      	ble.n	1e386 <Mask_calcN1N3+0x22>
   1e382:	1ebb      	subs	r3, r7, #2
   1e384:	18ed      	adds	r5, r5, r3
   1e386:	2301      	movs	r3, #1
   1e388:	421e      	tst	r6, r3
   1e38a:	d028      	beq.n	1e3de <Mask_calcN1N3+0x7a>
   1e38c:	2e02      	cmp	r6, #2
   1e38e:	dd26      	ble.n	1e3de <Mask_calcN1N3+0x7a>
   1e390:	9b01      	ldr	r3, [sp, #4]
   1e392:	429e      	cmp	r6, r3
   1e394:	da23      	bge.n	1e3de <Mask_calcN1N3+0x7a>
   1e396:	2103      	movs	r1, #3
   1e398:	0038      	movs	r0, r7
   1e39a:	f001 fb2f 	bl	1f9fc <__aeabi_idivmod>
   1e39e:	2900      	cmp	r1, #0
   1e3a0:	d11d      	bne.n	1e3de <Mask_calcN1N3+0x7a>
   1e3a2:	3103      	adds	r1, #3
   1e3a4:	0038      	movs	r0, r7
   1e3a6:	f001 fa43 	bl	1f830 <__aeabi_idiv>
   1e3aa:	6863      	ldr	r3, [r4, #4]
   1e3ac:	4298      	cmp	r0, r3
   1e3ae:	d116      	bne.n	1e3de <Mask_calcN1N3+0x7a>
   1e3b0:	68a3      	ldr	r3, [r4, #8]
   1e3b2:	4298      	cmp	r0, r3
   1e3b4:	d113      	bne.n	1e3de <Mask_calcN1N3+0x7a>
   1e3b6:	6923      	ldr	r3, [r4, #16]
   1e3b8:	4298      	cmp	r0, r3
   1e3ba:	d110      	bne.n	1e3de <Mask_calcN1N3+0x7a>
   1e3bc:	6963      	ldr	r3, [r4, #20]
   1e3be:	4298      	cmp	r0, r3
   1e3c0:	d10d      	bne.n	1e3de <Mask_calcN1N3+0x7a>
   1e3c2:	2e03      	cmp	r6, #3
   1e3c4:	d00a      	beq.n	1e3dc <Mask_calcN1N3+0x78>
   1e3c6:	6823      	ldr	r3, [r4, #0]
   1e3c8:	0080      	lsls	r0, r0, #2
   1e3ca:	4283      	cmp	r3, r0
   1e3cc:	da06      	bge.n	1e3dc <Mask_calcN1N3+0x78>
   1e3ce:	9a00      	ldr	r2, [sp, #0]
   1e3d0:	1d33      	adds	r3, r6, #4
   1e3d2:	429a      	cmp	r2, r3
   1e3d4:	dd02      	ble.n	1e3dc <Mask_calcN1N3+0x78>
   1e3d6:	69a3      	ldr	r3, [r4, #24]
   1e3d8:	4298      	cmp	r0, r3
   1e3da:	dc00      	bgt.n	1e3de <Mask_calcN1N3+0x7a>
   1e3dc:	3528      	adds	r5, #40	; 0x28
   1e3de:	3601      	adds	r6, #1
   1e3e0:	3404      	adds	r4, #4
   1e3e2:	e7c8      	b.n	1e376 <Mask_calcN1N3+0x12>
   1e3e4:	0028      	movs	r0, r5
   1e3e6:	bdfe      	pop	{r1, r2, r3, r4, r5, r6, r7, pc}

0001e3e8 <Mask_calcN2>:
   1e3e8:	b5f0      	push	{r4, r5, r6, r7, lr}
   1e3ea:	1c43      	adds	r3, r0, #1
   1e3ec:	b085      	sub	sp, #20
   1e3ee:	18c9      	adds	r1, r1, r3
   1e3f0:	4243      	negs	r3, r0
   1e3f2:	9302      	str	r3, [sp, #8]
   1e3f4:	43c3      	mvns	r3, r0
   1e3f6:	2700      	movs	r7, #0
   1e3f8:	2401      	movs	r4, #1
   1e3fa:	9303      	str	r3, [sp, #12]
   1e3fc:	4284      	cmp	r4, r0
   1e3fe:	da25      	bge.n	1e44c <Mask_calcN2+0x64>
   1e400:	2301      	movs	r3, #1
   1e402:	1a5b      	subs	r3, r3, r1
   1e404:	9301      	str	r3, [sp, #4]
   1e406:	9b01      	ldr	r3, [sp, #4]
   1e408:	18cb      	adds	r3, r1, r3
   1e40a:	4298      	cmp	r0, r3
   1e40c:	dd1b      	ble.n	1e446 <Mask_calcN2+0x5e>
   1e40e:	1e4b      	subs	r3, r1, #1
   1e410:	781d      	ldrb	r5, [r3, #0]
   1e412:	9b02      	ldr	r3, [sp, #8]
   1e414:	780e      	ldrb	r6, [r1, #0]
   1e416:	5ccb      	ldrb	r3, [r1, r3]
   1e418:	469c      	mov	ip, r3
   1e41a:	9b03      	ldr	r3, [sp, #12]
   1e41c:	5ccb      	ldrb	r3, [r1, r3]
   1e41e:	9300      	str	r3, [sp, #0]
   1e420:	4663      	mov	r3, ip
   1e422:	9a00      	ldr	r2, [sp, #0]
   1e424:	4333      	orrs	r3, r6
   1e426:	432b      	orrs	r3, r5
   1e428:	4313      	orrs	r3, r2
   1e42a:	2201      	movs	r2, #1
   1e42c:	4053      	eors	r3, r2
   1e42e:	4662      	mov	r2, ip
   1e430:	4016      	ands	r6, r2
   1e432:	9a00      	ldr	r2, [sp, #0]
   1e434:	402e      	ands	r6, r5
   1e436:	4016      	ands	r6, r2
   1e438:	431e      	orrs	r6, r3
   1e43a:	2301      	movs	r3, #1
   1e43c:	421e      	tst	r6, r3
   1e43e:	d000      	beq.n	1e442 <Mask_calcN2+0x5a>
   1e440:	3703      	adds	r7, #3
   1e442:	3101      	adds	r1, #1
   1e444:	e7df      	b.n	1e406 <Mask_calcN2+0x1e>
   1e446:	3101      	adds	r1, #1
   1e448:	3401      	adds	r4, #1
   1e44a:	e7d7      	b.n	1e3fc <Mask_calcN2+0x14>
   1e44c:	0038      	movs	r0, r7
   1e44e:	b005      	add	sp, #20
   1e450:	bdf0      	pop	{r4, r5, r6, r7, pc}

0001e452 <Mask_calcRunLengthH>:
   1e452:	b5f7      	push	{r0, r1, r2, r4, r5, r6, r7, lr}
   1e454:	2401      	movs	r4, #1
   1e456:	780d      	ldrb	r5, [r1, #0]
   1e458:	9001      	str	r0, [sp, #4]
   1e45a:	2300      	movs	r3, #0
   1e45c:	4225      	tst	r5, r4
   1e45e:	d002      	beq.n	1e466 <Mask_calcRunLengthH+0x14>
   1e460:	3b01      	subs	r3, #1
   1e462:	6013      	str	r3, [r2, #0]
   1e464:	0023      	movs	r3, r4
   1e466:	2501      	movs	r5, #1
   1e468:	009c      	lsls	r4, r3, #2
   1e46a:	50a5      	str	r5, [r4, r2]
   1e46c:	780f      	ldrb	r7, [r1, #0]
   1e46e:	194c      	adds	r4, r1, r5
   1e470:	9801      	ldr	r0, [sp, #4]
   1e472:	1a66      	subs	r6, r4, r1
   1e474:	42b0      	cmp	r0, r6
   1e476:	dd0f      	ble.n	1e498 <Mask_calcRunLengthH+0x46>
   1e478:	7826      	ldrb	r6, [r4, #0]
   1e47a:	407e      	eors	r6, r7
   1e47c:	422e      	tst	r6, r5
   1e47e:	d004      	beq.n	1e48a <Mask_calcRunLengthH+0x38>
   1e480:	3301      	adds	r3, #1
   1e482:	009e      	lsls	r6, r3, #2
   1e484:	50b5      	str	r5, [r6, r2]
   1e486:	7827      	ldrb	r7, [r4, #0]
   1e488:	e004      	b.n	1e494 <Mask_calcRunLengthH+0x42>
   1e48a:	009e      	lsls	r6, r3, #2
   1e48c:	1996      	adds	r6, r2, r6
   1e48e:	6830      	ldr	r0, [r6, #0]
   1e490:	3001      	adds	r0, #1
   1e492:	6030      	str	r0, [r6, #0]
   1e494:	3401      	adds	r4, #1
   1e496:	e7eb      	b.n	1e470 <Mask_calcRunLengthH+0x1e>
   1e498:	1c58      	adds	r0, r3, #1
   1e49a:	bdfe      	pop	{r1, r2, r3, r4, r5, r6, r7, pc}

0001e49c <Mask_calcRunLengthV>:
   1e49c:	b5f0      	push	{r4, r5, r6, r7, lr}
   1e49e:	2401      	movs	r4, #1
   1e4a0:	780d      	ldrb	r5, [r1, #0]
   1e4a2:	2300      	movs	r3, #0
   1e4a4:	4225      	tst	r5, r4
   1e4a6:	d002      	beq.n	1e4ae <Mask_calcRunLengthV+0x12>
   1e4a8:	3b01      	subs	r3, #1
   1e4aa:	6013      	str	r3, [r2, #0]
   1e4ac:	0023      	movs	r3, r4
   1e4ae:	2401      	movs	r4, #1
   1e4b0:	009d      	lsls	r5, r3, #2
   1e4b2:	50ac      	str	r4, [r5, r2]
   1e4b4:	780e      	ldrb	r6, [r1, #0]
   1e4b6:	1809      	adds	r1, r1, r0
   1e4b8:	4284      	cmp	r4, r0
   1e4ba:	da10      	bge.n	1e4de <Mask_calcRunLengthV+0x42>
   1e4bc:	2701      	movs	r7, #1
   1e4be:	780d      	ldrb	r5, [r1, #0]
   1e4c0:	4075      	eors	r5, r6
   1e4c2:	423d      	tst	r5, r7
   1e4c4:	d004      	beq.n	1e4d0 <Mask_calcRunLengthV+0x34>
   1e4c6:	19db      	adds	r3, r3, r7
   1e4c8:	009d      	lsls	r5, r3, #2
   1e4ca:	50af      	str	r7, [r5, r2]
   1e4cc:	780e      	ldrb	r6, [r1, #0]
   1e4ce:	e004      	b.n	1e4da <Mask_calcRunLengthV+0x3e>
   1e4d0:	009d      	lsls	r5, r3, #2
   1e4d2:	1955      	adds	r5, r2, r5
   1e4d4:	682f      	ldr	r7, [r5, #0]
   1e4d6:	3701      	adds	r7, #1
   1e4d8:	602f      	str	r7, [r5, #0]
   1e4da:	3401      	adds	r4, #1
   1e4dc:	e7eb      	b.n	1e4b6 <Mask_calcRunLengthV+0x1a>
   1e4de:	1c58      	adds	r0, r3, #1
   1e4e0:	bdf0      	pop	{r4, r5, r6, r7, pc}
	...

0001e4e4 <Mask_evaluateSymbol>:
   1e4e4:	b5f0      	push	{r4, r5, r6, r7, lr}
   1e4e6:	4c17      	ldr	r4, [pc, #92]	; (1e544 <Mask_evaluateSymbol+0x60>)
   1e4e8:	000e      	movs	r6, r1
   1e4ea:	44a5      	add	sp, r4
   1e4ec:	0004      	movs	r4, r0
   1e4ee:	f7ff ff7b 	bl	1e3e8 <Mask_calcN2>
   1e4f2:	2300      	movs	r3, #0
   1e4f4:	0005      	movs	r5, r0
   1e4f6:	0037      	movs	r7, r6
   1e4f8:	9301      	str	r3, [sp, #4]
   1e4fa:	9b01      	ldr	r3, [sp, #4]
   1e4fc:	42a3      	cmp	r3, r4
   1e4fe:	da0d      	bge.n	1e51c <Mask_evaluateSymbol+0x38>
   1e500:	0039      	movs	r1, r7
   1e502:	aa02      	add	r2, sp, #8
   1e504:	0020      	movs	r0, r4
   1e506:	f7ff ffa4 	bl	1e452 <Mask_calcRunLengthH>
   1e50a:	a902      	add	r1, sp, #8
   1e50c:	f7ff ff2a 	bl	1e364 <Mask_calcN1N3>
   1e510:	9b01      	ldr	r3, [sp, #4]
   1e512:	182d      	adds	r5, r5, r0
   1e514:	3301      	adds	r3, #1
   1e516:	9301      	str	r3, [sp, #4]
   1e518:	193f      	adds	r7, r7, r4
   1e51a:	e7ee      	b.n	1e4fa <Mask_evaluateSymbol+0x16>
   1e51c:	0037      	movs	r7, r6
   1e51e:	1bbb      	subs	r3, r7, r6
   1e520:	429c      	cmp	r4, r3
   1e522:	dd0a      	ble.n	1e53a <Mask_evaluateSymbol+0x56>
   1e524:	0039      	movs	r1, r7
   1e526:	aa02      	add	r2, sp, #8
   1e528:	0020      	movs	r0, r4
   1e52a:	f7ff ffb7 	bl	1e49c <Mask_calcRunLengthV>
   1e52e:	a902      	add	r1, sp, #8
   1e530:	f7ff ff18 	bl	1e364 <Mask_calcN1N3>
   1e534:	3701      	adds	r7, #1
   1e536:	182d      	adds	r5, r5, r0
   1e538:	e7f1      	b.n	1e51e <Mask_evaluateSymbol+0x3a>
   1e53a:	0028      	movs	r0, r5
   1e53c:	23b5      	movs	r3, #181	; 0xb5
   1e53e:	009b      	lsls	r3, r3, #2
   1e540:	449d      	add	sp, r3
   1e542:	bdf0      	pop	{r4, r5, r6, r7, pc}
   1e544:	fd2c ffff 	stc2	15, cr15, [ip, #-1020]!	; 0xfffffc04

0001e548 <Mask_mask>:
   1e548:	0003      	movs	r3, r0
   1e54a:	b5f0      	push	{r4, r5, r6, r7, lr}
   1e54c:	4343      	muls	r3, r0
   1e54e:	b089      	sub	sp, #36	; 0x24
   1e550:	0006      	movs	r6, r0
   1e552:	0018      	movs	r0, r3
   1e554:	9106      	str	r1, [sp, #24]
   1e556:	9207      	str	r2, [sp, #28]
   1e558:	9301      	str	r3, [sp, #4]
   1e55a:	f001 faa1 	bl	1faa0 <malloc>
   1e55e:	1e04      	subs	r4, r0, #0
   1e560:	d043      	beq.n	1e5ea <Mask_mask+0xa2>
   1e562:	9801      	ldr	r0, [sp, #4]
   1e564:	f001 fa9c 	bl	1faa0 <malloc>
   1e568:	9002      	str	r0, [sp, #8]
   1e56a:	2800      	cmp	r0, #0
   1e56c:	d039      	beq.n	1e5e2 <Mask_mask+0x9a>
   1e56e:	2700      	movs	r7, #0
   1e570:	4b1f      	ldr	r3, [pc, #124]	; (1e5f0 <Mask_mask+0xa8>)
   1e572:	9303      	str	r3, [sp, #12]
   1e574:	4b1f      	ldr	r3, [pc, #124]	; (1e5f4 <Mask_mask+0xac>)
   1e576:	00ba      	lsls	r2, r7, #2
   1e578:	58d3      	ldr	r3, [r2, r3]
   1e57a:	9906      	ldr	r1, [sp, #24]
   1e57c:	0022      	movs	r2, r4
   1e57e:	0030      	movs	r0, r6
   1e580:	4798      	blx	r3
   1e582:	003a      	movs	r2, r7
   1e584:	9b07      	ldr	r3, [sp, #28]
   1e586:	9004      	str	r0, [sp, #16]
   1e588:	0021      	movs	r1, r4
   1e58a:	0030      	movs	r0, r6
   1e58c:	f7ff fe7f 	bl	1e28e <Mask_writeFormatInformation>
   1e590:	0021      	movs	r1, r4
   1e592:	0005      	movs	r5, r0
   1e594:	0030      	movs	r0, r6
   1e596:	f7ff ffa5 	bl	1e4e4 <Mask_evaluateSymbol>
   1e59a:	9b04      	ldr	r3, [sp, #16]
   1e59c:	9005      	str	r0, [sp, #20]
   1e59e:	1958      	adds	r0, r3, r5
   1e5a0:	23c8      	movs	r3, #200	; 0xc8
   1e5a2:	4358      	muls	r0, r3
   1e5a4:	9b01      	ldr	r3, [sp, #4]
   1e5a6:	250a      	movs	r5, #10
   1e5a8:	0019      	movs	r1, r3
   1e5aa:	18c0      	adds	r0, r0, r3
   1e5ac:	f001 f940 	bl	1f830 <__aeabi_idiv>
   1e5b0:	0fc3      	lsrs	r3, r0, #31
   1e5b2:	1818      	adds	r0, r3, r0
   1e5b4:	1040      	asrs	r0, r0, #1
   1e5b6:	3832      	subs	r0, #50	; 0x32
   1e5b8:	17c3      	asrs	r3, r0, #31
   1e5ba:	18c0      	adds	r0, r0, r3
   1e5bc:	4058      	eors	r0, r3
   1e5be:	2105      	movs	r1, #5
   1e5c0:	f001 f936 	bl	1f830 <__aeabi_idiv>
   1e5c4:	4345      	muls	r5, r0
   1e5c6:	9b05      	ldr	r3, [sp, #20]
   1e5c8:	18ed      	adds	r5, r5, r3
   1e5ca:	9b03      	ldr	r3, [sp, #12]
   1e5cc:	429d      	cmp	r5, r3
   1e5ce:	da05      	bge.n	1e5dc <Mask_mask+0x94>
   1e5d0:	9a01      	ldr	r2, [sp, #4]
   1e5d2:	0021      	movs	r1, r4
   1e5d4:	9802      	ldr	r0, [sp, #8]
   1e5d6:	f001 fa77 	bl	1fac8 <memcpy>
   1e5da:	9503      	str	r5, [sp, #12]
   1e5dc:	3701      	adds	r7, #1
   1e5de:	2f08      	cmp	r7, #8
   1e5e0:	d1c8      	bne.n	1e574 <Mask_mask+0x2c>
   1e5e2:	0020      	movs	r0, r4
   1e5e4:	f001 fa66 	bl	1fab4 <free>
   1e5e8:	9802      	ldr	r0, [sp, #8]
   1e5ea:	b009      	add	sp, #36	; 0x24
   1e5ec:	bdf0      	pop	{r4, r5, r6, r7, pc}
   1e5ee:	46c0      	nop			; (mov r8, r8)
   1e5f0:	ffff 7fff 			; <UNDEFINED> instruction: 0xffff7fff
   1e5f4:	fe1c 0001 	cdp2	0, 1, cr0, cr12, cr1, {0}

0001e5f8 <QRspec_putAlignmentMarker>:
   1e5f8:	3b02      	subs	r3, #2
   1e5fa:	434b      	muls	r3, r1
   1e5fc:	189a      	adds	r2, r3, r2
   1e5fe:	3a02      	subs	r2, #2
   1e600:	1880      	adds	r0, r0, r2
   1e602:	2200      	movs	r2, #0
   1e604:	b570      	push	{r4, r5, r6, lr}
   1e606:	4d06      	ldr	r5, [pc, #24]	; (1e620 <QRspec_putAlignmentMarker+0x28>)
   1e608:	2300      	movs	r3, #0
   1e60a:	18ac      	adds	r4, r5, r2
   1e60c:	5ce6      	ldrb	r6, [r4, r3]
   1e60e:	54c6      	strb	r6, [r0, r3]
   1e610:	3301      	adds	r3, #1
   1e612:	2b05      	cmp	r3, #5
   1e614:	d1fa      	bne.n	1e60c <QRspec_putAlignmentMarker+0x14>
   1e616:	3205      	adds	r2, #5
   1e618:	1840      	adds	r0, r0, r1
   1e61a:	2a19      	cmp	r2, #25
   1e61c:	d1f4      	bne.n	1e608 <QRspec_putAlignmentMarker+0x10>
   1e61e:	bd70      	pop	{r4, r5, r6, pc}
   1e620:	0944      	lsrs	r4, r0, #5
   1e622:	0002      	movs	r2, r0

0001e624 <putFinderPattern>:
   1e624:	434b      	muls	r3, r1
   1e626:	189a      	adds	r2, r3, r2
   1e628:	1880      	adds	r0, r0, r2
   1e62a:	2200      	movs	r2, #0
   1e62c:	b570      	push	{r4, r5, r6, lr}
   1e62e:	4d06      	ldr	r5, [pc, #24]	; (1e648 <putFinderPattern+0x24>)
   1e630:	2300      	movs	r3, #0
   1e632:	18ac      	adds	r4, r5, r2
   1e634:	5ce6      	ldrb	r6, [r4, r3]
   1e636:	54c6      	strb	r6, [r0, r3]
   1e638:	3301      	adds	r3, #1
   1e63a:	2b07      	cmp	r3, #7
   1e63c:	d1fa      	bne.n	1e634 <putFinderPattern+0x10>
   1e63e:	3207      	adds	r2, #7
   1e640:	1840      	adds	r0, r0, r1
   1e642:	2a31      	cmp	r2, #49	; 0x31
   1e644:	d1f4      	bne.n	1e630 <putFinderPattern+0xc>
   1e646:	bd70      	pop	{r4, r5, r6, pc}
   1e648:	040c      	lsls	r4, r1, #16
   1e64a:	0002      	movs	r2, r0

0001e64c <QRspec_getDataLength>:
   1e64c:	000b      	movs	r3, r1
   1e64e:	2107      	movs	r1, #7
   1e650:	221c      	movs	r2, #28
   1e652:	4341      	muls	r1, r0
   1e654:	4342      	muls	r2, r0
   1e656:	18c9      	adds	r1, r1, r3
   1e658:	b510      	push	{r4, lr}
   1e65a:	3102      	adds	r1, #2
   1e65c:	4c03      	ldr	r4, [pc, #12]	; (1e66c <QRspec_getDataLength+0x20>)
   1e65e:	0089      	lsls	r1, r1, #2
   1e660:	18a2      	adds	r2, r4, r2
   1e662:	1861      	adds	r1, r4, r1
   1e664:	6853      	ldr	r3, [r2, #4]
   1e666:	6848      	ldr	r0, [r1, #4]
   1e668:	1a18      	subs	r0, r3, r0
   1e66a:	bd10      	pop	{r4, pc}
   1e66c:	0440      	lsls	r0, r0, #17
   1e66e:	0002      	movs	r2, r0

0001e670 <QRspec_getMinimumVersion>:
   1e670:	2301      	movs	r3, #1
   1e672:	b530      	push	{r4, r5, lr}
   1e674:	4a08      	ldr	r2, [pc, #32]	; (1e698 <QRspec_getMinimumVersion+0x28>)
   1e676:	0089      	lsls	r1, r1, #2
   1e678:	3220      	adds	r2, #32
   1e67a:	1854      	adds	r4, r2, r1
   1e67c:	68a4      	ldr	r4, [r4, #8]
   1e67e:	6815      	ldr	r5, [r2, #0]
   1e680:	1b2c      	subs	r4, r5, r4
   1e682:	4284      	cmp	r4, r0
   1e684:	da05      	bge.n	1e692 <QRspec_getMinimumVersion+0x22>
   1e686:	3301      	adds	r3, #1
   1e688:	321c      	adds	r2, #28
   1e68a:	2b29      	cmp	r3, #41	; 0x29
   1e68c:	d1f5      	bne.n	1e67a <QRspec_getMinimumVersion+0xa>
   1e68e:	2028      	movs	r0, #40	; 0x28
   1e690:	e000      	b.n	1e694 <QRspec_getMinimumVersion+0x24>
   1e692:	0018      	movs	r0, r3
   1e694:	bd30      	pop	{r4, r5, pc}
   1e696:	46c0      	nop			; (mov r8, r8)
   1e698:	0440      	lsls	r0, r0, #17
   1e69a:	0002      	movs	r2, r0

0001e69c <QRspec_getWidth>:
   1e69c:	231c      	movs	r3, #28
   1e69e:	4358      	muls	r0, r3
   1e6a0:	4b01      	ldr	r3, [pc, #4]	; (1e6a8 <QRspec_getWidth+0xc>)
   1e6a2:	58c0      	ldr	r0, [r0, r3]
   1e6a4:	4770      	bx	lr
   1e6a6:	46c0      	nop			; (mov r8, r8)
   1e6a8:	0440      	lsls	r0, r0, #17
   1e6aa:	0002      	movs	r2, r0

0001e6ac <QRspec_getRemainder>:
   1e6ac:	231c      	movs	r3, #28
   1e6ae:	4358      	muls	r0, r3
   1e6b0:	4b01      	ldr	r3, [pc, #4]	; (1e6b8 <QRspec_getRemainder+0xc>)
   1e6b2:	1818      	adds	r0, r3, r0
   1e6b4:	6880      	ldr	r0, [r0, #8]
   1e6b6:	4770      	bx	lr
   1e6b8:	0440      	lsls	r0, r0, #17
   1e6ba:	0002      	movs	r2, r0

0001e6bc <QRspec_lengthIndicator>:
   1e6bc:	b570      	push	{r4, r5, r6, lr}
   1e6be:	0004      	movs	r4, r0
   1e6c0:	000d      	movs	r5, r1
   1e6c2:	f7fe ffb6 	bl	1d632 <QRinput_isSplittableMode>
   1e6c6:	2800      	cmp	r0, #0
   1e6c8:	d00e      	beq.n	1e6e8 <QRspec_lengthIndicator+0x2c>
   1e6ca:	2300      	movs	r3, #0
   1e6cc:	2d09      	cmp	r5, #9
   1e6ce:	dd05      	ble.n	1e6dc <QRspec_lengthIndicator+0x20>
   1e6d0:	221a      	movs	r2, #26
   1e6d2:	0fe9      	lsrs	r1, r5, #31
   1e6d4:	42aa      	cmp	r2, r5
   1e6d6:	414b      	adcs	r3, r1
   1e6d8:	3a18      	subs	r2, #24
   1e6da:	1ad3      	subs	r3, r2, r3
   1e6dc:	2003      	movs	r0, #3
   1e6de:	4360      	muls	r0, r4
   1e6e0:	4a02      	ldr	r2, [pc, #8]	; (1e6ec <QRspec_lengthIndicator+0x30>)
   1e6e2:	18c3      	adds	r3, r0, r3
   1e6e4:	009b      	lsls	r3, r3, #2
   1e6e6:	5898      	ldr	r0, [r3, r2]
   1e6e8:	bd70      	pop	{r4, r5, r6, pc}
   1e6ea:	46c0      	nop			; (mov r8, r8)
   1e6ec:	febc 0001 	cdp2	0, 11, cr0, cr12, cr1, {0}

0001e6f0 <QRspec_maximumWords>:
   1e6f0:	b570      	push	{r4, r5, r6, lr}
   1e6f2:	0004      	movs	r4, r0
   1e6f4:	000d      	movs	r5, r1
   1e6f6:	f7fe ff9c 	bl	1d632 <QRinput_isSplittableMode>
   1e6fa:	2800      	cmp	r0, #0
   1e6fc:	d014      	beq.n	1e728 <QRspec_maximumWords+0x38>
   1e6fe:	2300      	movs	r3, #0
   1e700:	2d09      	cmp	r5, #9
   1e702:	dd05      	ble.n	1e710 <QRspec_maximumWords+0x20>
   1e704:	221a      	movs	r2, #26
   1e706:	0fe9      	lsrs	r1, r5, #31
   1e708:	42aa      	cmp	r2, r5
   1e70a:	414b      	adcs	r3, r1
   1e70c:	3a18      	subs	r2, #24
   1e70e:	1ad3      	subs	r3, r2, r3
   1e710:	2203      	movs	r2, #3
   1e712:	2001      	movs	r0, #1
   1e714:	4362      	muls	r2, r4
   1e716:	18d3      	adds	r3, r2, r3
   1e718:	4a04      	ldr	r2, [pc, #16]	; (1e72c <QRspec_maximumWords+0x3c>)
   1e71a:	009b      	lsls	r3, r3, #2
   1e71c:	589b      	ldr	r3, [r3, r2]
   1e71e:	4098      	lsls	r0, r3
   1e720:	3801      	subs	r0, #1
   1e722:	2c03      	cmp	r4, #3
   1e724:	d100      	bne.n	1e728 <QRspec_maximumWords+0x38>
   1e726:	0040      	lsls	r0, r0, #1
   1e728:	bd70      	pop	{r4, r5, r6, pc}
   1e72a:	46c0      	nop			; (mov r8, r8)
   1e72c:	febc 0001 	cdp2	0, 11, cr0, cr12, cr1, {0}

0001e730 <QRspec_getEccSpec>:
   1e730:	b5f7      	push	{r0, r1, r2, r4, r5, r6, r7, lr}
   1e732:	0014      	movs	r4, r2
   1e734:	0082      	lsls	r2, r0, #2
   1e736:	1852      	adds	r2, r2, r1
   1e738:	00d3      	lsls	r3, r2, #3
   1e73a:	2207      	movs	r2, #7
   1e73c:	4342      	muls	r2, r0
   1e73e:	1851      	adds	r1, r2, r1
   1e740:	221c      	movs	r2, #28
   1e742:	4e16      	ldr	r6, [pc, #88]	; (1e79c <QRspec_getEccSpec+0x6c>)
   1e744:	4350      	muls	r0, r2
   1e746:	599d      	ldr	r5, [r3, r6]
   1e748:	18f3      	adds	r3, r6, r3
   1e74a:	685e      	ldr	r6, [r3, #4]
   1e74c:	3102      	adds	r1, #2
   1e74e:	4b14      	ldr	r3, [pc, #80]	; (1e7a0 <QRspec_getEccSpec+0x70>)
   1e750:	0089      	lsls	r1, r1, #2
   1e752:	1859      	adds	r1, r3, r1
   1e754:	181b      	adds	r3, r3, r0
   1e756:	684f      	ldr	r7, [r1, #4]
   1e758:	6858      	ldr	r0, [r3, #4]
   1e75a:	6025      	str	r5, [r4, #0]
   1e75c:	1bc0      	subs	r0, r0, r7
   1e75e:	2e00      	cmp	r6, #0
   1e760:	d10b      	bne.n	1e77a <QRspec_getEccSpec+0x4a>
   1e762:	0029      	movs	r1, r5
   1e764:	f001 f864 	bl	1f830 <__aeabi_idiv>
   1e768:	0029      	movs	r1, r5
   1e76a:	6060      	str	r0, [r4, #4]
   1e76c:	0038      	movs	r0, r7
   1e76e:	f001 f85f 	bl	1f830 <__aeabi_idiv>
   1e772:	6126      	str	r6, [r4, #16]
   1e774:	60a0      	str	r0, [r4, #8]
   1e776:	60e6      	str	r6, [r4, #12]
   1e778:	e00e      	b.n	1e798 <QRspec_getEccSpec+0x68>
   1e77a:	19ad      	adds	r5, r5, r6
   1e77c:	0029      	movs	r1, r5
   1e77e:	f001 f857 	bl	1f830 <__aeabi_idiv>
   1e782:	0029      	movs	r1, r5
   1e784:	9001      	str	r0, [sp, #4]
   1e786:	6060      	str	r0, [r4, #4]
   1e788:	0038      	movs	r0, r7
   1e78a:	f001 f851 	bl	1f830 <__aeabi_idiv>
   1e78e:	9b01      	ldr	r3, [sp, #4]
   1e790:	60a0      	str	r0, [r4, #8]
   1e792:	3301      	adds	r3, #1
   1e794:	60e6      	str	r6, [r4, #12]
   1e796:	6123      	str	r3, [r4, #16]
   1e798:	bdf7      	pop	{r0, r1, r2, r4, r5, r6, r7, pc}
   1e79a:	46c0      	nop			; (mov r8, r8)
   1e79c:	feec 0001 	cdp2	0, 14, cr0, cr12, cr1, {0}
   1e7a0:	0440      	lsls	r0, r0, #17
   1e7a2:	0002      	movs	r2, r0

0001e7a4 <QRspec_getVersionPattern>:
   1e7a4:	1fc3      	subs	r3, r0, #7
   1e7a6:	2000      	movs	r0, #0
   1e7a8:	2b21      	cmp	r3, #33	; 0x21
   1e7aa:	d802      	bhi.n	1e7b2 <QRspec_getVersionPattern+0xe>
   1e7ac:	4a01      	ldr	r2, [pc, #4]	; (1e7b4 <QRspec_getVersionPattern+0x10>)
   1e7ae:	009b      	lsls	r3, r3, #2
   1e7b0:	5898      	ldr	r0, [r3, r2]
   1e7b2:	4770      	bx	lr
   1e7b4:	08bc      	lsrs	r4, r7, #2
   1e7b6:	0002      	movs	r2, r0

0001e7b8 <QRspec_getFormatInfo>:
   1e7b8:	0003      	movs	r3, r0
   1e7ba:	2000      	movs	r0, #0
   1e7bc:	2b07      	cmp	r3, #7
   1e7be:	d804      	bhi.n	1e7ca <QRspec_getFormatInfo+0x12>
   1e7c0:	00c9      	lsls	r1, r1, #3
   1e7c2:	18cb      	adds	r3, r1, r3
   1e7c4:	4a01      	ldr	r2, [pc, #4]	; (1e7cc <QRspec_getFormatInfo+0x14>)
   1e7c6:	009b      	lsls	r3, r3, #2
   1e7c8:	5898      	ldr	r0, [r3, r2]
   1e7ca:	4770      	bx	lr
   1e7cc:	fe3c 0001 	cdp2	0, 3, cr0, cr12, cr1, {0}

0001e7d0 <QRspec_newFrame>:
   1e7d0:	0003      	movs	r3, r0
   1e7d2:	b5f0      	push	{r4, r5, r6, r7, lr}
   1e7d4:	3b01      	subs	r3, #1
   1e7d6:	b089      	sub	sp, #36	; 0x24
   1e7d8:	9003      	str	r0, [sp, #12]
   1e7da:	2b27      	cmp	r3, #39	; 0x27
   1e7dc:	d901      	bls.n	1e7e2 <QRspec_newFrame+0x12>
   1e7de:	2000      	movs	r0, #0
   1e7e0:	e116      	b.n	1ea10 <QRspec_newFrame+0x240>
   1e7e2:	231c      	movs	r3, #28
   1e7e4:	9a03      	ldr	r2, [sp, #12]
   1e7e6:	4353      	muls	r3, r2
   1e7e8:	4a8a      	ldr	r2, [pc, #552]	; (1ea14 <QRspec_newFrame+0x244>)
   1e7ea:	589f      	ldr	r7, [r3, r2]
   1e7ec:	003c      	movs	r4, r7
   1e7ee:	437c      	muls	r4, r7
   1e7f0:	0020      	movs	r0, r4
   1e7f2:	f001 f955 	bl	1faa0 <malloc>
   1e7f6:	9001      	str	r0, [sp, #4]
   1e7f8:	2800      	cmp	r0, #0
   1e7fa:	d0f0      	beq.n	1e7de <QRspec_newFrame+0xe>
   1e7fc:	0022      	movs	r2, r4
   1e7fe:	2100      	movs	r1, #0
   1e800:	f001 f980 	bl	1fb04 <memset>
   1e804:	2300      	movs	r3, #0
   1e806:	1ffc      	subs	r4, r7, #7
   1e808:	001a      	movs	r2, r3
   1e80a:	0039      	movs	r1, r7
   1e80c:	9801      	ldr	r0, [sp, #4]
   1e80e:	f7ff ff09 	bl	1e624 <putFinderPattern>
   1e812:	0022      	movs	r2, r4
   1e814:	2300      	movs	r3, #0
   1e816:	0039      	movs	r1, r7
   1e818:	9801      	ldr	r0, [sp, #4]
   1e81a:	f7ff ff03 	bl	1e624 <putFinderPattern>
   1e81e:	0023      	movs	r3, r4
   1e820:	2200      	movs	r2, #0
   1e822:	0039      	movs	r1, r7
   1e824:	9801      	ldr	r0, [sp, #4]
   1e826:	f7ff fefd 	bl	1e624 <putFinderPattern>
   1e82a:	2207      	movs	r2, #7
   1e82c:	20c0      	movs	r0, #192	; 0xc0
   1e82e:	437c      	muls	r4, r7
   1e830:	9b01      	ldr	r3, [sp, #4]
   1e832:	1919      	adds	r1, r3, r4
   1e834:	71d8      	strb	r0, [r3, #7]
   1e836:	19db      	adds	r3, r3, r7
   1e838:	001d      	movs	r5, r3
   1e83a:	3a01      	subs	r2, #1
   1e83c:	3d08      	subs	r5, #8
   1e83e:	7028      	strb	r0, [r5, #0]
   1e840:	71c8      	strb	r0, [r1, #7]
   1e842:	19c9      	adds	r1, r1, r7
   1e844:	2a00      	cmp	r2, #0
   1e846:	d1f5      	bne.n	1e834 <QRspec_newFrame+0x64>
   1e848:	2607      	movs	r6, #7
   1e84a:	437e      	muls	r6, r7
   1e84c:	9b01      	ldr	r3, [sp, #4]
   1e84e:	3208      	adds	r2, #8
   1e850:	199e      	adds	r6, r3, r6
   1e852:	21c0      	movs	r1, #192	; 0xc0
   1e854:	0030      	movs	r0, r6
   1e856:	00fd      	lsls	r5, r7, #3
   1e858:	f001 f954 	bl	1fb04 <memset>
   1e85c:	0028      	movs	r0, r5
   1e85e:	9b01      	ldr	r3, [sp, #4]
   1e860:	3808      	subs	r0, #8
   1e862:	1818      	adds	r0, r3, r0
   1e864:	2208      	movs	r2, #8
   1e866:	21c0      	movs	r1, #192	; 0xc0
   1e868:	f001 f94c 	bl	1fb04 <memset>
   1e86c:	1be3      	subs	r3, r4, r7
   1e86e:	9306      	str	r3, [sp, #24]
   1e870:	9b01      	ldr	r3, [sp, #4]
   1e872:	1be2      	subs	r2, r4, r7
   1e874:	1898      	adds	r0, r3, r2
   1e876:	21c0      	movs	r1, #192	; 0xc0
   1e878:	2208      	movs	r2, #8
   1e87a:	f001 f943 	bl	1fb04 <memset>
   1e87e:	2209      	movs	r2, #9
   1e880:	2184      	movs	r1, #132	; 0x84
   1e882:	19f0      	adds	r0, r6, r7
   1e884:	f001 f93e 	bl	1fb04 <memset>
   1e888:	2009      	movs	r0, #9
   1e88a:	4378      	muls	r0, r7
   1e88c:	9b01      	ldr	r3, [sp, #4]
   1e88e:	3808      	subs	r0, #8
   1e890:	1818      	adds	r0, r3, r0
   1e892:	2208      	movs	r2, #8
   1e894:	2184      	movs	r1, #132	; 0x84
   1e896:	f001 f935 	bl	1fb04 <memset>
   1e89a:	2308      	movs	r3, #8
   1e89c:	2184      	movs	r1, #132	; 0x84
   1e89e:	9a01      	ldr	r2, [sp, #4]
   1e8a0:	3208      	adds	r2, #8
   1e8a2:	3b01      	subs	r3, #1
   1e8a4:	7011      	strb	r1, [r2, #0]
   1e8a6:	19d2      	adds	r2, r2, r7
   1e8a8:	2b00      	cmp	r3, #0
   1e8aa:	d1fa      	bne.n	1e8a2 <QRspec_newFrame+0xd2>
   1e8ac:	9b01      	ldr	r3, [sp, #4]
   1e8ae:	3408      	adds	r4, #8
   1e8b0:	191c      	adds	r4, r3, r4
   1e8b2:	2284      	movs	r2, #132	; 0x84
   1e8b4:	2307      	movs	r3, #7
   1e8b6:	3b01      	subs	r3, #1
   1e8b8:	7022      	strb	r2, [r4, #0]
   1e8ba:	19e4      	adds	r4, r4, r7
   1e8bc:	2b00      	cmp	r3, #0
   1e8be:	d1fa      	bne.n	1e8b6 <QRspec_newFrame+0xe6>
   1e8c0:	220f      	movs	r2, #15
   1e8c2:	2606      	movs	r6, #6
   1e8c4:	9b01      	ldr	r3, [sp, #4]
   1e8c6:	4252      	negs	r2, r2
   1e8c8:	3506      	adds	r5, #6
   1e8ca:	4694      	mov	ip, r2
   1e8cc:	2470      	movs	r4, #112	; 0x70
   1e8ce:	195d      	adds	r5, r3, r5
   1e8d0:	2301      	movs	r3, #1
   1e8d2:	437e      	muls	r6, r7
   1e8d4:	44bc      	add	ip, r7
   1e8d6:	3608      	adds	r6, #8
   1e8d8:	4264      	negs	r4, r4
   1e8da:	4563      	cmp	r3, ip
   1e8dc:	da0c      	bge.n	1e8f8 <QRspec_newFrame+0x128>
   1e8de:	001a      	movs	r2, r3
   1e8e0:	2101      	movs	r1, #1
   1e8e2:	400a      	ands	r2, r1
   1e8e4:	4322      	orrs	r2, r4
   1e8e6:	1999      	adds	r1, r3, r6
   1e8e8:	9801      	ldr	r0, [sp, #4]
   1e8ea:	b2d2      	uxtb	r2, r2
   1e8ec:	3901      	subs	r1, #1
   1e8ee:	5442      	strb	r2, [r0, r1]
   1e8f0:	3301      	adds	r3, #1
   1e8f2:	702a      	strb	r2, [r5, #0]
   1e8f4:	19ed      	adds	r5, r5, r7
   1e8f6:	e7f0      	b.n	1e8da <QRspec_newFrame+0x10a>
   1e8f8:	9b03      	ldr	r3, [sp, #12]
   1e8fa:	2b01      	cmp	r3, #1
   1e8fc:	d100      	bne.n	1e900 <QRspec_newFrame+0x130>
   1e8fe:	e080      	b.n	1ea02 <QRspec_newFrame+0x232>
   1e900:	4a45      	ldr	r2, [pc, #276]	; (1ea18 <QRspec_newFrame+0x248>)
   1e902:	00db      	lsls	r3, r3, #3
   1e904:	5899      	ldr	r1, [r3, r2]
   1e906:	18d3      	adds	r3, r2, r3
   1e908:	685b      	ldr	r3, [r3, #4]
   1e90a:	9102      	str	r1, [sp, #8]
   1e90c:	1a5b      	subs	r3, r3, r1
   1e90e:	9304      	str	r3, [sp, #16]
   1e910:	d40b      	bmi.n	1e92a <QRspec_newFrame+0x15a>
   1e912:	1a78      	subs	r0, r7, r1
   1e914:	9904      	ldr	r1, [sp, #16]
   1e916:	f000 ff8b 	bl	1f830 <__aeabi_idiv>
   1e91a:	1c85      	adds	r5, r0, #2
   1e91c:	002b      	movs	r3, r5
   1e91e:	436b      	muls	r3, r5
   1e920:	2b04      	cmp	r3, #4
   1e922:	d002      	beq.n	1e92a <QRspec_newFrame+0x15a>
   1e924:	9c02      	ldr	r4, [sp, #8]
   1e926:	2601      	movs	r6, #1
   1e928:	e006      	b.n	1e938 <QRspec_newFrame+0x168>
   1e92a:	9b02      	ldr	r3, [sp, #8]
   1e92c:	0039      	movs	r1, r7
   1e92e:	001a      	movs	r2, r3
   1e930:	9801      	ldr	r0, [sp, #4]
   1e932:	f7ff fe61 	bl	1e5f8 <QRspec_putAlignmentMarker>
   1e936:	e02e      	b.n	1e996 <QRspec_newFrame+0x1c6>
   1e938:	1e6b      	subs	r3, r5, #1
   1e93a:	9307      	str	r3, [sp, #28]
   1e93c:	429e      	cmp	r6, r3
   1e93e:	da0f      	bge.n	1e960 <QRspec_newFrame+0x190>
   1e940:	0023      	movs	r3, r4
   1e942:	2206      	movs	r2, #6
   1e944:	0039      	movs	r1, r7
   1e946:	9801      	ldr	r0, [sp, #4]
   1e948:	f7ff fe56 	bl	1e5f8 <QRspec_putAlignmentMarker>
   1e94c:	2306      	movs	r3, #6
   1e94e:	0022      	movs	r2, r4
   1e950:	0039      	movs	r1, r7
   1e952:	9801      	ldr	r0, [sp, #4]
   1e954:	f7ff fe50 	bl	1e5f8 <QRspec_putAlignmentMarker>
   1e958:	9b04      	ldr	r3, [sp, #16]
   1e95a:	3601      	adds	r6, #1
   1e95c:	18e4      	adds	r4, r4, r3
   1e95e:	e7eb      	b.n	1e938 <QRspec_newFrame+0x168>
   1e960:	2300      	movs	r3, #0
   1e962:	9e02      	ldr	r6, [sp, #8]
   1e964:	9305      	str	r3, [sp, #20]
   1e966:	9a05      	ldr	r2, [sp, #20]
   1e968:	9b07      	ldr	r3, [sp, #28]
   1e96a:	4293      	cmp	r3, r2
   1e96c:	dd13      	ble.n	1e996 <QRspec_newFrame+0x1c6>
   1e96e:	2400      	movs	r4, #0
   1e970:	9d02      	ldr	r5, [sp, #8]
   1e972:	9b07      	ldr	r3, [sp, #28]
   1e974:	42a3      	cmp	r3, r4
   1e976:	dd09      	ble.n	1e98c <QRspec_newFrame+0x1bc>
   1e978:	0033      	movs	r3, r6
   1e97a:	002a      	movs	r2, r5
   1e97c:	0039      	movs	r1, r7
   1e97e:	9801      	ldr	r0, [sp, #4]
   1e980:	f7ff fe3a 	bl	1e5f8 <QRspec_putAlignmentMarker>
   1e984:	9b04      	ldr	r3, [sp, #16]
   1e986:	3401      	adds	r4, #1
   1e988:	18ed      	adds	r5, r5, r3
   1e98a:	e7f2      	b.n	1e972 <QRspec_newFrame+0x1a2>
   1e98c:	9b04      	ldr	r3, [sp, #16]
   1e98e:	18f6      	adds	r6, r6, r3
   1e990:	9b05      	ldr	r3, [sp, #20]
   1e992:	3301      	adds	r3, #1
   1e994:	e7e6      	b.n	1e964 <QRspec_newFrame+0x194>
   1e996:	9b03      	ldr	r3, [sp, #12]
   1e998:	2b06      	cmp	r3, #6
   1e99a:	dd32      	ble.n	1ea02 <QRspec_newFrame+0x232>
   1e99c:	0018      	movs	r0, r3
   1e99e:	f7ff ff01 	bl	1e7a4 <QRspec_getVersionPattern>
   1e9a2:	2303      	movs	r3, #3
   1e9a4:	437b      	muls	r3, r7
   1e9a6:	9a06      	ldr	r2, [sp, #24]
   1e9a8:	2678      	movs	r6, #120	; 0x78
   1e9aa:	1ad3      	subs	r3, r2, r3
   1e9ac:	469c      	mov	ip, r3
   1e9ae:	0004      	movs	r4, r0
   1e9b0:	2300      	movs	r3, #0
   1e9b2:	4276      	negs	r6, r6
   1e9b4:	4662      	mov	r2, ip
   1e9b6:	9901      	ldr	r1, [sp, #4]
   1e9b8:	189a      	adds	r2, r3, r2
   1e9ba:	188a      	adds	r2, r1, r2
   1e9bc:	2103      	movs	r1, #3
   1e9be:	2501      	movs	r5, #1
   1e9c0:	4025      	ands	r5, r4
   1e9c2:	4335      	orrs	r5, r6
   1e9c4:	3901      	subs	r1, #1
   1e9c6:	7015      	strb	r5, [r2, #0]
   1e9c8:	0864      	lsrs	r4, r4, #1
   1e9ca:	19d2      	adds	r2, r2, r7
   1e9cc:	2900      	cmp	r1, #0
   1e9ce:	d1f6      	bne.n	1e9be <QRspec_newFrame+0x1ee>
   1e9d0:	3301      	adds	r3, #1
   1e9d2:	2b06      	cmp	r3, #6
   1e9d4:	d1ee      	bne.n	1e9b4 <QRspec_newFrame+0x1e4>
   1e9d6:	003a      	movs	r2, r7
   1e9d8:	2678      	movs	r6, #120	; 0x78
   1e9da:	2501      	movs	r5, #1
   1e9dc:	9901      	ldr	r1, [sp, #4]
   1e9de:	3a0b      	subs	r2, #11
   1e9e0:	188a      	adds	r2, r1, r2
   1e9e2:	4276      	negs	r6, r6
   1e9e4:	1cd4      	adds	r4, r2, #3
   1e9e6:	0011      	movs	r1, r2
   1e9e8:	46a4      	mov	ip, r4
   1e9ea:	0004      	movs	r4, r0
   1e9ec:	402c      	ands	r4, r5
   1e9ee:	4334      	orrs	r4, r6
   1e9f0:	700c      	strb	r4, [r1, #0]
   1e9f2:	3101      	adds	r1, #1
   1e9f4:	0840      	lsrs	r0, r0, #1
   1e9f6:	458c      	cmp	ip, r1
   1e9f8:	d1f7      	bne.n	1e9ea <QRspec_newFrame+0x21a>
   1e9fa:	3b01      	subs	r3, #1
   1e9fc:	19d2      	adds	r2, r2, r7
   1e9fe:	2b00      	cmp	r3, #0
   1ea00:	d1f0      	bne.n	1e9e4 <QRspec_newFrame+0x214>
   1ea02:	9a01      	ldr	r2, [sp, #4]
   1ea04:	9b06      	ldr	r3, [sp, #24]
   1ea06:	4694      	mov	ip, r2
   1ea08:	2281      	movs	r2, #129	; 0x81
   1ea0a:	4660      	mov	r0, ip
   1ea0c:	4463      	add	r3, ip
   1ea0e:	721a      	strb	r2, [r3, #8]
   1ea10:	b009      	add	sp, #36	; 0x24
   1ea12:	bdf0      	pop	{r4, r5, r6, r7, pc}
   1ea14:	0440      	lsls	r0, r0, #17
   1ea16:	0002      	movs	r2, r0
   1ea18:	0960      	lsrs	r0, r4, #5
   1ea1a:	0002      	movs	r2, r0

0001ea1c <FrameFiller_next>:
   1ea1c:	b5f0      	push	{r4, r5, r6, r7, lr}
   1ea1e:	0002      	movs	r2, r0
   1ea20:	2501      	movs	r5, #1
   1ea22:	6951      	ldr	r1, [r2, #20]
   1ea24:	68d3      	ldr	r3, [r2, #12]
   1ea26:	6810      	ldr	r0, [r2, #0]
   1ea28:	6897      	ldr	r7, [r2, #8]
   1ea2a:	6854      	ldr	r4, [r2, #4]
   1ea2c:	1c4e      	adds	r6, r1, #1
   1ea2e:	d105      	bne.n	1ea3c <FrameFiller_next+0x20>
   1ea30:	2100      	movs	r1, #0
   1ea32:	4343      	muls	r3, r0
   1ea34:	19db      	adds	r3, r3, r7
   1ea36:	6151      	str	r1, [r2, #20]
   1ea38:	18e0      	adds	r0, r4, r3
   1ea3a:	e03c      	b.n	1eab6 <FrameFiller_next+0x9a>
   1ea3c:	6916      	ldr	r6, [r2, #16]
   1ea3e:	46b4      	mov	ip, r6
   1ea40:	2900      	cmp	r1, #0
   1ea42:	d102      	bne.n	1ea4a <FrameFiller_next+0x2e>
   1ea44:	3f01      	subs	r7, #1
   1ea46:	6155      	str	r5, [r2, #20]
   1ea48:	e003      	b.n	1ea52 <FrameFiller_next+0x36>
   1ea4a:	3901      	subs	r1, #1
   1ea4c:	3701      	adds	r7, #1
   1ea4e:	4463      	add	r3, ip
   1ea50:	6151      	str	r1, [r2, #20]
   1ea52:	4661      	mov	r1, ip
   1ea54:	2900      	cmp	r1, #0
   1ea56:	da0d      	bge.n	1ea74 <FrameFiller_next+0x58>
   1ea58:	0039      	movs	r1, r7
   1ea5a:	2b00      	cmp	r3, #0
   1ea5c:	da28      	bge.n	1eab0 <FrameFiller_next+0x94>
   1ea5e:	2300      	movs	r3, #0
   1ea60:	6996      	ldr	r6, [r2, #24]
   1ea62:	3902      	subs	r1, #2
   1ea64:	6115      	str	r5, [r2, #16]
   1ea66:	429e      	cmp	r6, r3
   1ea68:	d122      	bne.n	1eab0 <FrameFiller_next+0x94>
   1ea6a:	2906      	cmp	r1, #6
   1ea6c:	d120      	bne.n	1eab0 <FrameFiller_next+0x94>
   1ea6e:	1ef9      	subs	r1, r7, #3
   1ea70:	3309      	adds	r3, #9
   1ea72:	e01d      	b.n	1eab0 <FrameFiller_next+0x94>
   1ea74:	0039      	movs	r1, r7
   1ea76:	4283      	cmp	r3, r0
   1ea78:	d10b      	bne.n	1ea92 <FrameFiller_next+0x76>
   1ea7a:	2601      	movs	r6, #1
   1ea7c:	4276      	negs	r6, r6
   1ea7e:	6116      	str	r6, [r2, #16]
   1ea80:	6996      	ldr	r6, [r2, #24]
   1ea82:	1e43      	subs	r3, r0, #1
   1ea84:	1eb9      	subs	r1, r7, #2
   1ea86:	2e00      	cmp	r6, #0
   1ea88:	d103      	bne.n	1ea92 <FrameFiller_next+0x76>
   1ea8a:	2906      	cmp	r1, #6
   1ea8c:	d101      	bne.n	1ea92 <FrameFiller_next+0x76>
   1ea8e:	1ef9      	subs	r1, r7, #3
   1ea90:	3b08      	subs	r3, #8
   1ea92:	2900      	cmp	r1, #0
   1ea94:	da01      	bge.n	1ea9a <FrameFiller_next+0x7e>
   1ea96:	2000      	movs	r0, #0
   1ea98:	e00d      	b.n	1eab6 <FrameFiller_next+0x9a>
   1ea9a:	2b00      	cmp	r3, #0
   1ea9c:	dbfb      	blt.n	1ea96 <FrameFiller_next+0x7a>
   1ea9e:	60d3      	str	r3, [r2, #12]
   1eaa0:	4343      	muls	r3, r0
   1eaa2:	185b      	adds	r3, r3, r1
   1eaa4:	6091      	str	r1, [r2, #8]
   1eaa6:	18e0      	adds	r0, r4, r3
   1eaa8:	7803      	ldrb	r3, [r0, #0]
   1eaaa:	2b7f      	cmp	r3, #127	; 0x7f
   1eaac:	d8b9      	bhi.n	1ea22 <FrameFiller_next+0x6>
   1eaae:	e002      	b.n	1eab6 <FrameFiller_next+0x9a>
   1eab0:	2900      	cmp	r1, #0
   1eab2:	daf4      	bge.n	1ea9e <FrameFiller_next+0x82>
   1eab4:	e7ef      	b.n	1ea96 <FrameFiller_next+0x7a>
   1eab6:	bdf0      	pop	{r4, r5, r6, r7, pc}

0001eab8 <QRraw_getCode>:
   1eab8:	b5f7      	push	{r0, r1, r2, r4, r5, r6, r7, lr}
   1eaba:	6a05      	ldr	r5, [r0, #32]
   1eabc:	6846      	ldr	r6, [r0, #4]
   1eabe:	0004      	movs	r4, r0
   1eac0:	42b5      	cmp	r5, r6
   1eac2:	da13      	bge.n	1eaec <QRraw_getCode+0x34>
   1eac4:	6987      	ldr	r7, [r0, #24]
   1eac6:	0028      	movs	r0, r5
   1eac8:	0039      	movs	r1, r7
   1eaca:	f000 ff97 	bl	1f9fc <__aeabi_idivmod>
   1eace:	0028      	movs	r0, r5
   1ead0:	000e      	movs	r6, r1
   1ead2:	0039      	movs	r1, r7
   1ead4:	f000 feac 	bl	1f830 <__aeabi_idiv>
   1ead8:	69e3      	ldr	r3, [r4, #28]
   1eada:	681a      	ldr	r2, [r3, #0]
   1eadc:	4290      	cmp	r0, r2
   1eade:	db01      	blt.n	1eae4 <QRraw_getCode+0x2c>
   1eae0:	6962      	ldr	r2, [r4, #20]
   1eae2:	18b6      	adds	r6, r6, r2
   1eae4:	0136      	lsls	r6, r6, #4
   1eae6:	199e      	adds	r6, r3, r6
   1eae8:	6873      	ldr	r3, [r6, #4]
   1eaea:	e017      	b.n	1eb1c <QRraw_getCode+0x64>
   1eaec:	6883      	ldr	r3, [r0, #8]
   1eaee:	2000      	movs	r0, #0
   1eaf0:	18f3      	adds	r3, r6, r3
   1eaf2:	429d      	cmp	r5, r3
   1eaf4:	da15      	bge.n	1eb22 <QRraw_getCode+0x6a>
   1eaf6:	69a7      	ldr	r7, [r4, #24]
   1eaf8:	1bae      	subs	r6, r5, r6
   1eafa:	0039      	movs	r1, r7
   1eafc:	0030      	movs	r0, r6
   1eafe:	f000 ff7d 	bl	1f9fc <__aeabi_idivmod>
   1eb02:	69e3      	ldr	r3, [r4, #28]
   1eb04:	0030      	movs	r0, r6
   1eb06:	9300      	str	r3, [sp, #0]
   1eb08:	010b      	lsls	r3, r1, #4
   1eb0a:	0039      	movs	r1, r7
   1eb0c:	9301      	str	r3, [sp, #4]
   1eb0e:	f000 fe8f 	bl	1f830 <__aeabi_idiv>
   1eb12:	9a01      	ldr	r2, [sp, #4]
   1eb14:	9b00      	ldr	r3, [sp, #0]
   1eb16:	4694      	mov	ip, r2
   1eb18:	4463      	add	r3, ip
   1eb1a:	68db      	ldr	r3, [r3, #12]
   1eb1c:	3501      	adds	r5, #1
   1eb1e:	5c18      	ldrb	r0, [r3, r0]
   1eb20:	6225      	str	r5, [r4, #32]
   1eb22:	bdfe      	pop	{r1, r2, r3, r4, r5, r6, r7, pc}

0001eb24 <QRraw_free>:
   1eb24:	b510      	push	{r4, lr}
   1eb26:	1e04      	subs	r4, r0, #0
   1eb28:	d00b      	beq.n	1eb42 <QRraw_free+0x1e>
   1eb2a:	68c0      	ldr	r0, [r0, #12]
   1eb2c:	f000 ffc2 	bl	1fab4 <free>
   1eb30:	6920      	ldr	r0, [r4, #16]
   1eb32:	f000 ffbf 	bl	1fab4 <free>
   1eb36:	69e0      	ldr	r0, [r4, #28]
   1eb38:	f000 ffbc 	bl	1fab4 <free>
   1eb3c:	0020      	movs	r0, r4
   1eb3e:	f000 ffb9 	bl	1fab4 <free>
   1eb42:	bd10      	pop	{r4, pc}

0001eb44 <QRraw_new>:
   1eb44:	b5f0      	push	{r4, r5, r6, r7, lr}
   1eb46:	0006      	movs	r6, r0
   1eb48:	b08b      	sub	sp, #44	; 0x2c
   1eb4a:	2024      	movs	r0, #36	; 0x24
   1eb4c:	f000 ffa8 	bl	1faa0 <malloc>
   1eb50:	1e04      	subs	r4, r0, #0
   1eb52:	d100      	bne.n	1eb56 <QRraw_new+0x12>
   1eb54:	e07f      	b.n	1ec56 <QRraw_new+0x112>
   1eb56:	0030      	movs	r0, r6
   1eb58:	f7ff f9d7 	bl	1df0a <QRinput_getByteStream>
   1eb5c:	1e05      	subs	r5, r0, #0
   1eb5e:	60e0      	str	r0, [r4, #12]
   1eb60:	d103      	bne.n	1eb6a <QRraw_new+0x26>
   1eb62:	0020      	movs	r0, r4
   1eb64:	f000 ffa6 	bl	1fab4 <free>
   1eb68:	e030      	b.n	1ebcc <QRraw_new+0x88>
   1eb6a:	7931      	ldrb	r1, [r6, #4]
   1eb6c:	6830      	ldr	r0, [r6, #0]
   1eb6e:	aa05      	add	r2, sp, #20
   1eb70:	f7ff fdde 	bl	1e730 <QRspec_getEccSpec>
   1eb74:	9a09      	ldr	r2, [sp, #36]	; 0x24
   1eb76:	9f06      	ldr	r7, [sp, #24]
   1eb78:	9201      	str	r2, [sp, #4]
   1eb7a:	0011      	movs	r1, r2
   1eb7c:	003a      	movs	r2, r7
   1eb7e:	6833      	ldr	r3, [r6, #0]
   1eb80:	9d08      	ldr	r5, [sp, #32]
   1eb82:	6023      	str	r3, [r4, #0]
   1eb84:	9b05      	ldr	r3, [sp, #20]
   1eb86:	4369      	muls	r1, r5
   1eb88:	6163      	str	r3, [r4, #20]
   1eb8a:	435a      	muls	r2, r3
   1eb8c:	195d      	adds	r5, r3, r5
   1eb8e:	9b07      	ldr	r3, [sp, #28]
   1eb90:	188a      	adds	r2, r1, r2
   1eb92:	0018      	movs	r0, r3
   1eb94:	4368      	muls	r0, r5
   1eb96:	6062      	str	r2, [r4, #4]
   1eb98:	9302      	str	r3, [sp, #8]
   1eb9a:	60a0      	str	r0, [r4, #8]
   1eb9c:	f000 ff80 	bl	1faa0 <malloc>
   1eba0:	1e06      	subs	r6, r0, #0
   1eba2:	6120      	str	r0, [r4, #16]
   1eba4:	d107      	bne.n	1ebb6 <QRraw_new+0x72>
   1eba6:	68e0      	ldr	r0, [r4, #12]
   1eba8:	f000 ff84 	bl	1fab4 <free>
   1ebac:	0020      	movs	r0, r4
   1ebae:	f000 ff81 	bl	1fab4 <free>
   1ebb2:	0030      	movs	r0, r6
   1ebb4:	e04f      	b.n	1ec56 <QRraw_new+0x112>
   1ebb6:	0028      	movs	r0, r5
   1ebb8:	2110      	movs	r1, #16
   1ebba:	61a5      	str	r5, [r4, #24]
   1ebbc:	f000 ff24 	bl	1fa08 <calloc>
   1ebc0:	1e05      	subs	r5, r0, #0
   1ebc2:	61e0      	str	r0, [r4, #28]
   1ebc4:	d104      	bne.n	1ebd0 <QRraw_new+0x8c>
   1ebc6:	0020      	movs	r0, r4
   1ebc8:	f7ff ffac 	bl	1eb24 <QRraw_free>
   1ebcc:	0028      	movs	r0, r5
   1ebce:	e042      	b.n	1ec56 <QRraw_new+0x112>
   1ebd0:	68e3      	ldr	r3, [r4, #12]
   1ebd2:	9301      	str	r3, [sp, #4]
   1ebd4:	2300      	movs	r3, #0
   1ebd6:	9303      	str	r3, [sp, #12]
   1ebd8:	9b03      	ldr	r3, [sp, #12]
   1ebda:	9a05      	ldr	r2, [sp, #20]
   1ebdc:	4293      	cmp	r3, r2
   1ebde:	da14      	bge.n	1ec0a <QRraw_new+0xc6>
   1ebe0:	9b01      	ldr	r3, [sp, #4]
   1ebe2:	60ee      	str	r6, [r5, #12]
   1ebe4:	606b      	str	r3, [r5, #4]
   1ebe6:	9b02      	ldr	r3, [sp, #8]
   1ebe8:	602f      	str	r7, [r5, #0]
   1ebea:	60ab      	str	r3, [r5, #8]
   1ebec:	9a01      	ldr	r2, [sp, #4]
   1ebee:	0033      	movs	r3, r6
   1ebf0:	9902      	ldr	r1, [sp, #8]
   1ebf2:	0038      	movs	r0, r7
   1ebf4:	f000 fd40 	bl	1f678 <RSECC_encode>
   1ebf8:	9b01      	ldr	r3, [sp, #4]
   1ebfa:	3510      	adds	r5, #16
   1ebfc:	19db      	adds	r3, r3, r7
   1ebfe:	9301      	str	r3, [sp, #4]
   1ec00:	9b02      	ldr	r3, [sp, #8]
   1ec02:	18f6      	adds	r6, r6, r3
   1ec04:	9b03      	ldr	r3, [sp, #12]
   1ec06:	3301      	adds	r3, #1
   1ec08:	e7e5      	b.n	1ebd6 <QRraw_new+0x92>
   1ec0a:	9b08      	ldr	r3, [sp, #32]
   1ec0c:	2b00      	cmp	r3, #0
   1ec0e:	d103      	bne.n	1ec18 <QRraw_new+0xd4>
   1ec10:	2300      	movs	r3, #0
   1ec12:	0020      	movs	r0, r4
   1ec14:	6223      	str	r3, [r4, #32]
   1ec16:	e01e      	b.n	1ec56 <QRraw_new+0x112>
   1ec18:	9b09      	ldr	r3, [sp, #36]	; 0x24
   1ec1a:	9f07      	ldr	r7, [sp, #28]
   1ec1c:	9302      	str	r3, [sp, #8]
   1ec1e:	2300      	movs	r3, #0
   1ec20:	9303      	str	r3, [sp, #12]
   1ec22:	9b03      	ldr	r3, [sp, #12]
   1ec24:	9a08      	ldr	r2, [sp, #32]
   1ec26:	4293      	cmp	r3, r2
   1ec28:	daf2      	bge.n	1ec10 <QRraw_new+0xcc>
   1ec2a:	9b02      	ldr	r3, [sp, #8]
   1ec2c:	60ee      	str	r6, [r5, #12]
   1ec2e:	602b      	str	r3, [r5, #0]
   1ec30:	9b01      	ldr	r3, [sp, #4]
   1ec32:	60af      	str	r7, [r5, #8]
   1ec34:	606b      	str	r3, [r5, #4]
   1ec36:	9a01      	ldr	r2, [sp, #4]
   1ec38:	0033      	movs	r3, r6
   1ec3a:	0039      	movs	r1, r7
   1ec3c:	9802      	ldr	r0, [sp, #8]
   1ec3e:	f000 fd1b 	bl	1f678 <RSECC_encode>
   1ec42:	9a02      	ldr	r2, [sp, #8]
   1ec44:	9b01      	ldr	r3, [sp, #4]
   1ec46:	4694      	mov	ip, r2
   1ec48:	4463      	add	r3, ip
   1ec4a:	9301      	str	r3, [sp, #4]
   1ec4c:	9b03      	ldr	r3, [sp, #12]
   1ec4e:	19f6      	adds	r6, r6, r7
   1ec50:	3510      	adds	r5, #16
   1ec52:	3301      	adds	r3, #1
   1ec54:	e7e4      	b.n	1ec20 <QRraw_new+0xdc>
   1ec56:	b00b      	add	sp, #44	; 0x2c
   1ec58:	bdf0      	pop	{r4, r5, r6, r7, pc}

0001ec5a <MQRraw_getCode>:
   1ec5a:	69c3      	ldr	r3, [r0, #28]
   1ec5c:	6841      	ldr	r1, [r0, #4]
   1ec5e:	b510      	push	{r4, lr}
   1ec60:	0002      	movs	r2, r0
   1ec62:	428b      	cmp	r3, r1
   1ec64:	da02      	bge.n	1ec6c <MQRraw_getCode+0x12>
   1ec66:	68c1      	ldr	r1, [r0, #12]
   1ec68:	5cc8      	ldrb	r0, [r1, r3]
   1ec6a:	e007      	b.n	1ec7c <MQRraw_getCode+0x22>
   1ec6c:	6880      	ldr	r0, [r0, #8]
   1ec6e:	180c      	adds	r4, r1, r0
   1ec70:	2000      	movs	r0, #0
   1ec72:	42a3      	cmp	r3, r4
   1ec74:	da04      	bge.n	1ec80 <MQRraw_getCode+0x26>
   1ec76:	6910      	ldr	r0, [r2, #16]
   1ec78:	1a59      	subs	r1, r3, r1
   1ec7a:	5c40      	ldrb	r0, [r0, r1]
   1ec7c:	3301      	adds	r3, #1
   1ec7e:	61d3      	str	r3, [r2, #28]
   1ec80:	bd10      	pop	{r4, pc}

0001ec82 <MQRraw_free>:
   1ec82:	b510      	push	{r4, lr}
   1ec84:	1e04      	subs	r4, r0, #0
   1ec86:	d00b      	beq.n	1eca0 <MQRraw_free+0x1e>
   1ec88:	68c0      	ldr	r0, [r0, #12]
   1ec8a:	f000 ff13 	bl	1fab4 <free>
   1ec8e:	6920      	ldr	r0, [r4, #16]
   1ec90:	f000 ff10 	bl	1fab4 <free>
   1ec94:	6960      	ldr	r0, [r4, #20]
   1ec96:	f000 ff0d 	bl	1fab4 <free>
   1ec9a:	0020      	movs	r0, r4
   1ec9c:	f000 ff0a 	bl	1fab4 <free>
   1eca0:	bd10      	pop	{r4, pc}

0001eca2 <MQRraw_new>:
   1eca2:	b5f7      	push	{r0, r1, r2, r4, r5, r6, r7, lr}
   1eca4:	0005      	movs	r5, r0
   1eca6:	2020      	movs	r0, #32
   1eca8:	f000 fefa 	bl	1faa0 <malloc>
   1ecac:	1e04      	subs	r4, r0, #0
   1ecae:	d049      	beq.n	1ed44 <MQRraw_new+0xa2>
   1ecb0:	682b      	ldr	r3, [r5, #0]
   1ecb2:	6003      	str	r3, [r0, #0]
   1ecb4:	7929      	ldrb	r1, [r5, #4]
   1ecb6:	0018      	movs	r0, r3
   1ecb8:	f000 fb70 	bl	1f39c <MQRspec_getDataLength>
   1ecbc:	6060      	str	r0, [r4, #4]
   1ecbe:	7929      	ldrb	r1, [r5, #4]
   1ecc0:	6828      	ldr	r0, [r5, #0]
   1ecc2:	f000 fb75 	bl	1f3b0 <MQRspec_getECCLength>
   1ecc6:	6863      	ldr	r3, [r4, #4]
   1ecc8:	60a0      	str	r0, [r4, #8]
   1ecca:	7929      	ldrb	r1, [r5, #4]
   1eccc:	6828      	ldr	r0, [r5, #0]
   1ecce:	00de      	lsls	r6, r3, #3
   1ecd0:	f000 fb4c 	bl	1f36c <MQRspec_getDataLengthBit>
   1ecd4:	1a36      	subs	r6, r6, r0
   1ecd6:	0028      	movs	r0, r5
   1ecd8:	61a6      	str	r6, [r4, #24]
   1ecda:	f7ff f916 	bl	1df0a <QRinput_getByteStream>
   1ecde:	1e06      	subs	r6, r0, #0
   1ece0:	60e0      	str	r0, [r4, #12]
   1ece2:	d104      	bne.n	1ecee <MQRraw_new+0x4c>
   1ece4:	0020      	movs	r0, r4
   1ece6:	f000 fee5 	bl	1fab4 <free>
   1ecea:	0030      	movs	r0, r6
   1ecec:	e02a      	b.n	1ed44 <MQRraw_new+0xa2>
   1ecee:	68a3      	ldr	r3, [r4, #8]
   1ecf0:	0018      	movs	r0, r3
   1ecf2:	9301      	str	r3, [sp, #4]
   1ecf4:	f000 fed4 	bl	1faa0 <malloc>
   1ecf8:	1e07      	subs	r7, r0, #0
   1ecfa:	6120      	str	r0, [r4, #16]
   1ecfc:	d107      	bne.n	1ed0e <MQRraw_new+0x6c>
   1ecfe:	0030      	movs	r0, r6
   1ed00:	f000 fed8 	bl	1fab4 <free>
   1ed04:	0020      	movs	r0, r4
   1ed06:	f000 fed5 	bl	1fab4 <free>
   1ed0a:	0038      	movs	r0, r7
   1ed0c:	e01a      	b.n	1ed44 <MQRraw_new+0xa2>
   1ed0e:	2110      	movs	r1, #16
   1ed10:	2001      	movs	r0, #1
   1ed12:	f000 fe79 	bl	1fa08 <calloc>
   1ed16:	1e05      	subs	r5, r0, #0
   1ed18:	6160      	str	r0, [r4, #20]
   1ed1a:	d104      	bne.n	1ed26 <MQRraw_new+0x84>
   1ed1c:	0020      	movs	r0, r4
   1ed1e:	f7ff ffb0 	bl	1ec82 <MQRraw_free>
   1ed22:	0028      	movs	r0, r5
   1ed24:	e00e      	b.n	1ed44 <MQRraw_new+0xa2>
   1ed26:	6863      	ldr	r3, [r4, #4]
   1ed28:	6046      	str	r6, [r0, #4]
   1ed2a:	6003      	str	r3, [r0, #0]
   1ed2c:	9b01      	ldr	r3, [sp, #4]
   1ed2e:	60c7      	str	r7, [r0, #12]
   1ed30:	6083      	str	r3, [r0, #8]
   1ed32:	0032      	movs	r2, r6
   1ed34:	003b      	movs	r3, r7
   1ed36:	9901      	ldr	r1, [sp, #4]
   1ed38:	6860      	ldr	r0, [r4, #4]
   1ed3a:	f000 fc9d 	bl	1f678 <RSECC_encode>
   1ed3e:	2300      	movs	r3, #0
   1ed40:	0020      	movs	r0, r4
   1ed42:	61e3      	str	r3, [r4, #28]
   1ed44:	bdfe      	pop	{r1, r2, r3, r4, r5, r6, r7, pc}

0001ed46 <QRcode_new>:
   1ed46:	b570      	push	{r4, r5, r6, lr}
   1ed48:	0006      	movs	r6, r0
   1ed4a:	200c      	movs	r0, #12
   1ed4c:	000d      	movs	r5, r1
   1ed4e:	0014      	movs	r4, r2
   1ed50:	f000 fea6 	bl	1faa0 <malloc>
   1ed54:	2800      	cmp	r0, #0
   1ed56:	d002      	beq.n	1ed5e <QRcode_new+0x18>
   1ed58:	6006      	str	r6, [r0, #0]
   1ed5a:	6045      	str	r5, [r0, #4]
   1ed5c:	6084      	str	r4, [r0, #8]
   1ed5e:	bd70      	pop	{r4, r5, r6, pc}

0001ed60 <QRcode_encodeMask>:
   1ed60:	b5f0      	push	{r4, r5, r6, r7, lr}
   1ed62:	6906      	ldr	r6, [r0, #16]
   1ed64:	b08f      	sub	sp, #60	; 0x3c
   1ed66:	0004      	movs	r4, r0
   1ed68:	9104      	str	r1, [sp, #16]
   1ed6a:	2e00      	cmp	r6, #0
   1ed6c:	d005      	beq.n	1ed7a <QRcode_encodeMask+0x1a>
   1ed6e:	f000 fe55 	bl	1fa1c <__errno>
   1ed72:	2316      	movs	r3, #22
   1ed74:	6003      	str	r3, [r0, #0]
   1ed76:	2000      	movs	r0, #0
   1ed78:	e095      	b.n	1eea6 <QRcode_encodeMask+0x146>
   1ed7a:	6803      	ldr	r3, [r0, #0]
   1ed7c:	2b28      	cmp	r3, #40	; 0x28
   1ed7e:	d8f6      	bhi.n	1ed6e <QRcode_encodeMask+0xe>
   1ed80:	7903      	ldrb	r3, [r0, #4]
   1ed82:	2b03      	cmp	r3, #3
   1ed84:	d904      	bls.n	1ed90 <QRcode_encodeMask+0x30>
   1ed86:	f000 fe49 	bl	1fa1c <__errno>
   1ed8a:	2316      	movs	r3, #22
   1ed8c:	6003      	str	r3, [r0, #0]
   1ed8e:	e089      	b.n	1eea4 <QRcode_encodeMask+0x144>
   1ed90:	f7ff fed8 	bl	1eb44 <QRraw_new>
   1ed94:	1e05      	subs	r5, r0, #0
   1ed96:	d100      	bne.n	1ed9a <QRcode_encodeMask+0x3a>
   1ed98:	e085      	b.n	1eea6 <QRcode_encodeMask+0x146>
   1ed9a:	6803      	ldr	r3, [r0, #0]
   1ed9c:	0018      	movs	r0, r3
   1ed9e:	9301      	str	r3, [sp, #4]
   1eda0:	f7ff fc7c 	bl	1e69c <QRspec_getWidth>
   1eda4:	9000      	str	r0, [sp, #0]
   1eda6:	9801      	ldr	r0, [sp, #4]
   1eda8:	f7ff fd12 	bl	1e7d0 <QRspec_newFrame>
   1edac:	1e07      	subs	r7, r0, #0
   1edae:	d103      	bne.n	1edb8 <QRcode_encodeMask+0x58>
   1edb0:	0028      	movs	r0, r5
   1edb2:	f7ff feb7 	bl	1eb24 <QRraw_free>
   1edb6:	e7de      	b.n	1ed76 <QRcode_encodeMask+0x16>
   1edb8:	9b00      	ldr	r3, [sp, #0]
   1edba:	9008      	str	r0, [sp, #32]
   1edbc:	9307      	str	r3, [sp, #28]
   1edbe:	3b01      	subs	r3, #1
   1edc0:	9309      	str	r3, [sp, #36]	; 0x24
   1edc2:	930a      	str	r3, [sp, #40]	; 0x28
   1edc4:	2301      	movs	r3, #1
   1edc6:	425b      	negs	r3, r3
   1edc8:	930b      	str	r3, [sp, #44]	; 0x2c
   1edca:	930c      	str	r3, [sp, #48]	; 0x30
   1edcc:	960d      	str	r6, [sp, #52]	; 0x34
   1edce:	9602      	str	r6, [sp, #8]
   1edd0:	68aa      	ldr	r2, [r5, #8]
   1edd2:	686b      	ldr	r3, [r5, #4]
   1edd4:	0028      	movs	r0, r5
   1edd6:	189b      	adds	r3, r3, r2
   1edd8:	9a02      	ldr	r2, [sp, #8]
   1edda:	429a      	cmp	r2, r3
   1eddc:	da1a      	bge.n	1ee14 <QRcode_encodeMask+0xb4>
   1edde:	f7ff fe6b 	bl	1eab8 <QRraw_getCode>
   1ede2:	2308      	movs	r3, #8
   1ede4:	2680      	movs	r6, #128	; 0x80
   1ede6:	9005      	str	r0, [sp, #20]
   1ede8:	9303      	str	r3, [sp, #12]
   1edea:	a807      	add	r0, sp, #28
   1edec:	f7ff fe16 	bl	1ea1c <FrameFiller_next>
   1edf0:	2800      	cmp	r0, #0
   1edf2:	d050      	beq.n	1ee96 <QRcode_encodeMask+0x136>
   1edf4:	9b05      	ldr	r3, [sp, #20]
   1edf6:	4033      	ands	r3, r6
   1edf8:	1e5a      	subs	r2, r3, #1
   1edfa:	4193      	sbcs	r3, r2
   1edfc:	3302      	adds	r3, #2
   1edfe:	7003      	strb	r3, [r0, #0]
   1ee00:	9b03      	ldr	r3, [sp, #12]
   1ee02:	0876      	lsrs	r6, r6, #1
   1ee04:	3b01      	subs	r3, #1
   1ee06:	9303      	str	r3, [sp, #12]
   1ee08:	2b00      	cmp	r3, #0
   1ee0a:	d1ee      	bne.n	1edea <QRcode_encodeMask+0x8a>
   1ee0c:	9b02      	ldr	r3, [sp, #8]
   1ee0e:	3301      	adds	r3, #1
   1ee10:	9302      	str	r3, [sp, #8]
   1ee12:	e7dd      	b.n	1edd0 <QRcode_encodeMask+0x70>
   1ee14:	f7ff fe86 	bl	1eb24 <QRraw_free>
   1ee18:	9801      	ldr	r0, [sp, #4]
   1ee1a:	f7ff fc47 	bl	1e6ac <QRspec_getRemainder>
   1ee1e:	2500      	movs	r5, #0
   1ee20:	0006      	movs	r6, r0
   1ee22:	42b5      	cmp	r5, r6
   1ee24:	da0a      	bge.n	1ee3c <QRcode_encodeMask+0xdc>
   1ee26:	a807      	add	r0, sp, #28
   1ee28:	f7ff fdf8 	bl	1ea1c <FrameFiller_next>
   1ee2c:	2800      	cmp	r0, #0
   1ee2e:	d101      	bne.n	1ee34 <QRcode_encodeMask+0xd4>
   1ee30:	2600      	movs	r6, #0
   1ee32:	e02e      	b.n	1ee92 <QRcode_encodeMask+0x132>
   1ee34:	2302      	movs	r3, #2
   1ee36:	3501      	adds	r5, #1
   1ee38:	7003      	strb	r3, [r0, #0]
   1ee3a:	e7f2      	b.n	1ee22 <QRcode_encodeMask+0xc2>
   1ee3c:	9b04      	ldr	r3, [sp, #16]
   1ee3e:	3302      	adds	r3, #2
   1ee40:	d10a      	bne.n	1ee58 <QRcode_encodeMask+0xf8>
   1ee42:	9d00      	ldr	r5, [sp, #0]
   1ee44:	436d      	muls	r5, r5
   1ee46:	0028      	movs	r0, r5
   1ee48:	f000 fe2a 	bl	1faa0 <malloc>
   1ee4c:	002a      	movs	r2, r5
   1ee4e:	0039      	movs	r1, r7
   1ee50:	0004      	movs	r4, r0
   1ee52:	f000 fe39 	bl	1fac8 <memcpy>
   1ee56:	e010      	b.n	1ee7a <QRcode_encodeMask+0x11a>
   1ee58:	9a04      	ldr	r2, [sp, #16]
   1ee5a:	7923      	ldrb	r3, [r4, #4]
   1ee5c:	2a00      	cmp	r2, #0
   1ee5e:	da05      	bge.n	1ee6c <QRcode_encodeMask+0x10c>
   1ee60:	001a      	movs	r2, r3
   1ee62:	0039      	movs	r1, r7
   1ee64:	9800      	ldr	r0, [sp, #0]
   1ee66:	f7ff fb6f 	bl	1e548 <Mask_mask>
   1ee6a:	e004      	b.n	1ee76 <QRcode_encodeMask+0x116>
   1ee6c:	9a04      	ldr	r2, [sp, #16]
   1ee6e:	0039      	movs	r1, r7
   1ee70:	9800      	ldr	r0, [sp, #0]
   1ee72:	f7ff fa53 	bl	1e31c <Mask_makeMask>
   1ee76:	1e04      	subs	r4, r0, #0
   1ee78:	d0da      	beq.n	1ee30 <QRcode_encodeMask+0xd0>
   1ee7a:	0022      	movs	r2, r4
   1ee7c:	9900      	ldr	r1, [sp, #0]
   1ee7e:	9801      	ldr	r0, [sp, #4]
   1ee80:	f7ff ff61 	bl	1ed46 <QRcode_new>
   1ee84:	2500      	movs	r5, #0
   1ee86:	1e06      	subs	r6, r0, #0
   1ee88:	42ae      	cmp	r6, r5
   1ee8a:	d105      	bne.n	1ee98 <QRcode_encodeMask+0x138>
   1ee8c:	0020      	movs	r0, r4
   1ee8e:	f000 fe11 	bl	1fab4 <free>
   1ee92:	0035      	movs	r5, r6
   1ee94:	e000      	b.n	1ee98 <QRcode_encodeMask+0x138>
   1ee96:	0006      	movs	r6, r0
   1ee98:	0028      	movs	r0, r5
   1ee9a:	f7ff fe43 	bl	1eb24 <QRraw_free>
   1ee9e:	0038      	movs	r0, r7
   1eea0:	f000 fe08 	bl	1fab4 <free>
   1eea4:	0030      	movs	r0, r6
   1eea6:	b00f      	add	sp, #60	; 0x3c
   1eea8:	bdf0      	pop	{r4, r5, r6, r7, pc}

0001eeaa <QRcode_encodeMaskMQR>:
   1eeaa:	b5f0      	push	{r4, r5, r6, r7, lr}
   1eeac:	6905      	ldr	r5, [r0, #16]
   1eeae:	b091      	sub	sp, #68	; 0x44
   1eeb0:	0006      	movs	r6, r0
   1eeb2:	9106      	str	r1, [sp, #24]
   1eeb4:	2d00      	cmp	r5, #0
   1eeb6:	d003      	beq.n	1eec0 <QRcode_encodeMaskMQR+0x16>
   1eeb8:	6803      	ldr	r3, [r0, #0]
   1eeba:	3b01      	subs	r3, #1
   1eebc:	2b03      	cmp	r3, #3
   1eebe:	d905      	bls.n	1eecc <QRcode_encodeMaskMQR+0x22>
   1eec0:	f000 fdac 	bl	1fa1c <__errno>
   1eec4:	2316      	movs	r3, #22
   1eec6:	6003      	str	r3, [r0, #0]
   1eec8:	2000      	movs	r0, #0
   1eeca:	e08f      	b.n	1efec <QRcode_encodeMaskMQR+0x142>
   1eecc:	7903      	ldrb	r3, [r0, #4]
   1eece:	2b02      	cmp	r3, #2
   1eed0:	d8f6      	bhi.n	1eec0 <QRcode_encodeMaskMQR+0x16>
   1eed2:	f7ff fee6 	bl	1eca2 <MQRraw_new>
   1eed6:	1e04      	subs	r4, r0, #0
   1eed8:	d100      	bne.n	1eedc <QRcode_encodeMaskMQR+0x32>
   1eeda:	e087      	b.n	1efec <QRcode_encodeMaskMQR+0x142>
   1eedc:	6807      	ldr	r7, [r0, #0]
   1eede:	0038      	movs	r0, r7
   1eee0:	f000 fa70 	bl	1f3c4 <MQRspec_getWidth>
   1eee4:	9001      	str	r0, [sp, #4]
   1eee6:	0038      	movs	r0, r7
   1eee8:	f000 fa9a 	bl	1f420 <MQRspec_newFrame>
   1eeec:	1e05      	subs	r5, r0, #0
   1eeee:	d103      	bne.n	1eef8 <QRcode_encodeMaskMQR+0x4e>
   1eef0:	0020      	movs	r0, r4
   1eef2:	f7ff fec6 	bl	1ec82 <MQRraw_free>
   1eef6:	e7e7      	b.n	1eec8 <QRcode_encodeMaskMQR+0x1e>
   1eef8:	9b01      	ldr	r3, [sp, #4]
   1eefa:	900a      	str	r0, [sp, #40]	; 0x28
   1eefc:	9309      	str	r3, [sp, #36]	; 0x24
   1eefe:	3b01      	subs	r3, #1
   1ef00:	930b      	str	r3, [sp, #44]	; 0x2c
   1ef02:	930c      	str	r3, [sp, #48]	; 0x30
   1ef04:	2301      	movs	r3, #1
   1ef06:	425b      	negs	r3, r3
   1ef08:	930d      	str	r3, [sp, #52]	; 0x34
   1ef0a:	930e      	str	r3, [sp, #56]	; 0x38
   1ef0c:	3302      	adds	r3, #2
   1ef0e:	930f      	str	r3, [sp, #60]	; 0x3c
   1ef10:	2300      	movs	r3, #0
   1ef12:	9302      	str	r3, [sp, #8]
   1ef14:	68a2      	ldr	r2, [r4, #8]
   1ef16:	6863      	ldr	r3, [r4, #4]
   1ef18:	0020      	movs	r0, r4
   1ef1a:	189b      	adds	r3, r3, r2
   1ef1c:	9a02      	ldr	r2, [sp, #8]
   1ef1e:	429a      	cmp	r2, r3
   1ef20:	da2b      	bge.n	1ef7a <QRcode_encodeMaskMQR+0xd0>
   1ef22:	f7ff fe9a 	bl	1ec5a <MQRraw_getCode>
   1ef26:	69a3      	ldr	r3, [r4, #24]
   1ef28:	9007      	str	r0, [sp, #28]
   1ef2a:	9303      	str	r3, [sp, #12]
   1ef2c:	2b00      	cmp	r3, #0
   1ef2e:	d004      	beq.n	1ef3a <QRcode_encodeMaskMQR+0x90>
   1ef30:	6863      	ldr	r3, [r4, #4]
   1ef32:	9a02      	ldr	r2, [sp, #8]
   1ef34:	3b01      	subs	r3, #1
   1ef36:	429a      	cmp	r2, r3
   1ef38:	d001      	beq.n	1ef3e <QRcode_encodeMaskMQR+0x94>
   1ef3a:	2308      	movs	r3, #8
   1ef3c:	9303      	str	r3, [sp, #12]
   1ef3e:	2300      	movs	r3, #0
   1ef40:	9305      	str	r3, [sp, #20]
   1ef42:	3380      	adds	r3, #128	; 0x80
   1ef44:	9304      	str	r3, [sp, #16]
   1ef46:	9b05      	ldr	r3, [sp, #20]
   1ef48:	9a03      	ldr	r2, [sp, #12]
   1ef4a:	4293      	cmp	r3, r2
   1ef4c:	da12      	bge.n	1ef74 <QRcode_encodeMaskMQR+0xca>
   1ef4e:	a809      	add	r0, sp, #36	; 0x24
   1ef50:	f7ff fd64 	bl	1ea1c <FrameFiller_next>
   1ef54:	2800      	cmp	r0, #0
   1ef56:	d03e      	beq.n	1efd6 <QRcode_encodeMaskMQR+0x12c>
   1ef58:	9a04      	ldr	r2, [sp, #16]
   1ef5a:	9b07      	ldr	r3, [sp, #28]
   1ef5c:	4013      	ands	r3, r2
   1ef5e:	1e5a      	subs	r2, r3, #1
   1ef60:	4193      	sbcs	r3, r2
   1ef62:	3302      	adds	r3, #2
   1ef64:	7003      	strb	r3, [r0, #0]
   1ef66:	9b04      	ldr	r3, [sp, #16]
   1ef68:	085b      	lsrs	r3, r3, #1
   1ef6a:	9304      	str	r3, [sp, #16]
   1ef6c:	9b05      	ldr	r3, [sp, #20]
   1ef6e:	3301      	adds	r3, #1
   1ef70:	9305      	str	r3, [sp, #20]
   1ef72:	e7e8      	b.n	1ef46 <QRcode_encodeMaskMQR+0x9c>
   1ef74:	9b02      	ldr	r3, [sp, #8]
   1ef76:	3301      	adds	r3, #1
   1ef78:	e7cb      	b.n	1ef12 <QRcode_encodeMaskMQR+0x68>
   1ef7a:	f7ff fe82 	bl	1ec82 <MQRraw_free>
   1ef7e:	9b06      	ldr	r3, [sp, #24]
   1ef80:	3302      	adds	r3, #2
   1ef82:	d10a      	bne.n	1ef9a <QRcode_encodeMaskMQR+0xf0>
   1ef84:	9c01      	ldr	r4, [sp, #4]
   1ef86:	4364      	muls	r4, r4
   1ef88:	0020      	movs	r0, r4
   1ef8a:	f000 fd89 	bl	1faa0 <malloc>
   1ef8e:	0022      	movs	r2, r4
   1ef90:	0029      	movs	r1, r5
   1ef92:	0006      	movs	r6, r0
   1ef94:	f000 fd98 	bl	1fac8 <memcpy>
   1ef98:	e010      	b.n	1efbc <QRcode_encodeMaskMQR+0x112>
   1ef9a:	9a06      	ldr	r2, [sp, #24]
   1ef9c:	7933      	ldrb	r3, [r6, #4]
   1ef9e:	2a00      	cmp	r2, #0
   1efa0:	da05      	bge.n	1efae <QRcode_encodeMaskMQR+0x104>
   1efa2:	001a      	movs	r2, r3
   1efa4:	0029      	movs	r1, r5
   1efa6:	0038      	movs	r0, r7
   1efa8:	f000 f99a 	bl	1f2e0 <MMask_mask>
   1efac:	e004      	b.n	1efb8 <QRcode_encodeMaskMQR+0x10e>
   1efae:	9a06      	ldr	r2, [sp, #24]
   1efb0:	0029      	movs	r1, r5
   1efb2:	0038      	movs	r0, r7
   1efb4:	f000 f946 	bl	1f244 <MMask_makeMask>
   1efb8:	1e06      	subs	r6, r0, #0
   1efba:	d00e      	beq.n	1efda <QRcode_encodeMaskMQR+0x130>
   1efbc:	0038      	movs	r0, r7
   1efbe:	0032      	movs	r2, r6
   1efc0:	9901      	ldr	r1, [sp, #4]
   1efc2:	f7ff fec0 	bl	1ed46 <QRcode_new>
   1efc6:	2400      	movs	r4, #0
   1efc8:	1e07      	subs	r7, r0, #0
   1efca:	42a7      	cmp	r7, r4
   1efcc:	d107      	bne.n	1efde <QRcode_encodeMaskMQR+0x134>
   1efce:	0030      	movs	r0, r6
   1efd0:	f000 fd70 	bl	1fab4 <free>
   1efd4:	e002      	b.n	1efdc <QRcode_encodeMaskMQR+0x132>
   1efd6:	0007      	movs	r7, r0
   1efd8:	e001      	b.n	1efde <QRcode_encodeMaskMQR+0x134>
   1efda:	0007      	movs	r7, r0
   1efdc:	003c      	movs	r4, r7
   1efde:	0020      	movs	r0, r4
   1efe0:	f7ff fe4f 	bl	1ec82 <MQRraw_free>
   1efe4:	0028      	movs	r0, r5
   1efe6:	f000 fd65 	bl	1fab4 <free>
   1efea:	0038      	movs	r0, r7
   1efec:	b011      	add	sp, #68	; 0x44
   1efee:	bdf0      	pop	{r4, r5, r6, r7, pc}

0001eff0 <QRcode_encodeInput>:
   1eff0:	2101      	movs	r1, #1
   1eff2:	6903      	ldr	r3, [r0, #16]
   1eff4:	b510      	push	{r4, lr}
   1eff6:	4249      	negs	r1, r1
   1eff8:	2b00      	cmp	r3, #0
   1effa:	d002      	beq.n	1f002 <QRcode_encodeInput+0x12>
   1effc:	f7ff ff55 	bl	1eeaa <QRcode_encodeMaskMQR>
   1f000:	e001      	b.n	1f006 <QRcode_encodeInput+0x16>
   1f002:	f7ff fead 	bl	1ed60 <QRcode_encodeMask>
   1f006:	bd10      	pop	{r4, pc}

0001f008 <QRcode_encodeDataReal>:
   1f008:	b570      	push	{r4, r5, r6, lr}
   1f00a:	0006      	movs	r6, r0
   1f00c:	000d      	movs	r5, r1
   1f00e:	0010      	movs	r0, r2
   1f010:	0019      	movs	r1, r3
   1f012:	2e00      	cmp	r6, #0
   1f014:	d001      	beq.n	1f01a <QRcode_encodeDataReal+0x12>
   1f016:	2d00      	cmp	r5, #0
   1f018:	d104      	bne.n	1f024 <QRcode_encodeDataReal+0x1c>
   1f01a:	f000 fcff 	bl	1fa1c <__errno>
   1f01e:	2316      	movs	r3, #22
   1f020:	6003      	str	r3, [r0, #0]
   1f022:	e013      	b.n	1f04c <QRcode_encodeDataReal+0x44>
   1f024:	9b04      	ldr	r3, [sp, #16]
   1f026:	2b00      	cmp	r3, #0
   1f028:	d002      	beq.n	1f030 <QRcode_encodeDataReal+0x28>
   1f02a:	f7fe fb22 	bl	1d672 <QRinput_newMQR>
   1f02e:	e001      	b.n	1f034 <QRcode_encodeDataReal+0x2c>
   1f030:	f7fe fb05 	bl	1d63e <QRinput_new2>
   1f034:	1e04      	subs	r4, r0, #0
   1f036:	d013      	beq.n	1f060 <QRcode_encodeDataReal+0x58>
   1f038:	0033      	movs	r3, r6
   1f03a:	002a      	movs	r2, r5
   1f03c:	2102      	movs	r1, #2
   1f03e:	f7fe fc42 	bl	1d8c6 <QRinput_append>
   1f042:	2800      	cmp	r0, #0
   1f044:	da04      	bge.n	1f050 <QRcode_encodeDataReal+0x48>
   1f046:	0020      	movs	r0, r4
   1f048:	f7fe fb3b 	bl	1d6c2 <QRinput_free>
   1f04c:	2000      	movs	r0, #0
   1f04e:	e007      	b.n	1f060 <QRcode_encodeDataReal+0x58>
   1f050:	0020      	movs	r0, r4
   1f052:	f7ff ffcd 	bl	1eff0 <QRcode_encodeInput>
   1f056:	0005      	movs	r5, r0
   1f058:	0020      	movs	r0, r4
   1f05a:	f7fe fb32 	bl	1d6c2 <QRinput_free>
   1f05e:	0028      	movs	r0, r5
   1f060:	bd70      	pop	{r4, r5, r6, pc}

0001f062 <QRcode_encodeString8bit>:
   1f062:	b573      	push	{r0, r1, r4, r5, r6, lr}
   1f064:	0004      	movs	r4, r0
   1f066:	000d      	movs	r5, r1
   1f068:	0016      	movs	r6, r2
   1f06a:	2800      	cmp	r0, #0
   1f06c:	d105      	bne.n	1f07a <QRcode_encodeString8bit+0x18>
   1f06e:	f000 fcd5 	bl	1fa1c <__errno>
   1f072:	2316      	movs	r3, #22
   1f074:	6003      	str	r3, [r0, #0]
   1f076:	0020      	movs	r0, r4
   1f078:	e009      	b.n	1f08e <QRcode_encodeString8bit+0x2c>
   1f07a:	f000 fe11 	bl	1fca0 <strlen>
   1f07e:	2300      	movs	r3, #0
   1f080:	0001      	movs	r1, r0
   1f082:	9300      	str	r3, [sp, #0]
   1f084:	002a      	movs	r2, r5
   1f086:	0033      	movs	r3, r6
   1f088:	0020      	movs	r0, r4
   1f08a:	f7ff ffbd 	bl	1f008 <QRcode_encodeDataReal>
   1f08e:	bd76      	pop	{r1, r2, r4, r5, r6, pc}

0001f090 <Mask_mask0>:
   1f090:	2301      	movs	r3, #1
   1f092:	b5f7      	push	{r0, r1, r2, r4, r5, r6, r7, lr}
   1f094:	43c6      	mvns	r6, r0
   1f096:	2400      	movs	r4, #0
   1f098:	469c      	mov	ip, r3
   1f09a:	17f6      	asrs	r6, r6, #31
   1f09c:	4284      	cmp	r4, r0
   1f09e:	da16      	bge.n	1f0ce <Mask_mask0+0x3e>
   1f0a0:	4665      	mov	r5, ip
   1f0a2:	2300      	movs	r3, #0
   1f0a4:	43a5      	bics	r5, r4
   1f0a6:	9501      	str	r5, [sp, #4]
   1f0a8:	4283      	cmp	r3, r0
   1f0aa:	da0a      	bge.n	1f0c2 <Mask_mask0+0x32>
   1f0ac:	5ccf      	ldrb	r7, [r1, r3]
   1f0ae:	b27d      	sxtb	r5, r7
   1f0b0:	2d00      	cmp	r5, #0
   1f0b2:	da01      	bge.n	1f0b8 <Mask_mask0+0x28>
   1f0b4:	54d7      	strb	r7, [r2, r3]
   1f0b6:	e002      	b.n	1f0be <Mask_mask0+0x2e>
   1f0b8:	9f01      	ldr	r7, [sp, #4]
   1f0ba:	407d      	eors	r5, r7
   1f0bc:	54d5      	strb	r5, [r2, r3]
   1f0be:	3301      	adds	r3, #1
   1f0c0:	e7f2      	b.n	1f0a8 <Mask_mask0+0x18>
   1f0c2:	0003      	movs	r3, r0
   1f0c4:	4033      	ands	r3, r6
   1f0c6:	18c9      	adds	r1, r1, r3
   1f0c8:	18d2      	adds	r2, r2, r3
   1f0ca:	3401      	adds	r4, #1
   1f0cc:	e7e6      	b.n	1f09c <Mask_mask0+0xc>
   1f0ce:	bdf7      	pop	{r0, r1, r2, r4, r5, r6, r7, pc}

0001f0d0 <Mask_mask1>:
   1f0d0:	43c3      	mvns	r3, r0
   1f0d2:	b5f0      	push	{r4, r5, r6, r7, lr}
   1f0d4:	0006      	movs	r6, r0
   1f0d6:	0017      	movs	r7, r2
   1f0d8:	2500      	movs	r5, #0
   1f0da:	b085      	sub	sp, #20
   1f0dc:	17db      	asrs	r3, r3, #31
   1f0de:	9100      	str	r1, [sp, #0]
   1f0e0:	9303      	str	r3, [sp, #12]
   1f0e2:	42b5      	cmp	r5, r6
   1f0e4:	da22      	bge.n	1f12c <Mask_mask1+0x5c>
   1f0e6:	2400      	movs	r4, #0
   1f0e8:	0feb      	lsrs	r3, r5, #31
   1f0ea:	195b      	adds	r3, r3, r5
   1f0ec:	105b      	asrs	r3, r3, #1
   1f0ee:	9302      	str	r3, [sp, #8]
   1f0f0:	42b4      	cmp	r4, r6
   1f0f2:	da13      	bge.n	1f11c <Mask_mask1+0x4c>
   1f0f4:	9b00      	ldr	r3, [sp, #0]
   1f0f6:	5d1b      	ldrb	r3, [r3, r4]
   1f0f8:	b25a      	sxtb	r2, r3
   1f0fa:	9201      	str	r2, [sp, #4]
   1f0fc:	2a00      	cmp	r2, #0
   1f0fe:	db0a      	blt.n	1f116 <Mask_mask1+0x46>
   1f100:	2103      	movs	r1, #3
   1f102:	0020      	movs	r0, r4
   1f104:	f000 fb94 	bl	1f830 <__aeabi_idiv>
   1f108:	9b02      	ldr	r3, [sp, #8]
   1f10a:	9a01      	ldr	r2, [sp, #4]
   1f10c:	18c0      	adds	r0, r0, r3
   1f10e:	2301      	movs	r3, #1
   1f110:	4383      	bics	r3, r0
   1f112:	405a      	eors	r2, r3
   1f114:	0013      	movs	r3, r2
   1f116:	553b      	strb	r3, [r7, r4]
   1f118:	3401      	adds	r4, #1
   1f11a:	e7e9      	b.n	1f0f0 <Mask_mask1+0x20>
   1f11c:	9b03      	ldr	r3, [sp, #12]
   1f11e:	9a00      	ldr	r2, [sp, #0]
   1f120:	4033      	ands	r3, r6
   1f122:	18d2      	adds	r2, r2, r3
   1f124:	9200      	str	r2, [sp, #0]
   1f126:	18ff      	adds	r7, r7, r3
   1f128:	3501      	adds	r5, #1
   1f12a:	e7da      	b.n	1f0e2 <Mask_mask1+0x12>
   1f12c:	b005      	add	sp, #20
   1f12e:	bdf0      	pop	{r4, r5, r6, r7, pc}

0001f130 <Mask_mask2>:
   1f130:	2300      	movs	r3, #0
   1f132:	b5f0      	push	{r4, r5, r6, r7, lr}
   1f134:	b085      	sub	sp, #20
   1f136:	9300      	str	r3, [sp, #0]
   1f138:	43c3      	mvns	r3, r0
   1f13a:	0006      	movs	r6, r0
   1f13c:	0017      	movs	r7, r2
   1f13e:	17db      	asrs	r3, r3, #31
   1f140:	9101      	str	r1, [sp, #4]
   1f142:	9303      	str	r3, [sp, #12]
   1f144:	9b00      	ldr	r3, [sp, #0]
   1f146:	42b3      	cmp	r3, r6
   1f148:	da22      	bge.n	1f190 <Mask_mask2+0x60>
   1f14a:	2500      	movs	r5, #0
   1f14c:	002c      	movs	r4, r5
   1f14e:	42b4      	cmp	r4, r6
   1f150:	da14      	bge.n	1f17c <Mask_mask2+0x4c>
   1f152:	9b01      	ldr	r3, [sp, #4]
   1f154:	5d1b      	ldrb	r3, [r3, r4]
   1f156:	b25a      	sxtb	r2, r3
   1f158:	9202      	str	r2, [sp, #8]
   1f15a:	2a00      	cmp	r2, #0
   1f15c:	db09      	blt.n	1f172 <Mask_mask2+0x42>
   1f15e:	2103      	movs	r1, #3
   1f160:	0028      	movs	r0, r5
   1f162:	f000 fc4b 	bl	1f9fc <__aeabi_idivmod>
   1f166:	2301      	movs	r3, #1
   1f168:	1949      	adds	r1, r1, r5
   1f16a:	9a02      	ldr	r2, [sp, #8]
   1f16c:	438b      	bics	r3, r1
   1f16e:	405a      	eors	r2, r3
   1f170:	0013      	movs	r3, r2
   1f172:	553b      	strb	r3, [r7, r4]
   1f174:	9b00      	ldr	r3, [sp, #0]
   1f176:	3401      	adds	r4, #1
   1f178:	18ed      	adds	r5, r5, r3
   1f17a:	e7e8      	b.n	1f14e <Mask_mask2+0x1e>
   1f17c:	9b03      	ldr	r3, [sp, #12]
   1f17e:	9a01      	ldr	r2, [sp, #4]
   1f180:	4033      	ands	r3, r6
   1f182:	18d2      	adds	r2, r2, r3
   1f184:	18ff      	adds	r7, r7, r3
   1f186:	9b00      	ldr	r3, [sp, #0]
   1f188:	9201      	str	r2, [sp, #4]
   1f18a:	3301      	adds	r3, #1
   1f18c:	9300      	str	r3, [sp, #0]
   1f18e:	e7d9      	b.n	1f144 <Mask_mask2+0x14>
   1f190:	b005      	add	sp, #20
   1f192:	bdf0      	pop	{r4, r5, r6, r7, pc}

0001f194 <Mask_mask3>:
   1f194:	43c3      	mvns	r3, r0
   1f196:	b5f0      	push	{r4, r5, r6, r7, lr}
   1f198:	0006      	movs	r6, r0
   1f19a:	0017      	movs	r7, r2
   1f19c:	2500      	movs	r5, #0
   1f19e:	b085      	sub	sp, #20
   1f1a0:	17db      	asrs	r3, r3, #31
   1f1a2:	9101      	str	r1, [sp, #4]
   1f1a4:	9303      	str	r3, [sp, #12]
   1f1a6:	42b5      	cmp	r5, r6
   1f1a8:	da23      	bge.n	1f1f2 <Mask_mask3+0x5e>
   1f1aa:	2300      	movs	r3, #0
   1f1ac:	001c      	movs	r4, r3
   1f1ae:	9300      	str	r3, [sp, #0]
   1f1b0:	42b4      	cmp	r4, r6
   1f1b2:	da16      	bge.n	1f1e2 <Mask_mask3+0x4e>
   1f1b4:	9b01      	ldr	r3, [sp, #4]
   1f1b6:	5d1b      	ldrb	r3, [r3, r4]
   1f1b8:	b25a      	sxtb	r2, r3
   1f1ba:	9202      	str	r2, [sp, #8]
   1f1bc:	2a00      	cmp	r2, #0
   1f1be:	db0a      	blt.n	1f1d6 <Mask_mask3+0x42>
   1f1c0:	2103      	movs	r1, #3
   1f1c2:	9800      	ldr	r0, [sp, #0]
   1f1c4:	f000 fc1a 	bl	1f9fc <__aeabi_idivmod>
   1f1c8:	192b      	adds	r3, r5, r4
   1f1ca:	18c9      	adds	r1, r1, r3
   1f1cc:	2301      	movs	r3, #1
   1f1ce:	9a02      	ldr	r2, [sp, #8]
   1f1d0:	438b      	bics	r3, r1
   1f1d2:	405a      	eors	r2, r3
   1f1d4:	0013      	movs	r3, r2
   1f1d6:	553b      	strb	r3, [r7, r4]
   1f1d8:	9b00      	ldr	r3, [sp, #0]
   1f1da:	3401      	adds	r4, #1
   1f1dc:	195b      	adds	r3, r3, r5
   1f1de:	9300      	str	r3, [sp, #0]
   1f1e0:	e7e6      	b.n	1f1b0 <Mask_mask3+0x1c>
   1f1e2:	9b03      	ldr	r3, [sp, #12]
   1f1e4:	9a01      	ldr	r2, [sp, #4]
   1f1e6:	4033      	ands	r3, r6
   1f1e8:	18d2      	adds	r2, r2, r3
   1f1ea:	9201      	str	r2, [sp, #4]
   1f1ec:	18ff      	adds	r7, r7, r3
   1f1ee:	3501      	adds	r5, #1
   1f1f0:	e7d9      	b.n	1f1a6 <Mask_mask3+0x12>
   1f1f2:	b005      	add	sp, #20
   1f1f4:	bdf0      	pop	{r4, r5, r6, r7, pc}

0001f1f6 <MMask_writeFormatInformation>:
   1f1f6:	b5f8      	push	{r3, r4, r5, r6, r7, lr}
   1f1f8:	0014      	movs	r4, r2
   1f1fa:	aa06      	add	r2, sp, #24
   1f1fc:	000d      	movs	r5, r1
   1f1fe:	7812      	ldrb	r2, [r2, #0]
   1f200:	0001      	movs	r1, r0
   1f202:	267c      	movs	r6, #124	; 0x7c
   1f204:	0018      	movs	r0, r3
   1f206:	f000 f8ef 	bl	1f3e8 <MQRspec_getFormatInfo>
   1f20a:	2701      	movs	r7, #1
   1f20c:	2308      	movs	r3, #8
   1f20e:	1962      	adds	r2, r4, r5
   1f210:	4276      	negs	r6, r6
   1f212:	0001      	movs	r1, r0
   1f214:	4039      	ands	r1, r7
   1f216:	4331      	orrs	r1, r6
   1f218:	3b01      	subs	r3, #1
   1f21a:	7211      	strb	r1, [r2, #8]
   1f21c:	0840      	lsrs	r0, r0, #1
   1f21e:	1952      	adds	r2, r2, r5
   1f220:	2b00      	cmp	r3, #0
   1f222:	d1f6      	bne.n	1f212 <MMask_writeFormatInformation+0x1c>
   1f224:	267c      	movs	r6, #124	; 0x7c
   1f226:	2701      	movs	r7, #1
   1f228:	00e9      	lsls	r1, r5, #3
   1f22a:	3307      	adds	r3, #7
   1f22c:	4276      	negs	r6, r6
   1f22e:	0005      	movs	r5, r0
   1f230:	403d      	ands	r5, r7
   1f232:	1862      	adds	r2, r4, r1
   1f234:	4335      	orrs	r5, r6
   1f236:	54d5      	strb	r5, [r2, r3]
   1f238:	3b01      	subs	r3, #1
   1f23a:	0840      	lsrs	r0, r0, #1
   1f23c:	2b00      	cmp	r3, #0
   1f23e:	d1f6      	bne.n	1f22e <MMask_writeFormatInformation+0x38>
   1f240:	bdf8      	pop	{r3, r4, r5, r6, r7, pc}
	...

0001f244 <MMask_makeMask>:
   1f244:	b5f0      	push	{r4, r5, r6, r7, lr}
   1f246:	b085      	sub	sp, #20
   1f248:	0007      	movs	r7, r0
   1f24a:	9102      	str	r1, [sp, #8]
   1f24c:	1e16      	subs	r6, r2, #0
   1f24e:	9303      	str	r3, [sp, #12]
   1f250:	2e03      	cmp	r6, #3
   1f252:	d905      	bls.n	1f260 <MMask_makeMask+0x1c>
   1f254:	f000 fbe2 	bl	1fa1c <__errno>
   1f258:	2316      	movs	r3, #22
   1f25a:	6003      	str	r3, [r0, #0]
   1f25c:	2000      	movs	r0, #0
   1f25e:	e017      	b.n	1f290 <MMask_makeMask+0x4c>
   1f260:	f000 f8b0 	bl	1f3c4 <MQRspec_getWidth>
   1f264:	0005      	movs	r5, r0
   1f266:	4340      	muls	r0, r0
   1f268:	f000 fc1a 	bl	1faa0 <malloc>
   1f26c:	1e04      	subs	r4, r0, #0
   1f26e:	d00f      	beq.n	1f290 <MMask_makeMask+0x4c>
   1f270:	4b08      	ldr	r3, [pc, #32]	; (1f294 <MMask_makeMask+0x50>)
   1f272:	00b2      	lsls	r2, r6, #2
   1f274:	58d3      	ldr	r3, [r2, r3]
   1f276:	9902      	ldr	r1, [sp, #8]
   1f278:	0002      	movs	r2, r0
   1f27a:	0028      	movs	r0, r5
   1f27c:	4798      	blx	r3
   1f27e:	9b03      	ldr	r3, [sp, #12]
   1f280:	0038      	movs	r0, r7
   1f282:	9300      	str	r3, [sp, #0]
   1f284:	0022      	movs	r2, r4
   1f286:	0033      	movs	r3, r6
   1f288:	0029      	movs	r1, r5
   1f28a:	f7ff ffb4 	bl	1f1f6 <MMask_writeFormatInformation>
   1f28e:	0020      	movs	r0, r4
   1f290:	b005      	add	sp, #20
   1f292:	bdf0      	pop	{r4, r5, r6, r7, pc}
   1f294:	0aa8      	lsrs	r0, r5, #10
   1f296:	0002      	movs	r2, r0

0001f298 <MMask_evaluateSymbol>:
   1f298:	2201      	movs	r2, #1
   1f29a:	b570      	push	{r4, r5, r6, lr}
   1f29c:	2300      	movs	r3, #0
   1f29e:	0016      	movs	r6, r2
   1f2a0:	1e44      	subs	r4, r0, #1
   1f2a2:	4344      	muls	r4, r0
   1f2a4:	4282      	cmp	r2, r0
   1f2a6:	da05      	bge.n	1f2b4 <MMask_evaluateSymbol+0x1c>
   1f2a8:	190d      	adds	r5, r1, r4
   1f2aa:	5cad      	ldrb	r5, [r5, r2]
   1f2ac:	3201      	adds	r2, #1
   1f2ae:	4035      	ands	r5, r6
   1f2b0:	195b      	adds	r3, r3, r5
   1f2b2:	e7f7      	b.n	1f2a4 <MMask_evaluateSymbol+0xc>
   1f2b4:	2401      	movs	r4, #1
   1f2b6:	0042      	lsls	r2, r0, #1
   1f2b8:	3a01      	subs	r2, #1
   1f2ba:	1889      	adds	r1, r1, r2
   1f2bc:	0026      	movs	r6, r4
   1f2be:	2200      	movs	r2, #0
   1f2c0:	4284      	cmp	r4, r0
   1f2c2:	da05      	bge.n	1f2d0 <MMask_evaluateSymbol+0x38>
   1f2c4:	780d      	ldrb	r5, [r1, #0]
   1f2c6:	3401      	adds	r4, #1
   1f2c8:	4035      	ands	r5, r6
   1f2ca:	1952      	adds	r2, r2, r5
   1f2cc:	1809      	adds	r1, r1, r0
   1f2ce:	e7f7      	b.n	1f2c0 <MMask_evaluateSymbol+0x28>
   1f2d0:	4293      	cmp	r3, r2
   1f2d2:	dc02      	bgt.n	1f2da <MMask_evaluateSymbol+0x42>
   1f2d4:	011b      	lsls	r3, r3, #4
   1f2d6:	1898      	adds	r0, r3, r2
   1f2d8:	e001      	b.n	1f2de <MMask_evaluateSymbol+0x46>
   1f2da:	0110      	lsls	r0, r2, #4
   1f2dc:	18c0      	adds	r0, r0, r3
   1f2de:	bd70      	pop	{r4, r5, r6, pc}

0001f2e0 <MMask_mask>:
   1f2e0:	b5f0      	push	{r4, r5, r6, r7, lr}
   1f2e2:	b089      	sub	sp, #36	; 0x24
   1f2e4:	9106      	str	r1, [sp, #24]
   1f2e6:	9207      	str	r2, [sp, #28]
   1f2e8:	9005      	str	r0, [sp, #20]
   1f2ea:	f000 f86b 	bl	1f3c4 <MQRspec_getWidth>
   1f2ee:	0003      	movs	r3, r0
   1f2f0:	4343      	muls	r3, r0
   1f2f2:	0006      	movs	r6, r0
   1f2f4:	0018      	movs	r0, r3
   1f2f6:	9303      	str	r3, [sp, #12]
   1f2f8:	f000 fbd2 	bl	1faa0 <malloc>
   1f2fc:	1e04      	subs	r4, r0, #0
   1f2fe:	d030      	beq.n	1f362 <MMask_mask+0x82>
   1f300:	2300      	movs	r3, #0
   1f302:	001d      	movs	r5, r3
   1f304:	001f      	movs	r7, r3
   1f306:	9302      	str	r3, [sp, #8]
   1f308:	4b17      	ldr	r3, [pc, #92]	; (1f368 <MMask_mask+0x88>)
   1f30a:	00ba      	lsls	r2, r7, #2
   1f30c:	58d3      	ldr	r3, [r2, r3]
   1f30e:	9906      	ldr	r1, [sp, #24]
   1f310:	0022      	movs	r2, r4
   1f312:	0030      	movs	r0, r6
   1f314:	4798      	blx	r3
   1f316:	9b07      	ldr	r3, [sp, #28]
   1f318:	0022      	movs	r2, r4
   1f31a:	9300      	str	r3, [sp, #0]
   1f31c:	0031      	movs	r1, r6
   1f31e:	003b      	movs	r3, r7
   1f320:	9805      	ldr	r0, [sp, #20]
   1f322:	f7ff ff68 	bl	1f1f6 <MMask_writeFormatInformation>
   1f326:	0021      	movs	r1, r4
   1f328:	0030      	movs	r0, r6
   1f32a:	f7ff ffb5 	bl	1f298 <MMask_evaluateSymbol>
   1f32e:	9a02      	ldr	r2, [sp, #8]
   1f330:	9004      	str	r0, [sp, #16]
   1f332:	4290      	cmp	r0, r2
   1f334:	dd0b      	ble.n	1f34e <MMask_mask+0x6e>
   1f336:	0028      	movs	r0, r5
   1f338:	f000 fbbc 	bl	1fab4 <free>
   1f33c:	9803      	ldr	r0, [sp, #12]
   1f33e:	f000 fbaf 	bl	1faa0 <malloc>
   1f342:	2800      	cmp	r0, #0
   1f344:	d007      	beq.n	1f356 <MMask_mask+0x76>
   1f346:	0025      	movs	r5, r4
   1f348:	0004      	movs	r4, r0
   1f34a:	9b04      	ldr	r3, [sp, #16]
   1f34c:	9302      	str	r3, [sp, #8]
   1f34e:	3701      	adds	r7, #1
   1f350:	2f04      	cmp	r7, #4
   1f352:	d1d9      	bne.n	1f308 <MMask_mask+0x28>
   1f354:	e001      	b.n	1f35a <MMask_mask+0x7a>
   1f356:	0025      	movs	r5, r4
   1f358:	0004      	movs	r4, r0
   1f35a:	0020      	movs	r0, r4
   1f35c:	f000 fbaa 	bl	1fab4 <free>
   1f360:	0028      	movs	r0, r5
   1f362:	b009      	add	sp, #36	; 0x24
   1f364:	bdf0      	pop	{r4, r5, r6, r7, pc}
   1f366:	46c0      	nop			; (mov r8, r8)
   1f368:	0aa8      	lsrs	r0, r5, #10
   1f36a:	0002      	movs	r2, r0

0001f36c <MQRspec_getDataLengthBit>:
   1f36c:	000a      	movs	r2, r1
   1f36e:	2314      	movs	r3, #20
   1f370:	2105      	movs	r1, #5
   1f372:	4343      	muls	r3, r0
   1f374:	4341      	muls	r1, r0
   1f376:	2000      	movs	r0, #0
   1f378:	1889      	adds	r1, r1, r2
   1f37a:	b510      	push	{r4, lr}
   1f37c:	4c06      	ldr	r4, [pc, #24]	; (1f398 <MQRspec_getDataLengthBit+0x2c>)
   1f37e:	0089      	lsls	r1, r1, #2
   1f380:	1861      	adds	r1, r4, r1
   1f382:	684a      	ldr	r2, [r1, #4]
   1f384:	591b      	ldr	r3, [r3, r4]
   1f386:	4282      	cmp	r2, r0
   1f388:	d004      	beq.n	1f394 <MQRspec_getDataLengthBit+0x28>
   1f38a:	3b01      	subs	r3, #1
   1f38c:	435b      	muls	r3, r3
   1f38e:	00d2      	lsls	r2, r2, #3
   1f390:	3b40      	subs	r3, #64	; 0x40
   1f392:	1a98      	subs	r0, r3, r2
   1f394:	bd10      	pop	{r4, pc}
   1f396:	46c0      	nop			; (mov r8, r8)
   1f398:	0be8      	lsrs	r0, r5, #15
   1f39a:	0002      	movs	r2, r0

0001f39c <MQRspec_getDataLength>:
   1f39c:	b510      	push	{r4, lr}
   1f39e:	f7ff ffe5 	bl	1f36c <MQRspec_getDataLengthBit>
   1f3a2:	2207      	movs	r2, #7
   1f3a4:	1d03      	adds	r3, r0, #4
   1f3a6:	17d8      	asrs	r0, r3, #31
   1f3a8:	4010      	ands	r0, r2
   1f3aa:	18c0      	adds	r0, r0, r3
   1f3ac:	10c0      	asrs	r0, r0, #3
   1f3ae:	bd10      	pop	{r4, pc}

0001f3b0 <MQRspec_getECCLength>:
   1f3b0:	2305      	movs	r3, #5
   1f3b2:	4358      	muls	r0, r3
   1f3b4:	1841      	adds	r1, r0, r1
   1f3b6:	4802      	ldr	r0, [pc, #8]	; (1f3c0 <MQRspec_getECCLength+0x10>)
   1f3b8:	0089      	lsls	r1, r1, #2
   1f3ba:	1841      	adds	r1, r0, r1
   1f3bc:	6848      	ldr	r0, [r1, #4]
   1f3be:	4770      	bx	lr
   1f3c0:	0be8      	lsrs	r0, r5, #15
   1f3c2:	0002      	movs	r2, r0

0001f3c4 <MQRspec_getWidth>:
   1f3c4:	2314      	movs	r3, #20
   1f3c6:	4358      	muls	r0, r3
   1f3c8:	4b01      	ldr	r3, [pc, #4]	; (1f3d0 <MQRspec_getWidth+0xc>)
   1f3ca:	58c0      	ldr	r0, [r0, r3]
   1f3cc:	4770      	bx	lr
   1f3ce:	46c0      	nop			; (mov r8, r8)
   1f3d0:	0be8      	lsrs	r0, r5, #15
   1f3d2:	0002      	movs	r2, r0

0001f3d4 <MQRspec_lengthIndicator>:
   1f3d4:	0080      	lsls	r0, r0, #2
   1f3d6:	3901      	subs	r1, #1
   1f3d8:	1841      	adds	r1, r0, r1
   1f3da:	4b02      	ldr	r3, [pc, #8]	; (1f3e4 <MQRspec_lengthIndicator+0x10>)
   1f3dc:	0089      	lsls	r1, r1, #2
   1f3de:	58c8      	ldr	r0, [r1, r3]
   1f3e0:	4770      	bx	lr
   1f3e2:	46c0      	nop			; (mov r8, r8)
   1f3e4:	0ba8      	lsrs	r0, r5, #14
   1f3e6:	0002      	movs	r2, r0

0001f3e8 <MQRspec_getFormatInfo>:
   1f3e8:	b510      	push	{r4, lr}
   1f3ea:	2400      	movs	r4, #0
   1f3ec:	2803      	cmp	r0, #3
   1f3ee:	d811      	bhi.n	1f414 <MQRspec_getFormatInfo+0x2c>
   1f3f0:	1e4b      	subs	r3, r1, #1
   1f3f2:	2b03      	cmp	r3, #3
   1f3f4:	d80e      	bhi.n	1f414 <MQRspec_getFormatInfo+0x2c>
   1f3f6:	2a03      	cmp	r2, #3
   1f3f8:	d00c      	beq.n	1f414 <MQRspec_getFormatInfo+0x2c>
   1f3fa:	2303      	movs	r3, #3
   1f3fc:	4359      	muls	r1, r3
   1f3fe:	4b06      	ldr	r3, [pc, #24]	; (1f418 <MQRspec_getFormatInfo+0x30>)
   1f400:	188a      	adds	r2, r1, r2
   1f402:	0092      	lsls	r2, r2, #2
   1f404:	58d3      	ldr	r3, [r2, r3]
   1f406:	42a3      	cmp	r3, r4
   1f408:	db04      	blt.n	1f414 <MQRspec_getFormatInfo+0x2c>
   1f40a:	00c0      	lsls	r0, r0, #3
   1f40c:	18c3      	adds	r3, r0, r3
   1f40e:	4a03      	ldr	r2, [pc, #12]	; (1f41c <MQRspec_getFormatInfo+0x34>)
   1f410:	009b      	lsls	r3, r3, #2
   1f412:	589c      	ldr	r4, [r3, r2]
   1f414:	0020      	movs	r0, r4
   1f416:	bd10      	pop	{r4, pc}
   1f418:	0b38      	lsrs	r0, r7, #12
   1f41a:	0002      	movs	r2, r0
   1f41c:	0ab8      	lsrs	r0, r7, #10
   1f41e:	0002      	movs	r2, r0

0001f420 <MQRspec_newFrame>:
   1f420:	b5f8      	push	{r3, r4, r5, r6, r7, lr}
   1f422:	1e43      	subs	r3, r0, #1
   1f424:	2b03      	cmp	r3, #3
   1f426:	d901      	bls.n	1f42c <MQRspec_newFrame+0xc>
   1f428:	2000      	movs	r0, #0
   1f42a:	e050      	b.n	1f4ce <MQRspec_newFrame+0xae>
   1f42c:	2314      	movs	r3, #20
   1f42e:	4358      	muls	r0, r3
   1f430:	4b27      	ldr	r3, [pc, #156]	; (1f4d0 <MQRspec_newFrame+0xb0>)
   1f432:	58c5      	ldr	r5, [r0, r3]
   1f434:	002e      	movs	r6, r5
   1f436:	436e      	muls	r6, r5
   1f438:	0030      	movs	r0, r6
   1f43a:	f000 fb31 	bl	1faa0 <malloc>
   1f43e:	1e04      	subs	r4, r0, #0
   1f440:	d0f2      	beq.n	1f428 <MQRspec_newFrame+0x8>
   1f442:	0032      	movs	r2, r6
   1f444:	2100      	movs	r1, #0
   1f446:	f000 fb5d 	bl	1fb04 <memset>
   1f44a:	0021      	movs	r1, r4
   1f44c:	2200      	movs	r2, #0
   1f44e:	4e21      	ldr	r6, [pc, #132]	; (1f4d4 <MQRspec_newFrame+0xb4>)
   1f450:	2300      	movs	r3, #0
   1f452:	18b0      	adds	r0, r6, r2
   1f454:	5cc7      	ldrb	r7, [r0, r3]
   1f456:	54cf      	strb	r7, [r1, r3]
   1f458:	3301      	adds	r3, #1
   1f45a:	2b07      	cmp	r3, #7
   1f45c:	d1fa      	bne.n	1f454 <MQRspec_newFrame+0x34>
   1f45e:	3207      	adds	r2, #7
   1f460:	1949      	adds	r1, r1, r5
   1f462:	2a31      	cmp	r2, #49	; 0x31
   1f464:	d1f4      	bne.n	1f450 <MQRspec_newFrame+0x30>
   1f466:	0022      	movs	r2, r4
   1f468:	21c0      	movs	r1, #192	; 0xc0
   1f46a:	3b01      	subs	r3, #1
   1f46c:	71d1      	strb	r1, [r2, #7]
   1f46e:	1952      	adds	r2, r2, r5
   1f470:	2b00      	cmp	r3, #0
   1f472:	d1fa      	bne.n	1f46a <MQRspec_newFrame+0x4a>
   1f474:	2707      	movs	r7, #7
   1f476:	0038      	movs	r0, r7
   1f478:	4368      	muls	r0, r5
   1f47a:	1826      	adds	r6, r4, r0
   1f47c:	2208      	movs	r2, #8
   1f47e:	21c0      	movs	r1, #192	; 0xc0
   1f480:	0030      	movs	r0, r6
   1f482:	f000 fb3f 	bl	1fb04 <memset>
   1f486:	00e8      	lsls	r0, r5, #3
   1f488:	3001      	adds	r0, #1
   1f48a:	2208      	movs	r2, #8
   1f48c:	2184      	movs	r1, #132	; 0x84
   1f48e:	1820      	adds	r0, r4, r0
   1f490:	f000 fb38 	bl	1fb04 <memset>
   1f494:	002a      	movs	r2, r5
   1f496:	003b      	movs	r3, r7
   1f498:	2184      	movs	r1, #132	; 0x84
   1f49a:	3208      	adds	r2, #8
   1f49c:	18a2      	adds	r2, r4, r2
   1f49e:	3b01      	subs	r3, #1
   1f4a0:	7011      	strb	r1, [r2, #0]
   1f4a2:	1952      	adds	r2, r2, r5
   1f4a4:	2b00      	cmp	r3, #0
   1f4a6:	d1fa      	bne.n	1f49e <MQRspec_newFrame+0x7e>
   1f4a8:	2770      	movs	r7, #112	; 0x70
   1f4aa:	1970      	adds	r0, r6, r5
   1f4ac:	3301      	adds	r3, #1
   1f4ae:	1fe9      	subs	r1, r5, #7
   1f4b0:	427f      	negs	r7, r7
   1f4b2:	428b      	cmp	r3, r1
   1f4b4:	da0a      	bge.n	1f4cc <MQRspec_newFrame+0xac>
   1f4b6:	001a      	movs	r2, r3
   1f4b8:	2601      	movs	r6, #1
   1f4ba:	4032      	ands	r2, r6
   1f4bc:	433a      	orrs	r2, r7
   1f4be:	b2d2      	uxtb	r2, r2
   1f4c0:	18e6      	adds	r6, r4, r3
   1f4c2:	71f2      	strb	r2, [r6, #7]
   1f4c4:	3301      	adds	r3, #1
   1f4c6:	7002      	strb	r2, [r0, #0]
   1f4c8:	1940      	adds	r0, r0, r5
   1f4ca:	e7f2      	b.n	1f4b2 <MQRspec_newFrame+0x92>
   1f4cc:	0020      	movs	r0, r4
   1f4ce:	bdf8      	pop	{r3, r4, r5, r6, r7, pc}
   1f4d0:	0be8      	lsrs	r0, r5, #15
   1f4d2:	0002      	movs	r2, r0
   1f4d4:	0b74      	lsrs	r4, r6, #13
   1f4d6:	0002      	movs	r2, r0

0001f4d8 <BitStream_expand>:
   1f4d8:	6883      	ldr	r3, [r0, #8]
   1f4da:	b510      	push	{r4, lr}
   1f4dc:	0059      	lsls	r1, r3, #1
   1f4de:	0004      	movs	r4, r0
   1f4e0:	6840      	ldr	r0, [r0, #4]
   1f4e2:	f000 fbc1 	bl	1fc68 <realloc>
   1f4e6:	2800      	cmp	r0, #0
   1f4e8:	d005      	beq.n	1f4f6 <BitStream_expand+0x1e>
   1f4ea:	68a3      	ldr	r3, [r4, #8]
   1f4ec:	6060      	str	r0, [r4, #4]
   1f4ee:	005b      	lsls	r3, r3, #1
   1f4f0:	60a3      	str	r3, [r4, #8]
   1f4f2:	2000      	movs	r0, #0
   1f4f4:	e001      	b.n	1f4fa <BitStream_expand+0x22>
   1f4f6:	2001      	movs	r0, #1
   1f4f8:	4240      	negs	r0, r0
   1f4fa:	bd10      	pop	{r4, pc}

0001f4fc <BitStream_new>:
   1f4fc:	b570      	push	{r4, r5, r6, lr}
   1f4fe:	200c      	movs	r0, #12
   1f500:	f000 face 	bl	1faa0 <malloc>
   1f504:	1e05      	subs	r5, r0, #0
   1f506:	d00f      	beq.n	1f528 <BitStream_new+0x2c>
   1f508:	2300      	movs	r3, #0
   1f50a:	6003      	str	r3, [r0, #0]
   1f50c:	2080      	movs	r0, #128	; 0x80
   1f50e:	f000 fac7 	bl	1faa0 <malloc>
   1f512:	1e04      	subs	r4, r0, #0
   1f514:	6068      	str	r0, [r5, #4]
   1f516:	d104      	bne.n	1f522 <BitStream_new+0x26>
   1f518:	0028      	movs	r0, r5
   1f51a:	f000 facb 	bl	1fab4 <free>
   1f51e:	0020      	movs	r0, r4
   1f520:	e002      	b.n	1f528 <BitStream_new+0x2c>
   1f522:	2380      	movs	r3, #128	; 0x80
   1f524:	0028      	movs	r0, r5
   1f526:	60ab      	str	r3, [r5, #8]
   1f528:	bd70      	pop	{r4, r5, r6, pc}

0001f52a <BitStream_appendNum>:
   1f52a:	b5f8      	push	{r3, r4, r5, r6, r7, lr}
   1f52c:	0005      	movs	r5, r0
   1f52e:	2000      	movs	r0, #0
   1f530:	000c      	movs	r4, r1
   1f532:	0016      	movs	r6, r2
   1f534:	4281      	cmp	r1, r0
   1f536:	d021      	beq.n	1f57c <BitStream_appendNum+0x52>
   1f538:	682b      	ldr	r3, [r5, #0]
   1f53a:	68aa      	ldr	r2, [r5, #8]
   1f53c:	1ad2      	subs	r2, r2, r3
   1f53e:	4294      	cmp	r4, r2
   1f540:	dd05      	ble.n	1f54e <BitStream_appendNum+0x24>
   1f542:	0028      	movs	r0, r5
   1f544:	f7ff ffc8 	bl	1f4d8 <BitStream_expand>
   1f548:	2800      	cmp	r0, #0
   1f54a:	daf5      	bge.n	1f538 <BitStream_appendNum+0xe>
   1f54c:	e016      	b.n	1f57c <BitStream_appendNum+0x52>
   1f54e:	2101      	movs	r1, #1
   1f550:	0008      	movs	r0, r1
   1f552:	686a      	ldr	r2, [r5, #4]
   1f554:	18d3      	adds	r3, r2, r3
   1f556:	1e62      	subs	r2, r4, #1
   1f558:	4090      	lsls	r0, r2
   1f55a:	001a      	movs	r2, r3
   1f55c:	1ad7      	subs	r7, r2, r3
   1f55e:	42bc      	cmp	r4, r7
   1f560:	dd08      	ble.n	1f574 <BitStream_appendNum+0x4a>
   1f562:	0007      	movs	r7, r0
   1f564:	4037      	ands	r7, r6
   1f566:	d001      	beq.n	1f56c <BitStream_appendNum+0x42>
   1f568:	7011      	strb	r1, [r2, #0]
   1f56a:	e000      	b.n	1f56e <BitStream_appendNum+0x44>
   1f56c:	7017      	strb	r7, [r2, #0]
   1f56e:	3201      	adds	r2, #1
   1f570:	0840      	lsrs	r0, r0, #1
   1f572:	e7f3      	b.n	1f55c <BitStream_appendNum+0x32>
   1f574:	2000      	movs	r0, #0
   1f576:	682b      	ldr	r3, [r5, #0]
   1f578:	191c      	adds	r4, r3, r4
   1f57a:	602c      	str	r4, [r5, #0]
   1f57c:	bdf8      	pop	{r3, r4, r5, r6, r7, pc}

0001f57e <BitStream_appendBytes>:
   1f57e:	b5f7      	push	{r0, r1, r2, r4, r5, r6, r7, lr}
   1f580:	0004      	movs	r4, r0
   1f582:	2000      	movs	r0, #0
   1f584:	000e      	movs	r6, r1
   1f586:	0017      	movs	r7, r2
   1f588:	00cd      	lsls	r5, r1, #3
   1f58a:	4281      	cmp	r1, r0
   1f58c:	d026      	beq.n	1f5dc <BitStream_appendBytes+0x5e>
   1f58e:	6823      	ldr	r3, [r4, #0]
   1f590:	68a2      	ldr	r2, [r4, #8]
   1f592:	1ad2      	subs	r2, r2, r3
   1f594:	42aa      	cmp	r2, r5
   1f596:	da05      	bge.n	1f5a4 <BitStream_appendBytes+0x26>
   1f598:	0020      	movs	r0, r4
   1f59a:	f7ff ff9d 	bl	1f4d8 <BitStream_expand>
   1f59e:	2800      	cmp	r0, #0
   1f5a0:	daf5      	bge.n	1f58e <BitStream_appendBytes+0x10>
   1f5a2:	e01b      	b.n	1f5dc <BitStream_appendBytes+0x5e>
   1f5a4:	2101      	movs	r1, #1
   1f5a6:	6862      	ldr	r2, [r4, #4]
   1f5a8:	468c      	mov	ip, r1
   1f5aa:	18d3      	adds	r3, r2, r3
   1f5ac:	003a      	movs	r2, r7
   1f5ae:	1bd1      	subs	r1, r2, r7
   1f5b0:	428e      	cmp	r6, r1
   1f5b2:	dd0f      	ble.n	1f5d4 <BitStream_appendBytes+0x56>
   1f5b4:	0019      	movs	r1, r3
   1f5b6:	2080      	movs	r0, #128	; 0x80
   1f5b8:	3108      	adds	r1, #8
   1f5ba:	9101      	str	r1, [sp, #4]
   1f5bc:	7811      	ldrb	r1, [r2, #0]
   1f5be:	4001      	ands	r1, r0
   1f5c0:	d000      	beq.n	1f5c4 <BitStream_appendBytes+0x46>
   1f5c2:	4661      	mov	r1, ip
   1f5c4:	7019      	strb	r1, [r3, #0]
   1f5c6:	9901      	ldr	r1, [sp, #4]
   1f5c8:	3301      	adds	r3, #1
   1f5ca:	0840      	lsrs	r0, r0, #1
   1f5cc:	428b      	cmp	r3, r1
   1f5ce:	d1f5      	bne.n	1f5bc <BitStream_appendBytes+0x3e>
   1f5d0:	3201      	adds	r2, #1
   1f5d2:	e7ec      	b.n	1f5ae <BitStream_appendBytes+0x30>
   1f5d4:	2000      	movs	r0, #0
   1f5d6:	6823      	ldr	r3, [r4, #0]
   1f5d8:	195d      	adds	r5, r3, r5
   1f5da:	6025      	str	r5, [r4, #0]
   1f5dc:	bdfe      	pop	{r1, r2, r3, r4, r5, r6, r7, pc}

0001f5de <BitStream_toByte>:
   1f5de:	b5f8      	push	{r3, r4, r5, r6, r7, lr}
   1f5e0:	6804      	ldr	r4, [r0, #0]
   1f5e2:	0005      	movs	r5, r0
   1f5e4:	2c00      	cmp	r4, #0
   1f5e6:	d101      	bne.n	1f5ec <BitStream_toByte+0xe>
   1f5e8:	2100      	movs	r1, #0
   1f5ea:	e039      	b.n	1f660 <BitStream_toByte+0x82>
   1f5ec:	2607      	movs	r6, #7
   1f5ee:	1de3      	adds	r3, r4, #7
   1f5f0:	17d8      	asrs	r0, r3, #31
   1f5f2:	4030      	ands	r0, r6
   1f5f4:	18c0      	adds	r0, r0, r3
   1f5f6:	10c0      	asrs	r0, r0, #3
   1f5f8:	f000 fa52 	bl	1faa0 <malloc>
   1f5fc:	2800      	cmp	r0, #0
   1f5fe:	d0f3      	beq.n	1f5e8 <BitStream_toByte+0xa>
   1f600:	686d      	ldr	r5, [r5, #4]
   1f602:	17e3      	asrs	r3, r4, #31
   1f604:	4033      	ands	r3, r6
   1f606:	0007      	movs	r7, r0
   1f608:	002e      	movs	r6, r5
   1f60a:	191b      	adds	r3, r3, r4
   1f60c:	10db      	asrs	r3, r3, #3
   1f60e:	1a3a      	subs	r2, r7, r0
   1f610:	429a      	cmp	r2, r3
   1f612:	da0d      	bge.n	1f630 <BitStream_toByte+0x52>
   1f614:	2208      	movs	r2, #8
   1f616:	4694      	mov	ip, r2
   1f618:	2100      	movs	r1, #0
   1f61a:	44b4      	add	ip, r6
   1f61c:	7832      	ldrb	r2, [r6, #0]
   1f61e:	0049      	lsls	r1, r1, #1
   1f620:	b2c9      	uxtb	r1, r1
   1f622:	3601      	adds	r6, #1
   1f624:	4311      	orrs	r1, r2
   1f626:	4566      	cmp	r6, ip
   1f628:	d1f8      	bne.n	1f61c <BitStream_toByte+0x3e>
   1f62a:	7039      	strb	r1, [r7, #0]
   1f62c:	3701      	adds	r7, #1
   1f62e:	e7ee      	b.n	1f60e <BitStream_toByte+0x30>
   1f630:	43da      	mvns	r2, r3
   1f632:	17d2      	asrs	r2, r2, #31
   1f634:	401a      	ands	r2, r3
   1f636:	00d2      	lsls	r2, r2, #3
   1f638:	18aa      	adds	r2, r5, r2
   1f63a:	2507      	movs	r5, #7
   1f63c:	0001      	movs	r1, r0
   1f63e:	4025      	ands	r5, r4
   1f640:	d00e      	beq.n	1f660 <BitStream_toByte+0x82>
   1f642:	0016      	movs	r6, r2
   1f644:	2100      	movs	r1, #0
   1f646:	7834      	ldrb	r4, [r6, #0]
   1f648:	0049      	lsls	r1, r1, #1
   1f64a:	b2c9      	uxtb	r1, r1
   1f64c:	3601      	adds	r6, #1
   1f64e:	4321      	orrs	r1, r4
   1f650:	1ab4      	subs	r4, r6, r2
   1f652:	42ac      	cmp	r4, r5
   1f654:	dbf7      	blt.n	1f646 <BitStream_toByte+0x68>
   1f656:	2408      	movs	r4, #8
   1f658:	1b64      	subs	r4, r4, r5
   1f65a:	40a1      	lsls	r1, r4
   1f65c:	54c1      	strb	r1, [r0, r3]
   1f65e:	0001      	movs	r1, r0
   1f660:	0008      	movs	r0, r1
   1f662:	bdf8      	pop	{r3, r4, r5, r6, r7, pc}

0001f664 <BitStream_free>:
   1f664:	b510      	push	{r4, lr}
   1f666:	1e04      	subs	r4, r0, #0
   1f668:	d005      	beq.n	1f676 <BitStream_free+0x12>
   1f66a:	6840      	ldr	r0, [r0, #4]
   1f66c:	f000 fa22 	bl	1fab4 <free>
   1f670:	0020      	movs	r0, r4
   1f672:	f000 fa1f 	bl	1fab4 <free>
   1f676:	bd10      	pop	{r4, pc}

0001f678 <RSECC_encode>:
   1f678:	b5f0      	push	{r4, r5, r6, r7, lr}
   1f67a:	4c5e      	ldr	r4, [pc, #376]	; (1f7f4 <RSECC_encode+0x17c>)
   1f67c:	b0a7      	sub	sp, #156	; 0x9c
   1f67e:	9301      	str	r3, [sp, #4]
   1f680:	6823      	ldr	r3, [r4, #0]
   1f682:	9004      	str	r0, [sp, #16]
   1f684:	9100      	str	r1, [sp, #0]
   1f686:	9202      	str	r2, [sp, #8]
   1f688:	2b00      	cmp	r3, #0
   1f68a:	d11c      	bne.n	1f6c6 <RSECC_encode+0x4e>
   1f68c:	4f5a      	ldr	r7, [pc, #360]	; (1f7f8 <RSECC_encode+0x180>)
   1f68e:	21ff      	movs	r1, #255	; 0xff
   1f690:	003a      	movs	r2, r7
   1f692:	2580      	movs	r5, #128	; 0x80
   1f694:	32ff      	adds	r2, #255	; 0xff
   1f696:	261e      	movs	r6, #30
   1f698:	7013      	strb	r3, [r2, #0]
   1f69a:	2201      	movs	r2, #1
   1f69c:	4857      	ldr	r0, [pc, #348]	; (1f7fc <RSECC_encode+0x184>)
   1f69e:	006d      	lsls	r5, r5, #1
   1f6a0:	7001      	strb	r1, [r0, #0]
   1f6a2:	36ff      	adds	r6, #255	; 0xff
   1f6a4:	54fa      	strb	r2, [r7, r3]
   1f6a6:	5483      	strb	r3, [r0, r2]
   1f6a8:	0052      	lsls	r2, r2, #1
   1f6aa:	422a      	tst	r2, r5
   1f6ac:	d000      	beq.n	1f6b0 <RSECC_encode+0x38>
   1f6ae:	4072      	eors	r2, r6
   1f6b0:	3301      	adds	r3, #1
   1f6b2:	400a      	ands	r2, r1
   1f6b4:	2bff      	cmp	r3, #255	; 0xff
   1f6b6:	d1f5      	bne.n	1f6a4 <RSECC_encode+0x2c>
   1f6b8:	221d      	movs	r2, #29
   1f6ba:	2100      	movs	r1, #0
   1f6bc:	4850      	ldr	r0, [pc, #320]	; (1f800 <RSECC_encode+0x188>)
   1f6be:	f000 fa21 	bl	1fb04 <memset>
   1f6c2:	2301      	movs	r3, #1
   1f6c4:	6023      	str	r3, [r4, #0]
   1f6c6:	9b00      	ldr	r3, [sp, #0]
   1f6c8:	2b1e      	cmp	r3, #30
   1f6ca:	dd00      	ble.n	1f6ce <RSECC_encode+0x56>
   1f6cc:	e08e      	b.n	1f7ec <RSECC_encode+0x174>
   1f6ce:	001a      	movs	r2, r3
   1f6d0:	2100      	movs	r1, #0
   1f6d2:	9801      	ldr	r0, [sp, #4]
   1f6d4:	f000 fa16 	bl	1fb04 <memset>
   1f6d8:	9b00      	ldr	r3, [sp, #0]
   1f6da:	1e9f      	subs	r7, r3, #2
   1f6dc:	4b48      	ldr	r3, [pc, #288]	; (1f800 <RSECC_encode+0x188>)
   1f6de:	5ddc      	ldrb	r4, [r3, r7]
   1f6e0:	2c00      	cmp	r4, #0
   1f6e2:	d13e      	bne.n	1f762 <RSECC_encode+0xea>
   1f6e4:	2301      	movs	r3, #1
   1f6e6:	ad07      	add	r5, sp, #28
   1f6e8:	9307      	str	r3, [sp, #28]
   1f6ea:	9305      	str	r3, [sp, #20]
   1f6ec:	9b00      	ldr	r3, [sp, #0]
   1f6ee:	42a3      	cmp	r3, r4
   1f6f0:	dd24      	ble.n	1f73c <RSECC_encode+0xc4>
   1f6f2:	2600      	movs	r6, #0
   1f6f4:	9b05      	ldr	r3, [sp, #20]
   1f6f6:	606b      	str	r3, [r5, #4]
   1f6f8:	00a3      	lsls	r3, r4, #2
   1f6fa:	425b      	negs	r3, r3
   1f6fc:	9303      	str	r3, [sp, #12]
   1f6fe:	9b03      	ldr	r3, [sp, #12]
   1f700:	429e      	cmp	r6, r3
   1f702:	d00e      	beq.n	1f722 <RSECC_encode+0xaa>
   1f704:	59aa      	ldr	r2, [r5, r6]
   1f706:	4b3d      	ldr	r3, [pc, #244]	; (1f7fc <RSECC_encode+0x184>)
   1f708:	21ff      	movs	r1, #255	; 0xff
   1f70a:	5c98      	ldrb	r0, [r3, r2]
   1f70c:	1900      	adds	r0, r0, r4
   1f70e:	f000 f975 	bl	1f9fc <__aeabi_idivmod>
   1f712:	4b39      	ldr	r3, [pc, #228]	; (1f7f8 <RSECC_encode+0x180>)
   1f714:	1f32      	subs	r2, r6, #4
   1f716:	5c5b      	ldrb	r3, [r3, r1]
   1f718:	58a9      	ldr	r1, [r5, r2]
   1f71a:	404b      	eors	r3, r1
   1f71c:	51ab      	str	r3, [r5, r6]
   1f71e:	0016      	movs	r6, r2
   1f720:	e7ed      	b.n	1f6fe <RSECC_encode+0x86>
   1f722:	4b36      	ldr	r3, [pc, #216]	; (1f7fc <RSECC_encode+0x184>)
   1f724:	9a07      	ldr	r2, [sp, #28]
   1f726:	21ff      	movs	r1, #255	; 0xff
   1f728:	5c98      	ldrb	r0, [r3, r2]
   1f72a:	3504      	adds	r5, #4
   1f72c:	1900      	adds	r0, r0, r4
   1f72e:	f000 f965 	bl	1f9fc <__aeabi_idivmod>
   1f732:	4b31      	ldr	r3, [pc, #196]	; (1f7f8 <RSECC_encode+0x180>)
   1f734:	3401      	adds	r4, #1
   1f736:	5c5b      	ldrb	r3, [r3, r1]
   1f738:	9307      	str	r3, [sp, #28]
   1f73a:	e7d7      	b.n	1f6ec <RSECC_encode+0x74>
   1f73c:	221f      	movs	r2, #31
   1f73e:	437a      	muls	r2, r7
   1f740:	4b30      	ldr	r3, [pc, #192]	; (1f804 <RSECC_encode+0x18c>)
   1f742:	492e      	ldr	r1, [pc, #184]	; (1f7fc <RSECC_encode+0x184>)
   1f744:	189a      	adds	r2, r3, r2
   1f746:	2300      	movs	r3, #0
   1f748:	9800      	ldr	r0, [sp, #0]
   1f74a:	4298      	cmp	r0, r3
   1f74c:	db06      	blt.n	1f75c <RSECC_encode+0xe4>
   1f74e:	009c      	lsls	r4, r3, #2
   1f750:	a807      	add	r0, sp, #28
   1f752:	5820      	ldr	r0, [r4, r0]
   1f754:	5c08      	ldrb	r0, [r1, r0]
   1f756:	54d0      	strb	r0, [r2, r3]
   1f758:	3301      	adds	r3, #1
   1f75a:	e7f5      	b.n	1f748 <RSECC_encode+0xd0>
   1f75c:	2201      	movs	r2, #1
   1f75e:	4b28      	ldr	r3, [pc, #160]	; (1f800 <RSECC_encode+0x188>)
   1f760:	55da      	strb	r2, [r3, r7]
   1f762:	241f      	movs	r4, #31
   1f764:	4367      	muls	r7, r4
   1f766:	4c27      	ldr	r4, [pc, #156]	; (1f804 <RSECC_encode+0x18c>)
   1f768:	19e4      	adds	r4, r4, r7
   1f76a:	9f02      	ldr	r7, [sp, #8]
   1f76c:	9b02      	ldr	r3, [sp, #8]
   1f76e:	9a04      	ldr	r2, [sp, #16]
   1f770:	1afb      	subs	r3, r7, r3
   1f772:	429a      	cmp	r2, r3
   1f774:	dd38      	ble.n	1f7e8 <RSECC_encode+0x170>
   1f776:	9b01      	ldr	r3, [sp, #4]
   1f778:	783a      	ldrb	r2, [r7, #0]
   1f77a:	781b      	ldrb	r3, [r3, #0]
   1f77c:	2601      	movs	r6, #1
   1f77e:	4053      	eors	r3, r2
   1f780:	4a1e      	ldr	r2, [pc, #120]	; (1f7fc <RSECC_encode+0x184>)
   1f782:	5cd5      	ldrb	r5, [r2, r3]
   1f784:	2dff      	cmp	r5, #255	; 0xff
   1f786:	d114      	bne.n	1f7b2 <RSECC_encode+0x13a>
   1f788:	9b00      	ldr	r3, [sp, #0]
   1f78a:	1e5a      	subs	r2, r3, #1
   1f78c:	9b01      	ldr	r3, [sp, #4]
   1f78e:	1c59      	adds	r1, r3, #1
   1f790:	0018      	movs	r0, r3
   1f792:	f000 f9a2 	bl	1fada <memmove>
   1f796:	2dff      	cmp	r5, #255	; 0xff
   1f798:	d01e      	beq.n	1f7d8 <RSECC_encode+0x160>
   1f79a:	7820      	ldrb	r0, [r4, #0]
   1f79c:	21ff      	movs	r1, #255	; 0xff
   1f79e:	1940      	adds	r0, r0, r5
   1f7a0:	f000 f92c 	bl	1f9fc <__aeabi_idivmod>
   1f7a4:	4b14      	ldr	r3, [pc, #80]	; (1f7f8 <RSECC_encode+0x180>)
   1f7a6:	5c5a      	ldrb	r2, [r3, r1]
   1f7a8:	9b01      	ldr	r3, [sp, #4]
   1f7aa:	9900      	ldr	r1, [sp, #0]
   1f7ac:	185b      	adds	r3, r3, r1
   1f7ae:	3b01      	subs	r3, #1
   1f7b0:	e017      	b.n	1f7e2 <RSECC_encode+0x16a>
   1f7b2:	9b00      	ldr	r3, [sp, #0]
   1f7b4:	429e      	cmp	r6, r3
   1f7b6:	dae7      	bge.n	1f788 <RSECC_encode+0x110>
   1f7b8:	9a00      	ldr	r2, [sp, #0]
   1f7ba:	1ba3      	subs	r3, r4, r6
   1f7bc:	5c98      	ldrb	r0, [r3, r2]
   1f7be:	21ff      	movs	r1, #255	; 0xff
   1f7c0:	1940      	adds	r0, r0, r5
   1f7c2:	f000 f91b 	bl	1f9fc <__aeabi_idivmod>
   1f7c6:	4b0c      	ldr	r3, [pc, #48]	; (1f7f8 <RSECC_encode+0x180>)
   1f7c8:	5c5a      	ldrb	r2, [r3, r1]
   1f7ca:	9b01      	ldr	r3, [sp, #4]
   1f7cc:	5d9b      	ldrb	r3, [r3, r6]
   1f7ce:	4053      	eors	r3, r2
   1f7d0:	9a01      	ldr	r2, [sp, #4]
   1f7d2:	5593      	strb	r3, [r2, r6]
   1f7d4:	3601      	adds	r6, #1
   1f7d6:	e7ec      	b.n	1f7b2 <RSECC_encode+0x13a>
   1f7d8:	9a00      	ldr	r2, [sp, #0]
   1f7da:	9b01      	ldr	r3, [sp, #4]
   1f7dc:	189b      	adds	r3, r3, r2
   1f7de:	2200      	movs	r2, #0
   1f7e0:	3b01      	subs	r3, #1
   1f7e2:	701a      	strb	r2, [r3, #0]
   1f7e4:	3701      	adds	r7, #1
   1f7e6:	e7c1      	b.n	1f76c <RSECC_encode+0xf4>
   1f7e8:	2000      	movs	r0, #0
   1f7ea:	e001      	b.n	1f7f0 <RSECC_encode+0x178>
   1f7ec:	2001      	movs	r0, #1
   1f7ee:	4240      	negs	r0, r0
   1f7f0:	b027      	add	sp, #156	; 0x9c
   1f7f2:	bdf0      	pop	{r4, r5, r6, r7, pc}
   1f7f4:	7198      	strb	r0, [r3, #6]
   1f7f6:	2000      	movs	r0, #0
   1f7f8:	7098      	strb	r0, [r3, #2]
   1f7fa:	2000      	movs	r0, #0
   1f7fc:	719c      	strb	r4, [r3, #6]
   1f7fe:	2000      	movs	r0, #0
   1f800:	707b      	strb	r3, [r7, #1]
   1f802:	2000      	movs	r0, #0
   1f804:	6cf8      	ldr	r0, [r7, #76]	; 0x4c
   1f806:	2000      	movs	r0, #0

0001f808 <__gnu_thumb1_case_uqi>:
   1f808:	b402      	push	{r1}
   1f80a:	4671      	mov	r1, lr
   1f80c:	0849      	lsrs	r1, r1, #1
   1f80e:	0049      	lsls	r1, r1, #1
   1f810:	5c09      	ldrb	r1, [r1, r0]
   1f812:	0049      	lsls	r1, r1, #1
   1f814:	448e      	add	lr, r1
   1f816:	bc02      	pop	{r1}
   1f818:	4770      	bx	lr
   1f81a:	46c0      	nop			; (mov r8, r8)

0001f81c <__gnu_thumb1_case_uhi>:
   1f81c:	b403      	push	{r0, r1}
   1f81e:	4671      	mov	r1, lr
   1f820:	0849      	lsrs	r1, r1, #1
   1f822:	0040      	lsls	r0, r0, #1
   1f824:	0049      	lsls	r1, r1, #1
   1f826:	5a09      	ldrh	r1, [r1, r0]
   1f828:	0049      	lsls	r1, r1, #1
   1f82a:	448e      	add	lr, r1
   1f82c:	bc03      	pop	{r0, r1}
   1f82e:	4770      	bx	lr

0001f830 <__aeabi_idiv>:
   1f830:	4603      	mov	r3, r0
   1f832:	430b      	orrs	r3, r1
   1f834:	d47f      	bmi.n	1f936 <__aeabi_idiv+0x106>
   1f836:	2200      	movs	r2, #0
   1f838:	0843      	lsrs	r3, r0, #1
   1f83a:	428b      	cmp	r3, r1
   1f83c:	d374      	bcc.n	1f928 <__aeabi_idiv+0xf8>
   1f83e:	0903      	lsrs	r3, r0, #4
   1f840:	428b      	cmp	r3, r1
   1f842:	d35f      	bcc.n	1f904 <__aeabi_idiv+0xd4>
   1f844:	0a03      	lsrs	r3, r0, #8
   1f846:	428b      	cmp	r3, r1
   1f848:	d344      	bcc.n	1f8d4 <__aeabi_idiv+0xa4>
   1f84a:	0b03      	lsrs	r3, r0, #12
   1f84c:	428b      	cmp	r3, r1
   1f84e:	d328      	bcc.n	1f8a2 <__aeabi_idiv+0x72>
   1f850:	0c03      	lsrs	r3, r0, #16
   1f852:	428b      	cmp	r3, r1
   1f854:	d30d      	bcc.n	1f872 <__aeabi_idiv+0x42>
   1f856:	22ff      	movs	r2, #255	; 0xff
   1f858:	0209      	lsls	r1, r1, #8
   1f85a:	ba12      	rev	r2, r2
   1f85c:	0c03      	lsrs	r3, r0, #16
   1f85e:	428b      	cmp	r3, r1
   1f860:	d302      	bcc.n	1f868 <__aeabi_idiv+0x38>
   1f862:	1212      	asrs	r2, r2, #8
   1f864:	0209      	lsls	r1, r1, #8
   1f866:	d065      	beq.n	1f934 <__aeabi_idiv+0x104>
   1f868:	0b03      	lsrs	r3, r0, #12
   1f86a:	428b      	cmp	r3, r1
   1f86c:	d319      	bcc.n	1f8a2 <__aeabi_idiv+0x72>
   1f86e:	e000      	b.n	1f872 <__aeabi_idiv+0x42>
   1f870:	0a09      	lsrs	r1, r1, #8
   1f872:	0bc3      	lsrs	r3, r0, #15
   1f874:	428b      	cmp	r3, r1
   1f876:	d301      	bcc.n	1f87c <__aeabi_idiv+0x4c>
   1f878:	03cb      	lsls	r3, r1, #15
   1f87a:	1ac0      	subs	r0, r0, r3
   1f87c:	4152      	adcs	r2, r2
   1f87e:	0b83      	lsrs	r3, r0, #14
   1f880:	428b      	cmp	r3, r1
   1f882:	d301      	bcc.n	1f888 <__aeabi_idiv+0x58>
   1f884:	038b      	lsls	r3, r1, #14
   1f886:	1ac0      	subs	r0, r0, r3
   1f888:	4152      	adcs	r2, r2
   1f88a:	0b43      	lsrs	r3, r0, #13
   1f88c:	428b      	cmp	r3, r1
   1f88e:	d301      	bcc.n	1f894 <__aeabi_idiv+0x64>
   1f890:	034b      	lsls	r3, r1, #13
   1f892:	1ac0      	subs	r0, r0, r3
   1f894:	4152      	adcs	r2, r2
   1f896:	0b03      	lsrs	r3, r0, #12
   1f898:	428b      	cmp	r3, r1
   1f89a:	d301      	bcc.n	1f8a0 <__aeabi_idiv+0x70>
   1f89c:	030b      	lsls	r3, r1, #12
   1f89e:	1ac0      	subs	r0, r0, r3
   1f8a0:	4152      	adcs	r2, r2
   1f8a2:	0ac3      	lsrs	r3, r0, #11
   1f8a4:	428b      	cmp	r3, r1
   1f8a6:	d301      	bcc.n	1f8ac <__aeabi_idiv+0x7c>
   1f8a8:	02cb      	lsls	r3, r1, #11
   1f8aa:	1ac0      	subs	r0, r0, r3
   1f8ac:	4152      	adcs	r2, r2
   1f8ae:	0a83      	lsrs	r3, r0, #10
   1f8b0:	428b      	cmp	r3, r1
   1f8b2:	d301      	bcc.n	1f8b8 <__aeabi_idiv+0x88>
   1f8b4:	028b      	lsls	r3, r1, #10
   1f8b6:	1ac0      	subs	r0, r0, r3
   1f8b8:	4152      	adcs	r2, r2
   1f8ba:	0a43      	lsrs	r3, r0, #9
   1f8bc:	428b      	cmp	r3, r1
   1f8be:	d301      	bcc.n	1f8c4 <__aeabi_idiv+0x94>
   1f8c0:	024b      	lsls	r3, r1, #9
   1f8c2:	1ac0      	subs	r0, r0, r3
   1f8c4:	4152      	adcs	r2, r2
   1f8c6:	0a03      	lsrs	r3, r0, #8
   1f8c8:	428b      	cmp	r3, r1
   1f8ca:	d301      	bcc.n	1f8d0 <__aeabi_idiv+0xa0>
   1f8cc:	020b      	lsls	r3, r1, #8
   1f8ce:	1ac0      	subs	r0, r0, r3
   1f8d0:	4152      	adcs	r2, r2
   1f8d2:	d2cd      	bcs.n	1f870 <__aeabi_idiv+0x40>
   1f8d4:	09c3      	lsrs	r3, r0, #7
   1f8d6:	428b      	cmp	r3, r1
   1f8d8:	d301      	bcc.n	1f8de <__aeabi_idiv+0xae>
   1f8da:	01cb      	lsls	r3, r1, #7
   1f8dc:	1ac0      	subs	r0, r0, r3
   1f8de:	4152      	adcs	r2, r2
   1f8e0:	0983      	lsrs	r3, r0, #6
   1f8e2:	428b      	cmp	r3, r1
   1f8e4:	d301      	bcc.n	1f8ea <__aeabi_idiv+0xba>
   1f8e6:	018b      	lsls	r3, r1, #6
   1f8e8:	1ac0      	subs	r0, r0, r3
   1f8ea:	4152      	adcs	r2, r2
   1f8ec:	0943      	lsrs	r3, r0, #5
   1f8ee:	428b      	cmp	r3, r1
   1f8f0:	d301      	bcc.n	1f8f6 <__aeabi_idiv+0xc6>
   1f8f2:	014b      	lsls	r3, r1, #5
   1f8f4:	1ac0      	subs	r0, r0, r3
   1f8f6:	4152      	adcs	r2, r2
   1f8f8:	0903      	lsrs	r3, r0, #4
   1f8fa:	428b      	cmp	r3, r1
   1f8fc:	d301      	bcc.n	1f902 <__aeabi_idiv+0xd2>
   1f8fe:	010b      	lsls	r3, r1, #4
   1f900:	1ac0      	subs	r0, r0, r3
   1f902:	4152      	adcs	r2, r2
   1f904:	08c3      	lsrs	r3, r0, #3
   1f906:	428b      	cmp	r3, r1
   1f908:	d301      	bcc.n	1f90e <__aeabi_idiv+0xde>
   1f90a:	00cb      	lsls	r3, r1, #3
   1f90c:	1ac0      	subs	r0, r0, r3
   1f90e:	4152      	adcs	r2, r2
   1f910:	0883      	lsrs	r3, r0, #2
   1f912:	428b      	cmp	r3, r1
   1f914:	d301      	bcc.n	1f91a <__aeabi_idiv+0xea>
   1f916:	008b      	lsls	r3, r1, #2
   1f918:	1ac0      	subs	r0, r0, r3
   1f91a:	4152      	adcs	r2, r2
   1f91c:	0843      	lsrs	r3, r0, #1
   1f91e:	428b      	cmp	r3, r1
   1f920:	d301      	bcc.n	1f926 <__aeabi_idiv+0xf6>
   1f922:	004b      	lsls	r3, r1, #1
   1f924:	1ac0      	subs	r0, r0, r3
   1f926:	4152      	adcs	r2, r2
   1f928:	1a41      	subs	r1, r0, r1
   1f92a:	d200      	bcs.n	1f92e <__aeabi_idiv+0xfe>
   1f92c:	4601      	mov	r1, r0
   1f92e:	4152      	adcs	r2, r2
   1f930:	4610      	mov	r0, r2
   1f932:	4770      	bx	lr
   1f934:	e05d      	b.n	1f9f2 <__aeabi_idiv+0x1c2>
   1f936:	0fca      	lsrs	r2, r1, #31
   1f938:	d000      	beq.n	1f93c <__aeabi_idiv+0x10c>
   1f93a:	4249      	negs	r1, r1
   1f93c:	1003      	asrs	r3, r0, #32
   1f93e:	d300      	bcc.n	1f942 <__aeabi_idiv+0x112>
   1f940:	4240      	negs	r0, r0
   1f942:	4053      	eors	r3, r2
   1f944:	2200      	movs	r2, #0
   1f946:	469c      	mov	ip, r3
   1f948:	0903      	lsrs	r3, r0, #4
   1f94a:	428b      	cmp	r3, r1
   1f94c:	d32d      	bcc.n	1f9aa <__aeabi_idiv+0x17a>
   1f94e:	0a03      	lsrs	r3, r0, #8
   1f950:	428b      	cmp	r3, r1
   1f952:	d312      	bcc.n	1f97a <__aeabi_idiv+0x14a>
   1f954:	22fc      	movs	r2, #252	; 0xfc
   1f956:	0189      	lsls	r1, r1, #6
   1f958:	ba12      	rev	r2, r2
   1f95a:	0a03      	lsrs	r3, r0, #8
   1f95c:	428b      	cmp	r3, r1
   1f95e:	d30c      	bcc.n	1f97a <__aeabi_idiv+0x14a>
   1f960:	0189      	lsls	r1, r1, #6
   1f962:	1192      	asrs	r2, r2, #6
   1f964:	428b      	cmp	r3, r1
   1f966:	d308      	bcc.n	1f97a <__aeabi_idiv+0x14a>
   1f968:	0189      	lsls	r1, r1, #6
   1f96a:	1192      	asrs	r2, r2, #6
   1f96c:	428b      	cmp	r3, r1
   1f96e:	d304      	bcc.n	1f97a <__aeabi_idiv+0x14a>
   1f970:	0189      	lsls	r1, r1, #6
   1f972:	d03a      	beq.n	1f9ea <__aeabi_idiv+0x1ba>
   1f974:	1192      	asrs	r2, r2, #6
   1f976:	e000      	b.n	1f97a <__aeabi_idiv+0x14a>
   1f978:	0989      	lsrs	r1, r1, #6
   1f97a:	09c3      	lsrs	r3, r0, #7
   1f97c:	428b      	cmp	r3, r1
   1f97e:	d301      	bcc.n	1f984 <__aeabi_idiv+0x154>
   1f980:	01cb      	lsls	r3, r1, #7
   1f982:	1ac0      	subs	r0, r0, r3
   1f984:	4152      	adcs	r2, r2
   1f986:	0983      	lsrs	r3, r0, #6
   1f988:	428b      	cmp	r3, r1
   1f98a:	d301      	bcc.n	1f990 <__aeabi_idiv+0x160>
   1f98c:	018b      	lsls	r3, r1, #6
   1f98e:	1ac0      	subs	r0, r0, r3
   1f990:	4152      	adcs	r2, r2
   1f992:	0943      	lsrs	r3, r0, #5
   1f994:	428b      	cmp	r3, r1
   1f996:	d301      	bcc.n	1f99c <__aeabi_idiv+0x16c>
   1f998:	014b      	lsls	r3, r1, #5
   1f99a:	1ac0      	subs	r0, r0, r3
   1f99c:	4152      	adcs	r2, r2
   1f99e:	0903      	lsrs	r3, r0, #4
   1f9a0:	428b      	cmp	r3, r1
   1f9a2:	d301      	bcc.n	1f9a8 <__aeabi_idiv+0x178>
   1f9a4:	010b      	lsls	r3, r1, #4
   1f9a6:	1ac0      	subs	r0, r0, r3
   1f9a8:	4152      	adcs	r2, r2
   1f9aa:	08c3      	lsrs	r3, r0, #3
   1f9ac:	428b      	cmp	r3, r1
   1f9ae:	d301      	bcc.n	1f9b4 <__aeabi_idiv+0x184>
   1f9b0:	00cb      	lsls	r3, r1, #3
   1f9b2:	1ac0      	subs	r0, r0, r3
   1f9b4:	4152      	adcs	r2, r2
   1f9b6:	0883      	lsrs	r3, r0, #2
   1f9b8:	428b      	cmp	r3, r1
   1f9ba:	d301      	bcc.n	1f9c0 <__aeabi_idiv+0x190>
   1f9bc:	008b      	lsls	r3, r1, #2
   1f9be:	1ac0      	subs	r0, r0, r3
   1f9c0:	4152      	adcs	r2, r2
   1f9c2:	d2d9      	bcs.n	1f978 <__aeabi_idiv+0x148>
   1f9c4:	0843      	lsrs	r3, r0, #1
   1f9c6:	428b      	cmp	r3, r1
   1f9c8:	d301      	bcc.n	1f9ce <__aeabi_idiv+0x19e>
   1f9ca:	004b      	lsls	r3, r1, #1
   1f9cc:	1ac0      	subs	r0, r0, r3
   1f9ce:	4152      	adcs	r2, r2
   1f9d0:	1a41      	subs	r1, r0, r1
   1f9d2:	d200      	bcs.n	1f9d6 <__aeabi_idiv+0x1a6>
   1f9d4:	4601      	mov	r1, r0
   1f9d6:	4663      	mov	r3, ip
   1f9d8:	4152      	adcs	r2, r2
   1f9da:	105b      	asrs	r3, r3, #1
   1f9dc:	4610      	mov	r0, r2
   1f9de:	d301      	bcc.n	1f9e4 <__aeabi_idiv+0x1b4>
   1f9e0:	4240      	negs	r0, r0
   1f9e2:	2b00      	cmp	r3, #0
   1f9e4:	d500      	bpl.n	1f9e8 <__aeabi_idiv+0x1b8>
   1f9e6:	4249      	negs	r1, r1
   1f9e8:	4770      	bx	lr
   1f9ea:	4663      	mov	r3, ip
   1f9ec:	105b      	asrs	r3, r3, #1
   1f9ee:	d300      	bcc.n	1f9f2 <__aeabi_idiv+0x1c2>
   1f9f0:	4240      	negs	r0, r0
   1f9f2:	b501      	push	{r0, lr}
   1f9f4:	2000      	movs	r0, #0
   1f9f6:	f000 f805 	bl	1fa04 <__aeabi_idiv0>
   1f9fa:	bd02      	pop	{r1, pc}

0001f9fc <__aeabi_idivmod>:
   1f9fc:	2900      	cmp	r1, #0
   1f9fe:	d0f8      	beq.n	1f9f2 <__aeabi_idiv+0x1c2>
   1fa00:	e716      	b.n	1f830 <__aeabi_idiv>
   1fa02:	4770      	bx	lr

0001fa04 <__aeabi_idiv0>:
   1fa04:	4770      	bx	lr
   1fa06:	46c0      	nop			; (mov r8, r8)

0001fa08 <calloc>:
   1fa08:	b510      	push	{r4, lr}
   1fa0a:	4b03      	ldr	r3, [pc, #12]	; (1fa18 <calloc+0x10>)
   1fa0c:	000a      	movs	r2, r1
   1fa0e:	0001      	movs	r1, r0
   1fa10:	6818      	ldr	r0, [r3, #0]
   1fa12:	f000 f87f 	bl	1fb14 <_calloc_r>
   1fa16:	bd10      	pop	{r4, pc}
   1fa18:	6784      	str	r4, [r0, #120]	; 0x78
   1fa1a:	2000      	movs	r0, #0

0001fa1c <__errno>:
   1fa1c:	4b01      	ldr	r3, [pc, #4]	; (1fa24 <__errno+0x8>)
   1fa1e:	6818      	ldr	r0, [r3, #0]
   1fa20:	4770      	bx	lr
   1fa22:	46c0      	nop			; (mov r8, r8)
   1fa24:	6784      	str	r4, [r0, #120]	; 0x78
   1fa26:	2000      	movs	r0, #0

0001fa28 <exit>:
   1fa28:	4b08      	ldr	r3, [pc, #32]	; (1fa4c <exit+0x24>)
   1fa2a:	b510      	push	{r4, lr}
   1fa2c:	0004      	movs	r4, r0
   1fa2e:	2b00      	cmp	r3, #0
   1fa30:	d002      	beq.n	1fa38 <exit+0x10>
   1fa32:	2100      	movs	r1, #0
   1fa34:	e000      	b.n	1fa38 <exit+0x10>
   1fa36:	bf00      	nop
   1fa38:	4b05      	ldr	r3, [pc, #20]	; (1fa50 <exit+0x28>)
   1fa3a:	6818      	ldr	r0, [r3, #0]
   1fa3c:	6a83      	ldr	r3, [r0, #40]	; 0x28
   1fa3e:	2b00      	cmp	r3, #0
   1fa40:	d000      	beq.n	1fa44 <exit+0x1c>
   1fa42:	4798      	blx	r3
   1fa44:	0020      	movs	r0, r4
   1fa46:	f000 f971 	bl	1fd2c <_exit>
   1fa4a:	46c0      	nop			; (mov r8, r8)
   1fa4c:	0000      	movs	r0, r0
   1fa4e:	0000      	movs	r0, r0
   1fa50:	0c50      	lsrs	r0, r2, #17
   1fa52:	0002      	movs	r2, r0

0001fa54 <__libc_init_array>:
   1fa54:	4b0e      	ldr	r3, [pc, #56]	; (1fa90 <__libc_init_array+0x3c>)
   1fa56:	b570      	push	{r4, r5, r6, lr}
   1fa58:	2500      	movs	r5, #0
   1fa5a:	001e      	movs	r6, r3
   1fa5c:	4c0d      	ldr	r4, [pc, #52]	; (1fa94 <__libc_init_array+0x40>)
   1fa5e:	1ae4      	subs	r4, r4, r3
   1fa60:	10a4      	asrs	r4, r4, #2
   1fa62:	42a5      	cmp	r5, r4
   1fa64:	d004      	beq.n	1fa70 <__libc_init_array+0x1c>
   1fa66:	00ab      	lsls	r3, r5, #2
   1fa68:	58f3      	ldr	r3, [r6, r3]
   1fa6a:	4798      	blx	r3
   1fa6c:	3501      	adds	r5, #1
   1fa6e:	e7f8      	b.n	1fa62 <__libc_init_array+0xe>
   1fa70:	f000 f95e 	bl	1fd30 <_init>
   1fa74:	4b08      	ldr	r3, [pc, #32]	; (1fa98 <__libc_init_array+0x44>)
   1fa76:	2500      	movs	r5, #0
   1fa78:	001e      	movs	r6, r3
   1fa7a:	4c08      	ldr	r4, [pc, #32]	; (1fa9c <__libc_init_array+0x48>)
   1fa7c:	1ae4      	subs	r4, r4, r3
   1fa7e:	10a4      	asrs	r4, r4, #2
   1fa80:	42a5      	cmp	r5, r4
   1fa82:	d004      	beq.n	1fa8e <__libc_init_array+0x3a>
   1fa84:	00ab      	lsls	r3, r5, #2
   1fa86:	58f3      	ldr	r3, [r6, r3]
   1fa88:	4798      	blx	r3
   1fa8a:	3501      	adds	r5, #1
   1fa8c:	e7f8      	b.n	1fa80 <__libc_init_array+0x2c>
   1fa8e:	bd70      	pop	{r4, r5, r6, pc}
   1fa90:	6788      	str	r0, [r1, #120]	; 0x78
   1fa92:	2000      	movs	r0, #0
   1fa94:	6788      	str	r0, [r1, #120]	; 0x78
   1fa96:	2000      	movs	r0, #0
   1fa98:	6788      	str	r0, [r1, #120]	; 0x78
   1fa9a:	2000      	movs	r0, #0
   1fa9c:	6788      	str	r0, [r1, #120]	; 0x78
   1fa9e:	2000      	movs	r0, #0

0001faa0 <malloc>:
   1faa0:	b510      	push	{r4, lr}
   1faa2:	4b03      	ldr	r3, [pc, #12]	; (1fab0 <malloc+0x10>)
   1faa4:	0001      	movs	r1, r0
   1faa6:	6818      	ldr	r0, [r3, #0]
   1faa8:	f000 f888 	bl	1fbbc <_malloc_r>
   1faac:	bd10      	pop	{r4, pc}
   1faae:	46c0      	nop			; (mov r8, r8)
   1fab0:	6784      	str	r4, [r0, #120]	; 0x78
   1fab2:	2000      	movs	r0, #0

0001fab4 <free>:
   1fab4:	b510      	push	{r4, lr}
   1fab6:	4b03      	ldr	r3, [pc, #12]	; (1fac4 <free+0x10>)
   1fab8:	0001      	movs	r1, r0
   1faba:	6818      	ldr	r0, [r3, #0]
   1fabc:	f000 f838 	bl	1fb30 <_free_r>
   1fac0:	bd10      	pop	{r4, pc}
   1fac2:	46c0      	nop			; (mov r8, r8)
   1fac4:	6784      	str	r4, [r0, #120]	; 0x78
   1fac6:	2000      	movs	r0, #0

0001fac8 <memcpy>:
   1fac8:	2300      	movs	r3, #0
   1faca:	b510      	push	{r4, lr}
   1facc:	429a      	cmp	r2, r3
   1face:	d003      	beq.n	1fad8 <memcpy+0x10>
   1fad0:	5ccc      	ldrb	r4, [r1, r3]
   1fad2:	54c4      	strb	r4, [r0, r3]
   1fad4:	3301      	adds	r3, #1
   1fad6:	e7f9      	b.n	1facc <memcpy+0x4>
   1fad8:	bd10      	pop	{r4, pc}

0001fada <memmove>:
   1fada:	b510      	push	{r4, lr}
   1fadc:	4288      	cmp	r0, r1
   1fade:	d902      	bls.n	1fae6 <memmove+0xc>
   1fae0:	188b      	adds	r3, r1, r2
   1fae2:	4298      	cmp	r0, r3
   1fae4:	d301      	bcc.n	1faea <memmove+0x10>
   1fae6:	2300      	movs	r3, #0
   1fae8:	e005      	b.n	1faf6 <memmove+0x1c>
   1faea:	1a9b      	subs	r3, r3, r2
   1faec:	3a01      	subs	r2, #1
   1faee:	d308      	bcc.n	1fb02 <memmove+0x28>
   1faf0:	5c99      	ldrb	r1, [r3, r2]
   1faf2:	5481      	strb	r1, [r0, r2]
   1faf4:	e7fa      	b.n	1faec <memmove+0x12>
   1faf6:	4293      	cmp	r3, r2
   1faf8:	d003      	beq.n	1fb02 <memmove+0x28>
   1fafa:	5ccc      	ldrb	r4, [r1, r3]
   1fafc:	54c4      	strb	r4, [r0, r3]
   1fafe:	3301      	adds	r3, #1
   1fb00:	e7f9      	b.n	1faf6 <memmove+0x1c>
   1fb02:	bd10      	pop	{r4, pc}

0001fb04 <memset>:
   1fb04:	0003      	movs	r3, r0
   1fb06:	1882      	adds	r2, r0, r2
   1fb08:	4293      	cmp	r3, r2
   1fb0a:	d002      	beq.n	1fb12 <memset+0xe>
   1fb0c:	7019      	strb	r1, [r3, #0]
   1fb0e:	3301      	adds	r3, #1
   1fb10:	e7fa      	b.n	1fb08 <memset+0x4>
   1fb12:	4770      	bx	lr

0001fb14 <_calloc_r>:
   1fb14:	434a      	muls	r2, r1
   1fb16:	b570      	push	{r4, r5, r6, lr}
   1fb18:	0011      	movs	r1, r2
   1fb1a:	0014      	movs	r4, r2
   1fb1c:	f000 f84e 	bl	1fbbc <_malloc_r>
   1fb20:	1e05      	subs	r5, r0, #0
   1fb22:	d003      	beq.n	1fb2c <_calloc_r+0x18>
   1fb24:	0022      	movs	r2, r4
   1fb26:	2100      	movs	r1, #0
   1fb28:	f7ff ffec 	bl	1fb04 <memset>
   1fb2c:	0028      	movs	r0, r5
   1fb2e:	bd70      	pop	{r4, r5, r6, pc}

0001fb30 <_free_r>:
   1fb30:	b530      	push	{r4, r5, lr}
   1fb32:	2900      	cmp	r1, #0
   1fb34:	d03e      	beq.n	1fbb4 <_free_r+0x84>
   1fb36:	3904      	subs	r1, #4
   1fb38:	680b      	ldr	r3, [r1, #0]
   1fb3a:	2b00      	cmp	r3, #0
   1fb3c:	da00      	bge.n	1fb40 <_free_r+0x10>
   1fb3e:	18c9      	adds	r1, r1, r3
   1fb40:	4a1d      	ldr	r2, [pc, #116]	; (1fbb8 <_free_r+0x88>)
   1fb42:	6813      	ldr	r3, [r2, #0]
   1fb44:	0014      	movs	r4, r2
   1fb46:	2b00      	cmp	r3, #0
   1fb48:	d102      	bne.n	1fb50 <_free_r+0x20>
   1fb4a:	604b      	str	r3, [r1, #4]
   1fb4c:	6011      	str	r1, [r2, #0]
   1fb4e:	e031      	b.n	1fbb4 <_free_r+0x84>
   1fb50:	428b      	cmp	r3, r1
   1fb52:	d90d      	bls.n	1fb70 <_free_r+0x40>
   1fb54:	680a      	ldr	r2, [r1, #0]
   1fb56:	1888      	adds	r0, r1, r2
   1fb58:	4283      	cmp	r3, r0
   1fb5a:	d103      	bne.n	1fb64 <_free_r+0x34>
   1fb5c:	6818      	ldr	r0, [r3, #0]
   1fb5e:	685b      	ldr	r3, [r3, #4]
   1fb60:	1882      	adds	r2, r0, r2
   1fb62:	600a      	str	r2, [r1, #0]
   1fb64:	604b      	str	r3, [r1, #4]
   1fb66:	6021      	str	r1, [r4, #0]
   1fb68:	e024      	b.n	1fbb4 <_free_r+0x84>
   1fb6a:	428a      	cmp	r2, r1
   1fb6c:	d803      	bhi.n	1fb76 <_free_r+0x46>
   1fb6e:	0013      	movs	r3, r2
   1fb70:	685a      	ldr	r2, [r3, #4]
   1fb72:	2a00      	cmp	r2, #0
   1fb74:	d1f9      	bne.n	1fb6a <_free_r+0x3a>
   1fb76:	681d      	ldr	r5, [r3, #0]
   1fb78:	195c      	adds	r4, r3, r5
   1fb7a:	428c      	cmp	r4, r1
   1fb7c:	d10b      	bne.n	1fb96 <_free_r+0x66>
   1fb7e:	6809      	ldr	r1, [r1, #0]
   1fb80:	1869      	adds	r1, r5, r1
   1fb82:	1858      	adds	r0, r3, r1
   1fb84:	6019      	str	r1, [r3, #0]
   1fb86:	4282      	cmp	r2, r0
   1fb88:	d114      	bne.n	1fbb4 <_free_r+0x84>
   1fb8a:	6810      	ldr	r0, [r2, #0]
   1fb8c:	6852      	ldr	r2, [r2, #4]
   1fb8e:	1841      	adds	r1, r0, r1
   1fb90:	6019      	str	r1, [r3, #0]
   1fb92:	605a      	str	r2, [r3, #4]
   1fb94:	e00e      	b.n	1fbb4 <_free_r+0x84>
   1fb96:	428c      	cmp	r4, r1
   1fb98:	d902      	bls.n	1fba0 <_free_r+0x70>
   1fb9a:	230c      	movs	r3, #12
   1fb9c:	6003      	str	r3, [r0, #0]
   1fb9e:	e009      	b.n	1fbb4 <_free_r+0x84>
   1fba0:	6808      	ldr	r0, [r1, #0]
   1fba2:	180c      	adds	r4, r1, r0
   1fba4:	42a2      	cmp	r2, r4
   1fba6:	d103      	bne.n	1fbb0 <_free_r+0x80>
   1fba8:	6814      	ldr	r4, [r2, #0]
   1fbaa:	6852      	ldr	r2, [r2, #4]
   1fbac:	1820      	adds	r0, r4, r0
   1fbae:	6008      	str	r0, [r1, #0]
   1fbb0:	604a      	str	r2, [r1, #4]
   1fbb2:	6059      	str	r1, [r3, #4]
   1fbb4:	bd30      	pop	{r4, r5, pc}
   1fbb6:	46c0      	nop			; (mov r8, r8)
   1fbb8:	72a0      	strb	r0, [r4, #10]
   1fbba:	2000      	movs	r0, #0

0001fbbc <_malloc_r>:
   1fbbc:	2303      	movs	r3, #3
   1fbbe:	b570      	push	{r4, r5, r6, lr}
   1fbc0:	1ccd      	adds	r5, r1, #3
   1fbc2:	439d      	bics	r5, r3
   1fbc4:	3508      	adds	r5, #8
   1fbc6:	0006      	movs	r6, r0
   1fbc8:	2d0c      	cmp	r5, #12
   1fbca:	d201      	bcs.n	1fbd0 <_malloc_r+0x14>
   1fbcc:	250c      	movs	r5, #12
   1fbce:	e005      	b.n	1fbdc <_malloc_r+0x20>
   1fbd0:	2d00      	cmp	r5, #0
   1fbd2:	da03      	bge.n	1fbdc <_malloc_r+0x20>
   1fbd4:	230c      	movs	r3, #12
   1fbd6:	2000      	movs	r0, #0
   1fbd8:	6033      	str	r3, [r6, #0]
   1fbda:	e040      	b.n	1fc5e <_malloc_r+0xa2>
   1fbdc:	42a9      	cmp	r1, r5
   1fbde:	d8f9      	bhi.n	1fbd4 <_malloc_r+0x18>
   1fbe0:	4b1f      	ldr	r3, [pc, #124]	; (1fc60 <_malloc_r+0xa4>)
   1fbe2:	681c      	ldr	r4, [r3, #0]
   1fbe4:	001a      	movs	r2, r3
   1fbe6:	0021      	movs	r1, r4
   1fbe8:	2900      	cmp	r1, #0
   1fbea:	d013      	beq.n	1fc14 <_malloc_r+0x58>
   1fbec:	680b      	ldr	r3, [r1, #0]
   1fbee:	1b5b      	subs	r3, r3, r5
   1fbf0:	d40d      	bmi.n	1fc0e <_malloc_r+0x52>
   1fbf2:	2b0b      	cmp	r3, #11
   1fbf4:	d902      	bls.n	1fbfc <_malloc_r+0x40>
   1fbf6:	600b      	str	r3, [r1, #0]
   1fbf8:	18cc      	adds	r4, r1, r3
   1fbfa:	e01e      	b.n	1fc3a <_malloc_r+0x7e>
   1fbfc:	428c      	cmp	r4, r1
   1fbfe:	d102      	bne.n	1fc06 <_malloc_r+0x4a>
   1fc00:	6863      	ldr	r3, [r4, #4]
   1fc02:	6013      	str	r3, [r2, #0]
   1fc04:	e01a      	b.n	1fc3c <_malloc_r+0x80>
   1fc06:	684b      	ldr	r3, [r1, #4]
   1fc08:	6063      	str	r3, [r4, #4]
   1fc0a:	000c      	movs	r4, r1
   1fc0c:	e016      	b.n	1fc3c <_malloc_r+0x80>
   1fc0e:	000c      	movs	r4, r1
   1fc10:	6849      	ldr	r1, [r1, #4]
   1fc12:	e7e9      	b.n	1fbe8 <_malloc_r+0x2c>
   1fc14:	4c13      	ldr	r4, [pc, #76]	; (1fc64 <_malloc_r+0xa8>)
   1fc16:	6823      	ldr	r3, [r4, #0]
   1fc18:	2b00      	cmp	r3, #0
   1fc1a:	d103      	bne.n	1fc24 <_malloc_r+0x68>
   1fc1c:	0030      	movs	r0, r6
   1fc1e:	f000 f82d 	bl	1fc7c <_sbrk_r>
   1fc22:	6020      	str	r0, [r4, #0]
   1fc24:	0029      	movs	r1, r5
   1fc26:	0030      	movs	r0, r6
   1fc28:	f000 f828 	bl	1fc7c <_sbrk_r>
   1fc2c:	1c43      	adds	r3, r0, #1
   1fc2e:	d0d1      	beq.n	1fbd4 <_malloc_r+0x18>
   1fc30:	2303      	movs	r3, #3
   1fc32:	1cc4      	adds	r4, r0, #3
   1fc34:	439c      	bics	r4, r3
   1fc36:	42a0      	cmp	r0, r4
   1fc38:	d10a      	bne.n	1fc50 <_malloc_r+0x94>
   1fc3a:	6025      	str	r5, [r4, #0]
   1fc3c:	0020      	movs	r0, r4
   1fc3e:	2207      	movs	r2, #7
   1fc40:	300b      	adds	r0, #11
   1fc42:	1d23      	adds	r3, r4, #4
   1fc44:	4390      	bics	r0, r2
   1fc46:	1ac3      	subs	r3, r0, r3
   1fc48:	d009      	beq.n	1fc5e <_malloc_r+0xa2>
   1fc4a:	425a      	negs	r2, r3
   1fc4c:	50e2      	str	r2, [r4, r3]
   1fc4e:	e006      	b.n	1fc5e <_malloc_r+0xa2>
   1fc50:	1a21      	subs	r1, r4, r0
   1fc52:	0030      	movs	r0, r6
   1fc54:	f000 f812 	bl	1fc7c <_sbrk_r>
   1fc58:	1c43      	adds	r3, r0, #1
   1fc5a:	d1ee      	bne.n	1fc3a <_malloc_r+0x7e>
   1fc5c:	e7ba      	b.n	1fbd4 <_malloc_r+0x18>
   1fc5e:	bd70      	pop	{r4, r5, r6, pc}
   1fc60:	72a0      	strb	r0, [r4, #10]
   1fc62:	2000      	movs	r0, #0
   1fc64:	729c      	strb	r4, [r3, #10]
   1fc66:	2000      	movs	r0, #0

0001fc68 <realloc>:
   1fc68:	b510      	push	{r4, lr}
   1fc6a:	4b03      	ldr	r3, [pc, #12]	; (1fc78 <realloc+0x10>)
   1fc6c:	000a      	movs	r2, r1
   1fc6e:	0001      	movs	r1, r0
   1fc70:	6818      	ldr	r0, [r3, #0]
   1fc72:	f000 f81c 	bl	1fcae <_realloc_r>
   1fc76:	bd10      	pop	{r4, pc}
   1fc78:	6784      	str	r4, [r0, #120]	; 0x78
   1fc7a:	2000      	movs	r0, #0

0001fc7c <_sbrk_r>:
   1fc7c:	2300      	movs	r3, #0
   1fc7e:	b570      	push	{r4, r5, r6, lr}
   1fc80:	4c06      	ldr	r4, [pc, #24]	; (1fc9c <_sbrk_r+0x20>)
   1fc82:	0005      	movs	r5, r0
   1fc84:	0008      	movs	r0, r1
   1fc86:	6023      	str	r3, [r4, #0]
   1fc88:	f000 f842 	bl	1fd10 <_sbrk>
   1fc8c:	1c43      	adds	r3, r0, #1
   1fc8e:	d103      	bne.n	1fc98 <_sbrk_r+0x1c>
   1fc90:	6823      	ldr	r3, [r4, #0]
   1fc92:	2b00      	cmp	r3, #0
   1fc94:	d000      	beq.n	1fc98 <_sbrk_r+0x1c>
   1fc96:	602b      	str	r3, [r5, #0]
   1fc98:	bd70      	pop	{r4, r5, r6, pc}
   1fc9a:	46c0      	nop			; (mov r8, r8)
   1fc9c:	72cc      	strb	r4, [r1, #11]
   1fc9e:	2000      	movs	r0, #0

0001fca0 <strlen>:
   1fca0:	2300      	movs	r3, #0
   1fca2:	5cc2      	ldrb	r2, [r0, r3]
   1fca4:	3301      	adds	r3, #1
   1fca6:	2a00      	cmp	r2, #0
   1fca8:	d1fb      	bne.n	1fca2 <strlen+0x2>
   1fcaa:	1e58      	subs	r0, r3, #1
   1fcac:	4770      	bx	lr

0001fcae <_realloc_r>:
   1fcae:	b5f8      	push	{r3, r4, r5, r6, r7, lr}
   1fcb0:	0006      	movs	r6, r0
   1fcb2:	000c      	movs	r4, r1
   1fcb4:	0015      	movs	r5, r2
   1fcb6:	2900      	cmp	r1, #0
   1fcb8:	d104      	bne.n	1fcc4 <_realloc_r+0x16>
   1fcba:	0011      	movs	r1, r2
   1fcbc:	f7ff ff7e 	bl	1fbbc <_malloc_r>
   1fcc0:	0004      	movs	r4, r0
   1fcc2:	e018      	b.n	1fcf6 <_realloc_r+0x48>
   1fcc4:	2a00      	cmp	r2, #0
   1fcc6:	d103      	bne.n	1fcd0 <_realloc_r+0x22>
   1fcc8:	f7ff ff32 	bl	1fb30 <_free_r>
   1fccc:	002c      	movs	r4, r5
   1fcce:	e012      	b.n	1fcf6 <_realloc_r+0x48>
   1fcd0:	f000 f813 	bl	1fcfa <_malloc_usable_size_r>
   1fcd4:	4285      	cmp	r5, r0
   1fcd6:	d90e      	bls.n	1fcf6 <_realloc_r+0x48>
   1fcd8:	0029      	movs	r1, r5
   1fcda:	0030      	movs	r0, r6
   1fcdc:	f7ff ff6e 	bl	1fbbc <_malloc_r>
   1fce0:	1e07      	subs	r7, r0, #0
   1fce2:	d007      	beq.n	1fcf4 <_realloc_r+0x46>
   1fce4:	0021      	movs	r1, r4
   1fce6:	002a      	movs	r2, r5
   1fce8:	f7ff feee 	bl	1fac8 <memcpy>
   1fcec:	0021      	movs	r1, r4
   1fcee:	0030      	movs	r0, r6
   1fcf0:	f7ff ff1e 	bl	1fb30 <_free_r>
   1fcf4:	003c      	movs	r4, r7
   1fcf6:	0020      	movs	r0, r4
   1fcf8:	bdf8      	pop	{r3, r4, r5, r6, r7, pc}

0001fcfa <_malloc_usable_size_r>:
   1fcfa:	1f0b      	subs	r3, r1, #4
   1fcfc:	681a      	ldr	r2, [r3, #0]
   1fcfe:	1f10      	subs	r0, r2, #4
   1fd00:	2a00      	cmp	r2, #0
   1fd02:	da04      	bge.n	1fd0e <_malloc_usable_size_r+0x14>
   1fd04:	1889      	adds	r1, r1, r2
   1fd06:	3904      	subs	r1, #4
   1fd08:	680b      	ldr	r3, [r1, #0]
   1fd0a:	18d0      	adds	r0, r2, r3
   1fd0c:	3804      	subs	r0, #4
   1fd0e:	4770      	bx	lr

0001fd10 <_sbrk>:
   1fd10:	4a04      	ldr	r2, [pc, #16]	; (1fd24 <_sbrk+0x14>)
   1fd12:	6813      	ldr	r3, [r2, #0]
   1fd14:	2b00      	cmp	r3, #0
   1fd16:	d003      	beq.n	1fd20 <_sbrk+0x10>
   1fd18:	1818      	adds	r0, r3, r0
   1fd1a:	6010      	str	r0, [r2, #0]
   1fd1c:	0018      	movs	r0, r3
   1fd1e:	4770      	bx	lr
   1fd20:	4b01      	ldr	r3, [pc, #4]	; (1fd28 <_sbrk+0x18>)
   1fd22:	e7f9      	b.n	1fd18 <_sbrk+0x8>
   1fd24:	72a4      	strb	r4, [r4, #10]
   1fd26:	2000      	movs	r0, #0
   1fd28:	72d0      	strb	r0, [r2, #11]
   1fd2a:	2000      	movs	r0, #0

0001fd2c <_exit>:
   1fd2c:	e7fe      	b.n	1fd2c <_exit>
   1fd2e:	46c0      	nop			; (mov r8, r8)

0001fd30 <_init>:
   1fd30:	b5f8      	push	{r3, r4, r5, r6, r7, lr}
   1fd32:	46c0      	nop			; (mov r8, r8)
   1fd34:	bcf8      	pop	{r3, r4, r5, r6, r7}
   1fd36:	bc08      	pop	{r3}
   1fd38:	469e      	mov	lr, r3
   1fd3a:	4770      	bx	lr

0001fd3c <_fini>:
   1fd3c:	b5f8      	push	{r3, r4, r5, r6, r7, lr}
   1fd3e:	46c0      	nop			; (mov r8, r8)
   1fd40:	bcf8      	pop	{r3, r4, r5, r6, r7}
   1fd42:	bc08      	pop	{r3}
   1fd44:	469e      	mov	lr, r3
   1fd46:	4770      	bx	lr
   1fd48:	6f67      	ldr	r7, [r4, #116]	; 0x74
   1fd4a:	2e6f      	cmp	r6, #111	; 0x6f
   1fd4c:	6c67      	ldr	r7, [r4, #68]	; 0x44
   1fd4e:	702f      	strb	r7, [r5, #0]
   1fd50:	694b      	ldr	r3, [r1, #20]
   1fd52:	574c      	ldrsb	r4, [r1, r5]
   1fd54:	0035      	movs	r5, r6
   1fd56:	2d45      	cmp	r5, #69	; 0x45
   1fd58:	6e49      	ldr	r1, [r1, #100]	; 0x64
   1fd5a:	206b      	movs	r0, #107	; 0x6b
   1fd5c:	6964      	ldr	r4, [r4, #20]
   1fd5e:	7073      	strb	r3, [r6, #1]
   1fd60:	0000      	movs	r0, r0
	...

0001fd64 <m_conn_params_timer_id>:
   1fd64:	681c      	ldr	r4, [r3, #0]
   1fd66:	2000      	movs	r0, #0
   1fd68:	1000      	asrs	r0, r0, #32
   1fd6a:	0002      	movs	r2, r0

0001fd6c <SLAVE_LATENCY>:
   1fd6c:	0000      	movs	r0, r0
	...

0001fd70 <CONN_SUP_TIMEOUT>:
   1fd70:	0190      	lsls	r0, r2, #6
	...

0001fd74 <FIRST_CONN_PARAMS_UPDATE_DELAY>:
   1fd74:	8000      	strh	r0, [r0, #0]
	...

0001fd78 <m_default_config>:
   1fd78:	1e00      	subs	r0, r0, #0
   1fd7a:	ff1d ff03 	vpmax.f<illegal width 64>	d15, d13, d3
   1fd7e:	0000      	movs	r0, r0
   1fd80:	0000      	movs	r0, r0
   1fd82:	4000      	ands	r0, r0
   1fd84:	0000      	movs	r0, r0
   1fd86:	0000      	movs	r0, r0
   1fd88:	feaa 0001 	cdp2	0, 10, cr0, cr10, cr1, {0}
   1fd8c:	1e00      	subs	r0, r0, #0
   1fd8e:	ff1d ff03 	vpmax.f<illegal width 64>	d15, d13, d3
   1fd92:	0000      	movs	r0, r0
   1fd94:	0000      	movs	r0, r0
   1fd96:	4000      	ands	r0, r0
   1fd98:	0000      	movs	r0, r0
	...

0001fd9c <QRinput_anTable>:
   1fd9c:	ffff ffff 			; <UNDEFINED> instruction: 0xffffffff
   1fda0:	ffff ffff 			; <UNDEFINED> instruction: 0xffffffff
   1fda4:	ffff ffff 			; <UNDEFINED> instruction: 0xffffffff
   1fda8:	ffff ffff 			; <UNDEFINED> instruction: 0xffffffff
   1fdac:	ffff ffff 			; <UNDEFINED> instruction: 0xffffffff
   1fdb0:	ffff ffff 			; <UNDEFINED> instruction: 0xffffffff
   1fdb4:	ffff ffff 			; <UNDEFINED> instruction: 0xffffffff
   1fdb8:	ffff ffff 			; <UNDEFINED> instruction: 0xffffffff
   1fdbc:	ff24 ffff 	vminnm.f32	<illegal reg q7.5>, q10, <illegal reg q15.5>
   1fdc0:	2625      	movs	r6, #37	; 0x25
   1fdc2:	ffff ffff 			; <UNDEFINED> instruction: 0xffffffff
   1fdc6:	2827      	cmp	r0, #39	; 0x27
   1fdc8:	29ff      	cmp	r1, #255	; 0xff
   1fdca:	2b2a      	cmp	r3, #42	; 0x2a
   1fdcc:	0100      	lsls	r0, r0, #4
   1fdce:	0302      	lsls	r2, r0, #12
   1fdd0:	0504      	lsls	r4, r0, #20
   1fdd2:	0706      	lsls	r6, r0, #28
   1fdd4:	0908      	lsrs	r0, r1, #4
   1fdd6:	ff2c ffff 	vminnm.f32	<illegal reg q7.5>, q14, <illegal reg q15.5>
   1fdda:	ffff 0aff 			; <UNDEFINED> instruction: 0xffff0aff
   1fdde:	0c0b      	lsrs	r3, r1, #16
   1fde0:	0e0d      	lsrs	r5, r1, #24
   1fde2:	100f      	asrs	r7, r1, #32
   1fde4:	1211      	asrs	r1, r2, #8
   1fde6:	1413      	asrs	r3, r2, #16
   1fde8:	1615      	asrs	r5, r2, #24
   1fdea:	1817      	adds	r7, r2, r0
   1fdec:	1a19      	subs	r1, r3, r0
   1fdee:	1c1b      	adds	r3, r3, #0
   1fdf0:	1e1d      	subs	r5, r3, #0
   1fdf2:	201f      	movs	r0, #31
   1fdf4:	2221      	movs	r2, #33	; 0x21
   1fdf6:	ff23 ffff 	vminnm.f32	<illegal reg q7.5>, <illegal reg q9.5>, <illegal reg q15.5>
   1fdfa:	ffff ffff 			; <UNDEFINED> instruction: 0xffffffff
   1fdfe:	ffff ffff 			; <UNDEFINED> instruction: 0xffffffff
   1fe02:	ffff ffff 			; <UNDEFINED> instruction: 0xffffffff
   1fe06:	ffff ffff 			; <UNDEFINED> instruction: 0xffffffff
   1fe0a:	ffff ffff 			; <UNDEFINED> instruction: 0xffffffff
   1fe0e:	ffff ffff 			; <UNDEFINED> instruction: 0xffffffff
   1fe12:	ffff ffff 			; <UNDEFINED> instruction: 0xffffffff
   1fe16:	ffff ffff 			; <UNDEFINED> instruction: 0xffffffff
   1fe1a:	ffff df3f 	vcvt.u32.f32	d29, d31, #1

0001fe1c <maskMakers>:
   1fe1c:	df3f      	svc	63	; 0x3f
   1fe1e:	0001      	movs	r1, r0
   1fe20:	df93      	svc	147	; 0x93
   1fe22:	0001      	movs	r1, r0
   1fe24:	dfe9      	svc	233	; 0xe9
   1fe26:	0001      	movs	r1, r0
   1fe28:	e051      	b.n	1fece <lengthTableBits+0x12>
   1fe2a:	0001      	movs	r1, r0
   1fe2c:	e0bb      	b.n	1ffa6 <eccTable+0xba>
   1fe2e:	0001      	movs	r1, r0
   1fe30:	e12d      	b.n	2008e <eccTable+0x1a2>
   1fe32:	0001      	movs	r1, r0
   1fe34:	e1a7      	b.n	20186 <eccTable+0x29a>
   1fe36:	0001      	movs	r1, r0
   1fe38:	e21b      	b.n	20272 <eccTable+0x386>
   1fe3a:	0001      	movs	r1, r0

0001fe3c <formatInfo>:
   1fe3c:	77c4      	strb	r4, [r0, #31]
   1fe3e:	0000      	movs	r0, r0
   1fe40:	72f3      	strb	r3, [r6, #11]
   1fe42:	0000      	movs	r0, r0
   1fe44:	7daa      	ldrb	r2, [r5, #22]
   1fe46:	0000      	movs	r0, r0
   1fe48:	789d      	ldrb	r5, [r3, #2]
   1fe4a:	0000      	movs	r0, r0
   1fe4c:	662f      	str	r7, [r5, #96]	; 0x60
   1fe4e:	0000      	movs	r0, r0
   1fe50:	6318      	str	r0, [r3, #48]	; 0x30
   1fe52:	0000      	movs	r0, r0
   1fe54:	6c41      	ldr	r1, [r0, #68]	; 0x44
   1fe56:	0000      	movs	r0, r0
   1fe58:	6976      	ldr	r6, [r6, #20]
   1fe5a:	0000      	movs	r0, r0
   1fe5c:	5412      	strb	r2, [r2, r0]
   1fe5e:	0000      	movs	r0, r0
   1fe60:	5125      	str	r5, [r4, r4]
   1fe62:	0000      	movs	r0, r0
   1fe64:	5e7c      	ldrsh	r4, [r7, r1]
   1fe66:	0000      	movs	r0, r0
   1fe68:	5b4b      	ldrh	r3, [r1, r5]
   1fe6a:	0000      	movs	r0, r0
   1fe6c:	45f9      	cmp	r9, pc
   1fe6e:	0000      	movs	r0, r0
   1fe70:	40ce      	lsrs	r6, r1
   1fe72:	0000      	movs	r0, r0
   1fe74:	4f97      	ldr	r7, [pc, #604]	; (200d4 <eccTable+0x1e8>)
   1fe76:	0000      	movs	r0, r0
   1fe78:	4aa0      	ldr	r2, [pc, #640]	; (200fc <eccTable+0x210>)
   1fe7a:	0000      	movs	r0, r0
   1fe7c:	355f      	adds	r5, #95	; 0x5f
   1fe7e:	0000      	movs	r0, r0
   1fe80:	3068      	adds	r0, #104	; 0x68
   1fe82:	0000      	movs	r0, r0
   1fe84:	3f31      	subs	r7, #49	; 0x31
   1fe86:	0000      	movs	r0, r0
   1fe88:	3a06      	subs	r2, #6
   1fe8a:	0000      	movs	r0, r0
   1fe8c:	24b4      	movs	r4, #180	; 0xb4
   1fe8e:	0000      	movs	r0, r0
   1fe90:	2183      	movs	r1, #131	; 0x83
   1fe92:	0000      	movs	r0, r0
   1fe94:	2eda      	cmp	r6, #218	; 0xda
   1fe96:	0000      	movs	r0, r0
   1fe98:	2bed      	cmp	r3, #237	; 0xed
   1fe9a:	0000      	movs	r0, r0
   1fe9c:	1689      	asrs	r1, r1, #26
   1fe9e:	0000      	movs	r0, r0
   1fea0:	13be      	asrs	r6, r7, #14
   1fea2:	0000      	movs	r0, r0
   1fea4:	1ce7      	adds	r7, r4, #3
   1fea6:	0000      	movs	r0, r0
   1fea8:	19d0      	adds	r0, r2, r7
   1feaa:	0000      	movs	r0, r0
   1feac:	0762      	lsls	r2, r4, #29
   1feae:	0000      	movs	r0, r0
   1feb0:	0255      	lsls	r5, r2, #9
   1feb2:	0000      	movs	r0, r0
   1feb4:	0d0c      	lsrs	r4, r1, #20
   1feb6:	0000      	movs	r0, r0
   1feb8:	083b      	lsrs	r3, r7, #32
	...

0001febc <lengthTableBits>:
   1febc:	000a      	movs	r2, r1
   1febe:	0000      	movs	r0, r0
   1fec0:	000c      	movs	r4, r1
   1fec2:	0000      	movs	r0, r0
   1fec4:	000e      	movs	r6, r1
   1fec6:	0000      	movs	r0, r0
   1fec8:	0009      	movs	r1, r1
   1feca:	0000      	movs	r0, r0
   1fecc:	000b      	movs	r3, r1
   1fece:	0000      	movs	r0, r0
   1fed0:	000d      	movs	r5, r1
   1fed2:	0000      	movs	r0, r0
   1fed4:	0008      	movs	r0, r1
   1fed6:	0000      	movs	r0, r0
   1fed8:	0010      	movs	r0, r2
   1feda:	0000      	movs	r0, r0
   1fedc:	0010      	movs	r0, r2
   1fede:	0000      	movs	r0, r0
   1fee0:	0008      	movs	r0, r1
   1fee2:	0000      	movs	r0, r0
   1fee4:	000a      	movs	r2, r1
   1fee6:	0000      	movs	r0, r0
   1fee8:	000c      	movs	r4, r1
	...

0001feec <eccTable>:
	...
   1ff0c:	0001      	movs	r1, r0
   1ff0e:	0000      	movs	r0, r0
   1ff10:	0000      	movs	r0, r0
   1ff12:	0000      	movs	r0, r0
   1ff14:	0001      	movs	r1, r0
   1ff16:	0000      	movs	r0, r0
   1ff18:	0000      	movs	r0, r0
   1ff1a:	0000      	movs	r0, r0
   1ff1c:	0001      	movs	r1, r0
   1ff1e:	0000      	movs	r0, r0
   1ff20:	0000      	movs	r0, r0
   1ff22:	0000      	movs	r0, r0
   1ff24:	0001      	movs	r1, r0
   1ff26:	0000      	movs	r0, r0
   1ff28:	0000      	movs	r0, r0
   1ff2a:	0000      	movs	r0, r0
   1ff2c:	0001      	movs	r1, r0
   1ff2e:	0000      	movs	r0, r0
   1ff30:	0000      	movs	r0, r0
   1ff32:	0000      	movs	r0, r0
   1ff34:	0001      	movs	r1, r0
   1ff36:	0000      	movs	r0, r0
   1ff38:	0000      	movs	r0, r0
   1ff3a:	0000      	movs	r0, r0
   1ff3c:	0001      	movs	r1, r0
   1ff3e:	0000      	movs	r0, r0
   1ff40:	0000      	movs	r0, r0
   1ff42:	0000      	movs	r0, r0
   1ff44:	0001      	movs	r1, r0
   1ff46:	0000      	movs	r0, r0
   1ff48:	0000      	movs	r0, r0
   1ff4a:	0000      	movs	r0, r0
   1ff4c:	0001      	movs	r1, r0
   1ff4e:	0000      	movs	r0, r0
   1ff50:	0000      	movs	r0, r0
   1ff52:	0000      	movs	r0, r0
   1ff54:	0001      	movs	r1, r0
   1ff56:	0000      	movs	r0, r0
   1ff58:	0000      	movs	r0, r0
   1ff5a:	0000      	movs	r0, r0
   1ff5c:	0002      	movs	r2, r0
   1ff5e:	0000      	movs	r0, r0
   1ff60:	0000      	movs	r0, r0
   1ff62:	0000      	movs	r0, r0
   1ff64:	0002      	movs	r2, r0
   1ff66:	0000      	movs	r0, r0
   1ff68:	0000      	movs	r0, r0
   1ff6a:	0000      	movs	r0, r0
   1ff6c:	0001      	movs	r1, r0
   1ff6e:	0000      	movs	r0, r0
   1ff70:	0000      	movs	r0, r0
   1ff72:	0000      	movs	r0, r0
   1ff74:	0002      	movs	r2, r0
   1ff76:	0000      	movs	r0, r0
   1ff78:	0000      	movs	r0, r0
   1ff7a:	0000      	movs	r0, r0
   1ff7c:	0002      	movs	r2, r0
   1ff7e:	0000      	movs	r0, r0
   1ff80:	0000      	movs	r0, r0
   1ff82:	0000      	movs	r0, r0
   1ff84:	0004      	movs	r4, r0
   1ff86:	0000      	movs	r0, r0
   1ff88:	0000      	movs	r0, r0
   1ff8a:	0000      	movs	r0, r0
   1ff8c:	0001      	movs	r1, r0
   1ff8e:	0000      	movs	r0, r0
   1ff90:	0000      	movs	r0, r0
   1ff92:	0000      	movs	r0, r0
   1ff94:	0002      	movs	r2, r0
   1ff96:	0000      	movs	r0, r0
   1ff98:	0000      	movs	r0, r0
   1ff9a:	0000      	movs	r0, r0
   1ff9c:	0002      	movs	r2, r0
   1ff9e:	0000      	movs	r0, r0
   1ffa0:	0002      	movs	r2, r0
   1ffa2:	0000      	movs	r0, r0
   1ffa4:	0002      	movs	r2, r0
   1ffa6:	0000      	movs	r0, r0
   1ffa8:	0002      	movs	r2, r0
   1ffaa:	0000      	movs	r0, r0
   1ffac:	0002      	movs	r2, r0
   1ffae:	0000      	movs	r0, r0
   1ffb0:	0000      	movs	r0, r0
   1ffb2:	0000      	movs	r0, r0
   1ffb4:	0004      	movs	r4, r0
   1ffb6:	0000      	movs	r0, r0
   1ffb8:	0000      	movs	r0, r0
   1ffba:	0000      	movs	r0, r0
   1ffbc:	0004      	movs	r4, r0
   1ffbe:	0000      	movs	r0, r0
   1ffc0:	0000      	movs	r0, r0
   1ffc2:	0000      	movs	r0, r0
   1ffc4:	0004      	movs	r4, r0
   1ffc6:	0000      	movs	r0, r0
   1ffc8:	0000      	movs	r0, r0
   1ffca:	0000      	movs	r0, r0
   1ffcc:	0002      	movs	r2, r0
   1ffce:	0000      	movs	r0, r0
   1ffd0:	0000      	movs	r0, r0
   1ffd2:	0000      	movs	r0, r0
   1ffd4:	0004      	movs	r4, r0
   1ffd6:	0000      	movs	r0, r0
   1ffd8:	0000      	movs	r0, r0
   1ffda:	0000      	movs	r0, r0
   1ffdc:	0002      	movs	r2, r0
   1ffde:	0000      	movs	r0, r0
   1ffe0:	0004      	movs	r4, r0
   1ffe2:	0000      	movs	r0, r0
   1ffe4:	0004      	movs	r4, r0
   1ffe6:	0000      	movs	r0, r0
   1ffe8:	0001      	movs	r1, r0
   1ffea:	0000      	movs	r0, r0
   1ffec:	0002      	movs	r2, r0
   1ffee:	0000      	movs	r0, r0
   1fff0:	0000      	movs	r0, r0
   1fff2:	0000      	movs	r0, r0
   1fff4:	0002      	movs	r2, r0
   1fff6:	0000      	movs	r0, r0
   1fff8:	0002      	movs	r2, r0
   1fffa:	0000      	movs	r0, r0
   1fffc:	0004      	movs	r4, r0
   1fffe:	0000      	movs	r0, r0
   20000:	0002      	movs	r2, r0
   20002:	0000      	movs	r0, r0
   20004:	0004      	movs	r4, r0
   20006:	0000      	movs	r0, r0
   20008:	0002      	movs	r2, r0
   2000a:	0000      	movs	r0, r0
   2000c:	0002      	movs	r2, r0
   2000e:	0000      	movs	r0, r0
   20010:	0000      	movs	r0, r0
   20012:	0000      	movs	r0, r0
   20014:	0003      	movs	r3, r0
   20016:	0000      	movs	r0, r0
   20018:	0002      	movs	r2, r0
   2001a:	0000      	movs	r0, r0
   2001c:	0004      	movs	r4, r0
   2001e:	0000      	movs	r0, r0
   20020:	0004      	movs	r4, r0
   20022:	0000      	movs	r0, r0
   20024:	0004      	movs	r4, r0
   20026:	0000      	movs	r0, r0
   20028:	0004      	movs	r4, r0
   2002a:	0000      	movs	r0, r0
   2002c:	0002      	movs	r2, r0
   2002e:	0000      	movs	r0, r0
   20030:	0002      	movs	r2, r0
   20032:	0000      	movs	r0, r0
   20034:	0004      	movs	r4, r0
   20036:	0000      	movs	r0, r0
   20038:	0001      	movs	r1, r0
   2003a:	0000      	movs	r0, r0
   2003c:	0006      	movs	r6, r0
   2003e:	0000      	movs	r0, r0
   20040:	0002      	movs	r2, r0
   20042:	0000      	movs	r0, r0
   20044:	0006      	movs	r6, r0
   20046:	0000      	movs	r0, r0
   20048:	0002      	movs	r2, r0
   2004a:	0000      	movs	r0, r0
   2004c:	0004      	movs	r4, r0
   2004e:	0000      	movs	r0, r0
   20050:	0000      	movs	r0, r0
   20052:	0000      	movs	r0, r0
   20054:	0001      	movs	r1, r0
   20056:	0000      	movs	r0, r0
   20058:	0004      	movs	r4, r0
   2005a:	0000      	movs	r0, r0
   2005c:	0004      	movs	r4, r0
   2005e:	0000      	movs	r0, r0
   20060:	0004      	movs	r4, r0
   20062:	0000      	movs	r0, r0
   20064:	0003      	movs	r3, r0
   20066:	0000      	movs	r0, r0
   20068:	0008      	movs	r0, r1
   2006a:	0000      	movs	r0, r0
   2006c:	0002      	movs	r2, r0
   2006e:	0000      	movs	r0, r0
   20070:	0002      	movs	r2, r0
   20072:	0000      	movs	r0, r0
   20074:	0006      	movs	r6, r0
   20076:	0000      	movs	r0, r0
   20078:	0002      	movs	r2, r0
   2007a:	0000      	movs	r0, r0
   2007c:	0004      	movs	r4, r0
   2007e:	0000      	movs	r0, r0
   20080:	0006      	movs	r6, r0
   20082:	0000      	movs	r0, r0
   20084:	0007      	movs	r7, r0
   20086:	0000      	movs	r0, r0
   20088:	0004      	movs	r4, r0
   2008a:	0000      	movs	r0, r0
   2008c:	0004      	movs	r4, r0
   2008e:	0000      	movs	r0, r0
   20090:	0000      	movs	r0, r0
   20092:	0000      	movs	r0, r0
   20094:	0008      	movs	r0, r1
   20096:	0000      	movs	r0, r0
   20098:	0001      	movs	r1, r0
   2009a:	0000      	movs	r0, r0
   2009c:	0008      	movs	r0, r1
   2009e:	0000      	movs	r0, r0
   200a0:	0004      	movs	r4, r0
   200a2:	0000      	movs	r0, r0
   200a4:	000c      	movs	r4, r1
   200a6:	0000      	movs	r0, r0
   200a8:	0004      	movs	r4, r0
   200aa:	0000      	movs	r0, r0
   200ac:	0003      	movs	r3, r0
   200ae:	0000      	movs	r0, r0
   200b0:	0001      	movs	r1, r0
   200b2:	0000      	movs	r0, r0
   200b4:	0004      	movs	r4, r0
   200b6:	0000      	movs	r0, r0
   200b8:	0005      	movs	r5, r0
   200ba:	0000      	movs	r0, r0
   200bc:	000b      	movs	r3, r1
   200be:	0000      	movs	r0, r0
   200c0:	0005      	movs	r5, r0
   200c2:	0000      	movs	r0, r0
   200c4:	000b      	movs	r3, r1
   200c6:	0000      	movs	r0, r0
   200c8:	0005      	movs	r5, r0
   200ca:	0000      	movs	r0, r0
   200cc:	0005      	movs	r5, r0
   200ce:	0000      	movs	r0, r0
   200d0:	0001      	movs	r1, r0
   200d2:	0000      	movs	r0, r0
   200d4:	0005      	movs	r5, r0
   200d6:	0000      	movs	r0, r0
   200d8:	0005      	movs	r5, r0
   200da:	0000      	movs	r0, r0
   200dc:	0005      	movs	r5, r0
   200de:	0000      	movs	r0, r0
   200e0:	0007      	movs	r7, r0
   200e2:	0000      	movs	r0, r0
   200e4:	000b      	movs	r3, r1
   200e6:	0000      	movs	r0, r0
   200e8:	0007      	movs	r7, r0
   200ea:	0000      	movs	r0, r0
   200ec:	0005      	movs	r5, r0
   200ee:	0000      	movs	r0, r0
   200f0:	0001      	movs	r1, r0
   200f2:	0000      	movs	r0, r0
   200f4:	0007      	movs	r7, r0
   200f6:	0000      	movs	r0, r0
   200f8:	0003      	movs	r3, r0
   200fa:	0000      	movs	r0, r0
   200fc:	000f      	movs	r7, r1
   200fe:	0000      	movs	r0, r0
   20100:	0002      	movs	r2, r0
   20102:	0000      	movs	r0, r0
   20104:	0003      	movs	r3, r0
   20106:	0000      	movs	r0, r0
   20108:	000d      	movs	r5, r1
   2010a:	0000      	movs	r0, r0
   2010c:	0001      	movs	r1, r0
   2010e:	0000      	movs	r0, r0
   20110:	0005      	movs	r5, r0
   20112:	0000      	movs	r0, r0
   20114:	000a      	movs	r2, r1
   20116:	0000      	movs	r0, r0
   20118:	0001      	movs	r1, r0
   2011a:	0000      	movs	r0, r0
   2011c:	0001      	movs	r1, r0
   2011e:	0000      	movs	r0, r0
   20120:	000f      	movs	r7, r1
   20122:	0000      	movs	r0, r0
   20124:	0002      	movs	r2, r0
   20126:	0000      	movs	r0, r0
   20128:	0011      	movs	r1, r2
   2012a:	0000      	movs	r0, r0
   2012c:	0005      	movs	r5, r0
   2012e:	0000      	movs	r0, r0
   20130:	0001      	movs	r1, r0
   20132:	0000      	movs	r0, r0
   20134:	0009      	movs	r1, r1
   20136:	0000      	movs	r0, r0
   20138:	0004      	movs	r4, r0
   2013a:	0000      	movs	r0, r0
   2013c:	0011      	movs	r1, r2
   2013e:	0000      	movs	r0, r0
   20140:	0001      	movs	r1, r0
   20142:	0000      	movs	r0, r0
   20144:	0002      	movs	r2, r0
   20146:	0000      	movs	r0, r0
   20148:	0013      	movs	r3, r2
   2014a:	0000      	movs	r0, r0
   2014c:	0003      	movs	r3, r0
   2014e:	0000      	movs	r0, r0
   20150:	0004      	movs	r4, r0
   20152:	0000      	movs	r0, r0
   20154:	0003      	movs	r3, r0
   20156:	0000      	movs	r0, r0
   20158:	000b      	movs	r3, r1
   2015a:	0000      	movs	r0, r0
   2015c:	0011      	movs	r1, r2
   2015e:	0000      	movs	r0, r0
   20160:	0004      	movs	r4, r0
   20162:	0000      	movs	r0, r0
   20164:	0009      	movs	r1, r1
   20166:	0000      	movs	r0, r0
   20168:	0010      	movs	r0, r2
   2016a:	0000      	movs	r0, r0
   2016c:	0003      	movs	r3, r0
   2016e:	0000      	movs	r0, r0
   20170:	0005      	movs	r5, r0
   20172:	0000      	movs	r0, r0
   20174:	0003      	movs	r3, r0
   20176:	0000      	movs	r0, r0
   20178:	000d      	movs	r5, r1
   2017a:	0000      	movs	r0, r0
   2017c:	000f      	movs	r7, r1
   2017e:	0000      	movs	r0, r0
   20180:	0005      	movs	r5, r0
   20182:	0000      	movs	r0, r0
   20184:	000f      	movs	r7, r1
   20186:	0000      	movs	r0, r0
   20188:	000a      	movs	r2, r1
   2018a:	0000      	movs	r0, r0
   2018c:	0004      	movs	r4, r0
   2018e:	0000      	movs	r0, r0
   20190:	0004      	movs	r4, r0
   20192:	0000      	movs	r0, r0
   20194:	0011      	movs	r1, r2
   20196:	0000      	movs	r0, r0
   20198:	0000      	movs	r0, r0
   2019a:	0000      	movs	r0, r0
   2019c:	0011      	movs	r1, r2
   2019e:	0000      	movs	r0, r0
   201a0:	0006      	movs	r6, r0
   201a2:	0000      	movs	r0, r0
   201a4:	0013      	movs	r3, r2
   201a6:	0000      	movs	r0, r0
   201a8:	0006      	movs	r6, r0
   201aa:	0000      	movs	r0, r0
   201ac:	0002      	movs	r2, r0
   201ae:	0000      	movs	r0, r0
   201b0:	0007      	movs	r7, r0
   201b2:	0000      	movs	r0, r0
   201b4:	0011      	movs	r1, r2
   201b6:	0000      	movs	r0, r0
   201b8:	0000      	movs	r0, r0
   201ba:	0000      	movs	r0, r0
   201bc:	0007      	movs	r7, r0
   201be:	0000      	movs	r0, r0
   201c0:	0010      	movs	r0, r2
   201c2:	0000      	movs	r0, r0
   201c4:	0022      	movs	r2, r4
   201c6:	0000      	movs	r0, r0
   201c8:	0000      	movs	r0, r0
   201ca:	0000      	movs	r0, r0
   201cc:	0004      	movs	r4, r0
   201ce:	0000      	movs	r0, r0
   201d0:	0005      	movs	r5, r0
   201d2:	0000      	movs	r0, r0
   201d4:	0004      	movs	r4, r0
   201d6:	0000      	movs	r0, r0
   201d8:	000e      	movs	r6, r1
   201da:	0000      	movs	r0, r0
   201dc:	000b      	movs	r3, r1
   201de:	0000      	movs	r0, r0
   201e0:	000e      	movs	r6, r1
   201e2:	0000      	movs	r0, r0
   201e4:	0010      	movs	r0, r2
   201e6:	0000      	movs	r0, r0
   201e8:	000e      	movs	r6, r1
   201ea:	0000      	movs	r0, r0
   201ec:	0006      	movs	r6, r0
   201ee:	0000      	movs	r0, r0
   201f0:	0004      	movs	r4, r0
   201f2:	0000      	movs	r0, r0
   201f4:	0006      	movs	r6, r0
   201f6:	0000      	movs	r0, r0
   201f8:	000e      	movs	r6, r1
   201fa:	0000      	movs	r0, r0
   201fc:	000b      	movs	r3, r1
   201fe:	0000      	movs	r0, r0
   20200:	0010      	movs	r0, r2
   20202:	0000      	movs	r0, r0
   20204:	001e      	movs	r6, r3
   20206:	0000      	movs	r0, r0
   20208:	0002      	movs	r2, r0
   2020a:	0000      	movs	r0, r0
   2020c:	0008      	movs	r0, r1
   2020e:	0000      	movs	r0, r0
   20210:	0004      	movs	r4, r0
   20212:	0000      	movs	r0, r0
   20214:	0008      	movs	r0, r1
   20216:	0000      	movs	r0, r0
   20218:	000d      	movs	r5, r1
   2021a:	0000      	movs	r0, r0
   2021c:	0007      	movs	r7, r0
   2021e:	0000      	movs	r0, r0
   20220:	0016      	movs	r6, r2
   20222:	0000      	movs	r0, r0
   20224:	0016      	movs	r6, r2
   20226:	0000      	movs	r0, r0
   20228:	000d      	movs	r5, r1
   2022a:	0000      	movs	r0, r0
   2022c:	000a      	movs	r2, r1
   2022e:	0000      	movs	r0, r0
   20230:	0002      	movs	r2, r0
   20232:	0000      	movs	r0, r0
   20234:	0013      	movs	r3, r2
   20236:	0000      	movs	r0, r0
   20238:	0004      	movs	r4, r0
   2023a:	0000      	movs	r0, r0
   2023c:	001c      	movs	r4, r3
   2023e:	0000      	movs	r0, r0
   20240:	0006      	movs	r6, r0
   20242:	0000      	movs	r0, r0
   20244:	0021      	movs	r1, r4
   20246:	0000      	movs	r0, r0
   20248:	0004      	movs	r4, r0
   2024a:	0000      	movs	r0, r0
   2024c:	0008      	movs	r0, r1
   2024e:	0000      	movs	r0, r0
   20250:	0004      	movs	r4, r0
   20252:	0000      	movs	r0, r0
   20254:	0016      	movs	r6, r2
   20256:	0000      	movs	r0, r0
   20258:	0003      	movs	r3, r0
   2025a:	0000      	movs	r0, r0
   2025c:	0008      	movs	r0, r1
   2025e:	0000      	movs	r0, r0
   20260:	001a      	movs	r2, r3
   20262:	0000      	movs	r0, r0
   20264:	000c      	movs	r4, r1
   20266:	0000      	movs	r0, r0
   20268:	001c      	movs	r4, r3
   2026a:	0000      	movs	r0, r0
   2026c:	0003      	movs	r3, r0
   2026e:	0000      	movs	r0, r0
   20270:	000a      	movs	r2, r1
   20272:	0000      	movs	r0, r0
   20274:	0003      	movs	r3, r0
   20276:	0000      	movs	r0, r0
   20278:	0017      	movs	r7, r2
   2027a:	0000      	movs	r0, r0
   2027c:	0004      	movs	r4, r0
   2027e:	0000      	movs	r0, r0
   20280:	001f      	movs	r7, r3
   20282:	0000      	movs	r0, r0
   20284:	000b      	movs	r3, r1
   20286:	0000      	movs	r0, r0
   20288:	001f      	movs	r7, r3
   2028a:	0000      	movs	r0, r0
   2028c:	0007      	movs	r7, r0
   2028e:	0000      	movs	r0, r0
   20290:	0007      	movs	r7, r0
   20292:	0000      	movs	r0, r0
   20294:	0015      	movs	r5, r2
   20296:	0000      	movs	r0, r0
   20298:	0007      	movs	r7, r0
   2029a:	0000      	movs	r0, r0
   2029c:	0001      	movs	r1, r0
   2029e:	0000      	movs	r0, r0
   202a0:	0025      	movs	r5, r4
   202a2:	0000      	movs	r0, r0
   202a4:	0013      	movs	r3, r2
   202a6:	0000      	movs	r0, r0
   202a8:	001a      	movs	r2, r3
   202aa:	0000      	movs	r0, r0
   202ac:	0005      	movs	r5, r0
   202ae:	0000      	movs	r0, r0
   202b0:	000a      	movs	r2, r1
   202b2:	0000      	movs	r0, r0
   202b4:	0013      	movs	r3, r2
   202b6:	0000      	movs	r0, r0
   202b8:	000a      	movs	r2, r1
   202ba:	0000      	movs	r0, r0
   202bc:	000f      	movs	r7, r1
   202be:	0000      	movs	r0, r0
   202c0:	0019      	movs	r1, r3
   202c2:	0000      	movs	r0, r0
   202c4:	0017      	movs	r7, r2
   202c6:	0000      	movs	r0, r0
   202c8:	0019      	movs	r1, r3
   202ca:	0000      	movs	r0, r0
   202cc:	000d      	movs	r5, r1
   202ce:	0000      	movs	r0, r0
   202d0:	0003      	movs	r3, r0
   202d2:	0000      	movs	r0, r0
   202d4:	0002      	movs	r2, r0
   202d6:	0000      	movs	r0, r0
   202d8:	001d      	movs	r5, r3
   202da:	0000      	movs	r0, r0
   202dc:	002a      	movs	r2, r5
   202de:	0000      	movs	r0, r0
   202e0:	0001      	movs	r1, r0
   202e2:	0000      	movs	r0, r0
   202e4:	0017      	movs	r7, r2
   202e6:	0000      	movs	r0, r0
   202e8:	001c      	movs	r4, r3
   202ea:	0000      	movs	r0, r0
   202ec:	0011      	movs	r1, r2
   202ee:	0000      	movs	r0, r0
   202f0:	0000      	movs	r0, r0
   202f2:	0000      	movs	r0, r0
   202f4:	000a      	movs	r2, r1
   202f6:	0000      	movs	r0, r0
   202f8:	0017      	movs	r7, r2
   202fa:	0000      	movs	r0, r0
   202fc:	000a      	movs	r2, r1
   202fe:	0000      	movs	r0, r0
   20300:	0023      	movs	r3, r4
   20302:	0000      	movs	r0, r0
   20304:	0013      	movs	r3, r2
   20306:	0000      	movs	r0, r0
   20308:	0023      	movs	r3, r4
   2030a:	0000      	movs	r0, r0
   2030c:	0011      	movs	r1, r2
   2030e:	0000      	movs	r0, r0
   20310:	0001      	movs	r1, r0
   20312:	0000      	movs	r0, r0
   20314:	000e      	movs	r6, r1
   20316:	0000      	movs	r0, r0
   20318:	0015      	movs	r5, r2
   2031a:	0000      	movs	r0, r0
   2031c:	001d      	movs	r5, r3
   2031e:	0000      	movs	r0, r0
   20320:	0013      	movs	r3, r2
   20322:	0000      	movs	r0, r0
   20324:	000b      	movs	r3, r1
   20326:	0000      	movs	r0, r0
   20328:	002e      	movs	r6, r5
   2032a:	0000      	movs	r0, r0
   2032c:	000d      	movs	r5, r1
   2032e:	0000      	movs	r0, r0
   20330:	0006      	movs	r6, r0
   20332:	0000      	movs	r0, r0
   20334:	000e      	movs	r6, r1
   20336:	0000      	movs	r0, r0
   20338:	0017      	movs	r7, r2
   2033a:	0000      	movs	r0, r0
   2033c:	002c      	movs	r4, r5
   2033e:	0000      	movs	r0, r0
   20340:	0007      	movs	r7, r0
   20342:	0000      	movs	r0, r0
   20344:	003b      	movs	r3, r7
   20346:	0000      	movs	r0, r0
   20348:	0001      	movs	r1, r0
   2034a:	0000      	movs	r0, r0
   2034c:	000c      	movs	r4, r1
   2034e:	0000      	movs	r0, r0
   20350:	0007      	movs	r7, r0
   20352:	0000      	movs	r0, r0
   20354:	000c      	movs	r4, r1
   20356:	0000      	movs	r0, r0
   20358:	001a      	movs	r2, r3
   2035a:	0000      	movs	r0, r0
   2035c:	0027      	movs	r7, r4
   2035e:	0000      	movs	r0, r0
   20360:	000e      	movs	r6, r1
   20362:	0000      	movs	r0, r0
   20364:	0016      	movs	r6, r2
   20366:	0000      	movs	r0, r0
   20368:	0029      	movs	r1, r5
   2036a:	0000      	movs	r0, r0
   2036c:	0006      	movs	r6, r0
   2036e:	0000      	movs	r0, r0
   20370:	000e      	movs	r6, r1
   20372:	0000      	movs	r0, r0
   20374:	0006      	movs	r6, r0
   20376:	0000      	movs	r0, r0
   20378:	0022      	movs	r2, r4
   2037a:	0000      	movs	r0, r0
   2037c:	002e      	movs	r6, r5
   2037e:	0000      	movs	r0, r0
   20380:	000a      	movs	r2, r1
   20382:	0000      	movs	r0, r0
   20384:	0002      	movs	r2, r0
   20386:	0000      	movs	r0, r0
   20388:	0040      	lsls	r0, r0, #1
   2038a:	0000      	movs	r0, r0
   2038c:	0011      	movs	r1, r2
   2038e:	0000      	movs	r0, r0
   20390:	0004      	movs	r4, r0
   20392:	0000      	movs	r0, r0
   20394:	001d      	movs	r5, r3
   20396:	0000      	movs	r0, r0
   20398:	000e      	movs	r6, r1
   2039a:	0000      	movs	r0, r0
   2039c:	0031      	movs	r1, r6
   2039e:	0000      	movs	r0, r0
   203a0:	000a      	movs	r2, r1
   203a2:	0000      	movs	r0, r0
   203a4:	0018      	movs	r0, r3
   203a6:	0000      	movs	r0, r0
   203a8:	002e      	movs	r6, r5
   203aa:	0000      	movs	r0, r0
   203ac:	0004      	movs	r4, r0
   203ae:	0000      	movs	r0, r0
   203b0:	0012      	movs	r2, r2
   203b2:	0000      	movs	r0, r0
   203b4:	000d      	movs	r5, r1
   203b6:	0000      	movs	r0, r0
   203b8:	0020      	movs	r0, r4
   203ba:	0000      	movs	r0, r0
   203bc:	0030      	movs	r0, r6
   203be:	0000      	movs	r0, r0
   203c0:	000e      	movs	r6, r1
   203c2:	0000      	movs	r0, r0
   203c4:	002a      	movs	r2, r5
   203c6:	0000      	movs	r0, r0
   203c8:	0020      	movs	r0, r4
   203ca:	0000      	movs	r0, r0
   203cc:	0014      	movs	r4, r2
   203ce:	0000      	movs	r0, r0
   203d0:	0004      	movs	r4, r0
   203d2:	0000      	movs	r0, r0
   203d4:	0028      	movs	r0, r5
   203d6:	0000      	movs	r0, r0
   203d8:	0007      	movs	r7, r0
   203da:	0000      	movs	r0, r0
   203dc:	002b      	movs	r3, r5
   203de:	0000      	movs	r0, r0
   203e0:	0016      	movs	r6, r2
   203e2:	0000      	movs	r0, r0
   203e4:	000a      	movs	r2, r1
   203e6:	0000      	movs	r0, r0
   203e8:	0043      	lsls	r3, r0, #1
   203ea:	0000      	movs	r0, r0
   203ec:	0013      	movs	r3, r2
   203ee:	0000      	movs	r0, r0
   203f0:	0006      	movs	r6, r0
   203f2:	0000      	movs	r0, r0
   203f4:	0012      	movs	r2, r2
   203f6:	0000      	movs	r0, r0
   203f8:	001f      	movs	r7, r3
   203fa:	0000      	movs	r0, r0
   203fc:	0022      	movs	r2, r4
   203fe:	0000      	movs	r0, r0
   20400:	0022      	movs	r2, r4
   20402:	0000      	movs	r0, r0
   20404:	0014      	movs	r4, r2
   20406:	0000      	movs	r0, r0
   20408:	003d      	movs	r5, r7
	...

0002040c <finder.6042>:
   2040c:	c1c1      	stmia	r1!, {r0, r6, r7}
   2040e:	c1c1      	stmia	r1!, {r0, r6, r7}
   20410:	c1c1      	stmia	r1!, {r0, r6, r7}
   20412:	c1c1      	stmia	r1!, {r0, r6, r7}
   20414:	c0c0      	stmia	r0!, {r6, r7}
   20416:	c0c0      	stmia	r0!, {r6, r7}
   20418:	c1c0      	stmia	r1!, {r6, r7}
   2041a:	c0c1      	stmia	r0!, {r0, r6, r7}
   2041c:	c1c1      	stmia	r1!, {r0, r6, r7}
   2041e:	c0c1      	stmia	r0!, {r0, r6, r7}
   20420:	c1c1      	stmia	r1!, {r0, r6, r7}
   20422:	c1c0      	stmia	r1!, {r6, r7}
   20424:	c1c1      	stmia	r1!, {r0, r6, r7}
   20426:	c1c0      	stmia	r1!, {r6, r7}
   20428:	c0c1      	stmia	r0!, {r0, r6, r7}
   2042a:	c1c1      	stmia	r1!, {r0, r6, r7}
   2042c:	c0c1      	stmia	r0!, {r0, r6, r7}
   2042e:	c1c1      	stmia	r1!, {r0, r6, r7}
   20430:	c0c0      	stmia	r0!, {r6, r7}
   20432:	c0c0      	stmia	r0!, {r6, r7}
   20434:	c1c0      	stmia	r1!, {r6, r7}
   20436:	c1c1      	stmia	r1!, {r0, r6, r7}
   20438:	c1c1      	stmia	r1!, {r0, r6, r7}
   2043a:	c1c1      	stmia	r1!, {r0, r6, r7}
   2043c:	00c1      	lsls	r1, r0, #3
	...

00020440 <qrspecCapacity>:
	...
   2045c:	0015      	movs	r5, r2
   2045e:	0000      	movs	r0, r0
   20460:	001a      	movs	r2, r3
   20462:	0000      	movs	r0, r0
   20464:	0000      	movs	r0, r0
   20466:	0000      	movs	r0, r0
   20468:	0007      	movs	r7, r0
   2046a:	0000      	movs	r0, r0
   2046c:	000a      	movs	r2, r1
   2046e:	0000      	movs	r0, r0
   20470:	000d      	movs	r5, r1
   20472:	0000      	movs	r0, r0
   20474:	0011      	movs	r1, r2
   20476:	0000      	movs	r0, r0
   20478:	0019      	movs	r1, r3
   2047a:	0000      	movs	r0, r0
   2047c:	002c      	movs	r4, r5
   2047e:	0000      	movs	r0, r0
   20480:	0007      	movs	r7, r0
   20482:	0000      	movs	r0, r0
   20484:	000a      	movs	r2, r1
   20486:	0000      	movs	r0, r0
   20488:	0010      	movs	r0, r2
   2048a:	0000      	movs	r0, r0
   2048c:	0016      	movs	r6, r2
   2048e:	0000      	movs	r0, r0
   20490:	001c      	movs	r4, r3
   20492:	0000      	movs	r0, r0
   20494:	001d      	movs	r5, r3
   20496:	0000      	movs	r0, r0
   20498:	0046      	lsls	r6, r0, #1
   2049a:	0000      	movs	r0, r0
   2049c:	0007      	movs	r7, r0
   2049e:	0000      	movs	r0, r0
   204a0:	000f      	movs	r7, r1
   204a2:	0000      	movs	r0, r0
   204a4:	001a      	movs	r2, r3
   204a6:	0000      	movs	r0, r0
   204a8:	0024      	movs	r4, r4
   204aa:	0000      	movs	r0, r0
   204ac:	002c      	movs	r4, r5
   204ae:	0000      	movs	r0, r0
   204b0:	0021      	movs	r1, r4
   204b2:	0000      	movs	r0, r0
   204b4:	0064      	lsls	r4, r4, #1
   204b6:	0000      	movs	r0, r0
   204b8:	0007      	movs	r7, r0
   204ba:	0000      	movs	r0, r0
   204bc:	0014      	movs	r4, r2
   204be:	0000      	movs	r0, r0
   204c0:	0024      	movs	r4, r4
   204c2:	0000      	movs	r0, r0
   204c4:	0034      	movs	r4, r6
   204c6:	0000      	movs	r0, r0
   204c8:	0040      	lsls	r0, r0, #1
   204ca:	0000      	movs	r0, r0
   204cc:	0025      	movs	r5, r4
   204ce:	0000      	movs	r0, r0
   204d0:	0086      	lsls	r6, r0, #2
   204d2:	0000      	movs	r0, r0
   204d4:	0007      	movs	r7, r0
   204d6:	0000      	movs	r0, r0
   204d8:	001a      	movs	r2, r3
   204da:	0000      	movs	r0, r0
   204dc:	0030      	movs	r0, r6
   204de:	0000      	movs	r0, r0
   204e0:	0048      	lsls	r0, r1, #1
   204e2:	0000      	movs	r0, r0
   204e4:	0058      	lsls	r0, r3, #1
   204e6:	0000      	movs	r0, r0
   204e8:	0029      	movs	r1, r5
   204ea:	0000      	movs	r0, r0
   204ec:	00ac      	lsls	r4, r5, #2
   204ee:	0000      	movs	r0, r0
   204f0:	0007      	movs	r7, r0
   204f2:	0000      	movs	r0, r0
   204f4:	0024      	movs	r4, r4
   204f6:	0000      	movs	r0, r0
   204f8:	0040      	lsls	r0, r0, #1
   204fa:	0000      	movs	r0, r0
   204fc:	0060      	lsls	r0, r4, #1
   204fe:	0000      	movs	r0, r0
   20500:	0070      	lsls	r0, r6, #1
   20502:	0000      	movs	r0, r0
   20504:	002d      	movs	r5, r5
   20506:	0000      	movs	r0, r0
   20508:	00c4      	lsls	r4, r0, #3
   2050a:	0000      	movs	r0, r0
   2050c:	0000      	movs	r0, r0
   2050e:	0000      	movs	r0, r0
   20510:	0028      	movs	r0, r5
   20512:	0000      	movs	r0, r0
   20514:	0048      	lsls	r0, r1, #1
   20516:	0000      	movs	r0, r0
   20518:	006c      	lsls	r4, r5, #1
   2051a:	0000      	movs	r0, r0
   2051c:	0082      	lsls	r2, r0, #2
   2051e:	0000      	movs	r0, r0
   20520:	0031      	movs	r1, r6
   20522:	0000      	movs	r0, r0
   20524:	00f2      	lsls	r2, r6, #3
   20526:	0000      	movs	r0, r0
   20528:	0000      	movs	r0, r0
   2052a:	0000      	movs	r0, r0
   2052c:	0030      	movs	r0, r6
   2052e:	0000      	movs	r0, r0
   20530:	0058      	lsls	r0, r3, #1
   20532:	0000      	movs	r0, r0
   20534:	0084      	lsls	r4, r0, #2
   20536:	0000      	movs	r0, r0
   20538:	009c      	lsls	r4, r3, #2
   2053a:	0000      	movs	r0, r0
   2053c:	0035      	movs	r5, r6
   2053e:	0000      	movs	r0, r0
   20540:	0124      	lsls	r4, r4, #4
   20542:	0000      	movs	r0, r0
   20544:	0000      	movs	r0, r0
   20546:	0000      	movs	r0, r0
   20548:	003c      	movs	r4, r7
   2054a:	0000      	movs	r0, r0
   2054c:	006e      	lsls	r6, r5, #1
   2054e:	0000      	movs	r0, r0
   20550:	00a0      	lsls	r0, r4, #2
   20552:	0000      	movs	r0, r0
   20554:	00c0      	lsls	r0, r0, #3
   20556:	0000      	movs	r0, r0
   20558:	0039      	movs	r1, r7
   2055a:	0000      	movs	r0, r0
   2055c:	015a      	lsls	r2, r3, #5
   2055e:	0000      	movs	r0, r0
   20560:	0000      	movs	r0, r0
   20562:	0000      	movs	r0, r0
   20564:	0048      	lsls	r0, r1, #1
   20566:	0000      	movs	r0, r0
   20568:	0082      	lsls	r2, r0, #2
   2056a:	0000      	movs	r0, r0
   2056c:	00c0      	lsls	r0, r0, #3
   2056e:	0000      	movs	r0, r0
   20570:	00e0      	lsls	r0, r4, #3
   20572:	0000      	movs	r0, r0
   20574:	003d      	movs	r5, r7
   20576:	0000      	movs	r0, r0
   20578:	0194      	lsls	r4, r2, #6
   2057a:	0000      	movs	r0, r0
   2057c:	0000      	movs	r0, r0
   2057e:	0000      	movs	r0, r0
   20580:	0050      	lsls	r0, r2, #1
   20582:	0000      	movs	r0, r0
   20584:	0096      	lsls	r6, r2, #2
   20586:	0000      	movs	r0, r0
   20588:	00e0      	lsls	r0, r4, #3
   2058a:	0000      	movs	r0, r0
   2058c:	0108      	lsls	r0, r1, #4
   2058e:	0000      	movs	r0, r0
   20590:	0041      	lsls	r1, r0, #1
   20592:	0000      	movs	r0, r0
   20594:	01d2      	lsls	r2, r2, #7
   20596:	0000      	movs	r0, r0
   20598:	0000      	movs	r0, r0
   2059a:	0000      	movs	r0, r0
   2059c:	0060      	lsls	r0, r4, #1
   2059e:	0000      	movs	r0, r0
   205a0:	00b0      	lsls	r0, r6, #2
   205a2:	0000      	movs	r0, r0
   205a4:	0104      	lsls	r4, r0, #4
   205a6:	0000      	movs	r0, r0
   205a8:	0134      	lsls	r4, r6, #4
   205aa:	0000      	movs	r0, r0
   205ac:	0045      	lsls	r5, r0, #1
   205ae:	0000      	movs	r0, r0
   205b0:	0214      	lsls	r4, r2, #8
   205b2:	0000      	movs	r0, r0
   205b4:	0000      	movs	r0, r0
   205b6:	0000      	movs	r0, r0
   205b8:	0068      	lsls	r0, r5, #1
   205ba:	0000      	movs	r0, r0
   205bc:	00c6      	lsls	r6, r0, #3
   205be:	0000      	movs	r0, r0
   205c0:	0120      	lsls	r0, r4, #4
   205c2:	0000      	movs	r0, r0
   205c4:	0160      	lsls	r0, r4, #5
   205c6:	0000      	movs	r0, r0
   205c8:	0049      	lsls	r1, r1, #1
   205ca:	0000      	movs	r0, r0
   205cc:	0245      	lsls	r5, r0, #9
   205ce:	0000      	movs	r0, r0
   205d0:	0003      	movs	r3, r0
   205d2:	0000      	movs	r0, r0
   205d4:	0078      	lsls	r0, r7, #1
   205d6:	0000      	movs	r0, r0
   205d8:	00d8      	lsls	r0, r3, #3
   205da:	0000      	movs	r0, r0
   205dc:	0140      	lsls	r0, r0, #5
   205de:	0000      	movs	r0, r0
   205e0:	0180      	lsls	r0, r0, #6
   205e2:	0000      	movs	r0, r0
   205e4:	004d      	lsls	r5, r1, #1
   205e6:	0000      	movs	r0, r0
   205e8:	028f      	lsls	r7, r1, #10
   205ea:	0000      	movs	r0, r0
   205ec:	0003      	movs	r3, r0
   205ee:	0000      	movs	r0, r0
   205f0:	0084      	lsls	r4, r0, #2
   205f2:	0000      	movs	r0, r0
   205f4:	00f0      	lsls	r0, r6, #3
   205f6:	0000      	movs	r0, r0
   205f8:	0168      	lsls	r0, r5, #5
   205fa:	0000      	movs	r0, r0
   205fc:	01b0      	lsls	r0, r6, #6
   205fe:	0000      	movs	r0, r0
   20600:	0051      	lsls	r1, r2, #1
   20602:	0000      	movs	r0, r0
   20604:	02dd      	lsls	r5, r3, #11
   20606:	0000      	movs	r0, r0
   20608:	0003      	movs	r3, r0
   2060a:	0000      	movs	r0, r0
   2060c:	0090      	lsls	r0, r2, #2
   2060e:	0000      	movs	r0, r0
   20610:	0118      	lsls	r0, r3, #4
   20612:	0000      	movs	r0, r0
   20614:	0198      	lsls	r0, r3, #6
   20616:	0000      	movs	r0, r0
   20618:	01e0      	lsls	r0, r4, #7
   2061a:	0000      	movs	r0, r0
   2061c:	0055      	lsls	r5, r2, #1
   2061e:	0000      	movs	r0, r0
   20620:	032f      	lsls	r7, r5, #12
   20622:	0000      	movs	r0, r0
   20624:	0003      	movs	r3, r0
   20626:	0000      	movs	r0, r0
   20628:	00a8      	lsls	r0, r5, #2
   2062a:	0000      	movs	r0, r0
   2062c:	0134      	lsls	r4, r6, #4
   2062e:	0000      	movs	r0, r0
   20630:	01c0      	lsls	r0, r0, #7
   20632:	0000      	movs	r0, r0
   20634:	0214      	lsls	r4, r2, #8
   20636:	0000      	movs	r0, r0
   20638:	0059      	lsls	r1, r3, #1
   2063a:	0000      	movs	r0, r0
   2063c:	0385      	lsls	r5, r0, #14
   2063e:	0000      	movs	r0, r0
   20640:	0003      	movs	r3, r0
   20642:	0000      	movs	r0, r0
   20644:	00b4      	lsls	r4, r6, #2
   20646:	0000      	movs	r0, r0
   20648:	0152      	lsls	r2, r2, #5
   2064a:	0000      	movs	r0, r0
   2064c:	01f8      	lsls	r0, r7, #7
   2064e:	0000      	movs	r0, r0
   20650:	024c      	lsls	r4, r1, #9
   20652:	0000      	movs	r0, r0
   20654:	005d      	lsls	r5, r3, #1
   20656:	0000      	movs	r0, r0
   20658:	03df      	lsls	r7, r3, #15
   2065a:	0000      	movs	r0, r0
   2065c:	0003      	movs	r3, r0
   2065e:	0000      	movs	r0, r0
   20660:	00c4      	lsls	r4, r0, #3
   20662:	0000      	movs	r0, r0
   20664:	016c      	lsls	r4, r5, #5
   20666:	0000      	movs	r0, r0
   20668:	0222      	lsls	r2, r4, #8
   2066a:	0000      	movs	r0, r0
   2066c:	028a      	lsls	r2, r1, #10
   2066e:	0000      	movs	r0, r0
   20670:	0061      	lsls	r1, r4, #1
   20672:	0000      	movs	r0, r0
   20674:	043d      	lsls	r5, r7, #16
   20676:	0000      	movs	r0, r0
   20678:	0003      	movs	r3, r0
   2067a:	0000      	movs	r0, r0
   2067c:	00e0      	lsls	r0, r4, #3
   2067e:	0000      	movs	r0, r0
   20680:	01a0      	lsls	r0, r4, #6
   20682:	0000      	movs	r0, r0
   20684:	0258      	lsls	r0, r3, #9
   20686:	0000      	movs	r0, r0
   20688:	02bc      	lsls	r4, r7, #10
   2068a:	0000      	movs	r0, r0
   2068c:	0065      	lsls	r5, r4, #1
   2068e:	0000      	movs	r0, r0
   20690:	0484      	lsls	r4, r0, #18
   20692:	0000      	movs	r0, r0
   20694:	0004      	movs	r4, r0
   20696:	0000      	movs	r0, r0
   20698:	00e0      	lsls	r0, r4, #3
   2069a:	0000      	movs	r0, r0
   2069c:	01ba      	lsls	r2, r7, #6
   2069e:	0000      	movs	r0, r0
   206a0:	0284      	lsls	r4, r0, #10
   206a2:	0000      	movs	r0, r0
   206a4:	02ee      	lsls	r6, r5, #11
   206a6:	0000      	movs	r0, r0
   206a8:	0069      	lsls	r1, r5, #1
   206aa:	0000      	movs	r0, r0
   206ac:	04ea      	lsls	r2, r5, #19
   206ae:	0000      	movs	r0, r0
   206b0:	0004      	movs	r4, r0
   206b2:	0000      	movs	r0, r0
   206b4:	00fc      	lsls	r4, r7, #3
   206b6:	0000      	movs	r0, r0
   206b8:	01dc      	lsls	r4, r3, #7
   206ba:	0000      	movs	r0, r0
   206bc:	02b2      	lsls	r2, r6, #10
   206be:	0000      	movs	r0, r0
   206c0:	0330      	lsls	r0, r6, #12
   206c2:	0000      	movs	r0, r0
   206c4:	006d      	lsls	r5, r5, #1
   206c6:	0000      	movs	r0, r0
   206c8:	0554      	lsls	r4, r2, #21
   206ca:	0000      	movs	r0, r0
   206cc:	0004      	movs	r4, r0
   206ce:	0000      	movs	r0, r0
   206d0:	010e      	lsls	r6, r1, #4
   206d2:	0000      	movs	r0, r0
   206d4:	01f8      	lsls	r0, r7, #7
   206d6:	0000      	movs	r0, r0
   206d8:	02ee      	lsls	r6, r5, #11
   206da:	0000      	movs	r0, r0
   206dc:	0384      	lsls	r4, r0, #14
   206de:	0000      	movs	r0, r0
   206e0:	0071      	lsls	r1, r6, #1
   206e2:	0000      	movs	r0, r0
   206e4:	05c2      	lsls	r2, r0, #23
   206e6:	0000      	movs	r0, r0
   206e8:	0004      	movs	r4, r0
   206ea:	0000      	movs	r0, r0
   206ec:	012c      	lsls	r4, r5, #4
   206ee:	0000      	movs	r0, r0
   206f0:	0230      	lsls	r0, r6, #8
   206f2:	0000      	movs	r0, r0
   206f4:	032a      	lsls	r2, r5, #12
   206f6:	0000      	movs	r0, r0
   206f8:	03c0      	lsls	r0, r0, #15
   206fa:	0000      	movs	r0, r0
   206fc:	0075      	lsls	r5, r6, #1
   206fe:	0000      	movs	r0, r0
   20700:	0634      	lsls	r4, r6, #24
   20702:	0000      	movs	r0, r0
   20704:	0004      	movs	r4, r0
   20706:	0000      	movs	r0, r0
   20708:	0138      	lsls	r0, r7, #4
   2070a:	0000      	movs	r0, r0
   2070c:	024c      	lsls	r4, r1, #9
   2070e:	0000      	movs	r0, r0
   20710:	0366      	lsls	r6, r4, #13
   20712:	0000      	movs	r0, r0
   20714:	041a      	lsls	r2, r3, #16
   20716:	0000      	movs	r0, r0
   20718:	0079      	lsls	r1, r7, #1
   2071a:	0000      	movs	r0, r0
   2071c:	06aa      	lsls	r2, r5, #26
   2071e:	0000      	movs	r0, r0
   20720:	0004      	movs	r4, r0
   20722:	0000      	movs	r0, r0
   20724:	0150      	lsls	r0, r2, #5
   20726:	0000      	movs	r0, r0
   20728:	0284      	lsls	r4, r0, #10
   2072a:	0000      	movs	r0, r0
   2072c:	03b8      	lsls	r0, r7, #14
   2072e:	0000      	movs	r0, r0
   20730:	0456      	lsls	r6, r2, #17
   20732:	0000      	movs	r0, r0
   20734:	007d      	lsls	r5, r7, #1
   20736:	0000      	movs	r0, r0
   20738:	0724      	lsls	r4, r4, #28
   2073a:	0000      	movs	r0, r0
   2073c:	0004      	movs	r4, r0
   2073e:	0000      	movs	r0, r0
   20740:	0168      	lsls	r0, r5, #5
   20742:	0000      	movs	r0, r0
   20744:	02bc      	lsls	r4, r7, #10
   20746:	0000      	movs	r0, r0
   20748:	03fc      	lsls	r4, r7, #15
   2074a:	0000      	movs	r0, r0
   2074c:	04b0      	lsls	r0, r6, #18
   2074e:	0000      	movs	r0, r0
   20750:	0081      	lsls	r1, r0, #2
   20752:	0000      	movs	r0, r0
   20754:	0781      	lsls	r1, r0, #30
   20756:	0000      	movs	r0, r0
   20758:	0003      	movs	r3, r0
   2075a:	0000      	movs	r0, r0
   2075c:	0186      	lsls	r6, r0, #6
   2075e:	0000      	movs	r0, r0
   20760:	02d8      	lsls	r0, r3, #11
   20762:	0000      	movs	r0, r0
   20764:	041a      	lsls	r2, r3, #16
   20766:	0000      	movs	r0, r0
   20768:	04ec      	lsls	r4, r5, #19
   2076a:	0000      	movs	r0, r0
   2076c:	0085      	lsls	r5, r0, #2
   2076e:	0000      	movs	r0, r0
   20770:	0803      	lsrs	r3, r0, #32
   20772:	0000      	movs	r0, r0
   20774:	0003      	movs	r3, r0
   20776:	0000      	movs	r0, r0
   20778:	01a4      	lsls	r4, r4, #6
   2077a:	0000      	movs	r0, r0
   2077c:	0310      	lsls	r0, r2, #12
   2077e:	0000      	movs	r0, r0
   20780:	0474      	lsls	r4, r6, #17
   20782:	0000      	movs	r0, r0
   20784:	0546      	lsls	r6, r0, #21
   20786:	0000      	movs	r0, r0
   20788:	0089      	lsls	r1, r1, #2
   2078a:	0000      	movs	r0, r0
   2078c:	0889      	lsrs	r1, r1, #2
   2078e:	0000      	movs	r0, r0
   20790:	0003      	movs	r3, r0
   20792:	0000      	movs	r0, r0
   20794:	01c2      	lsls	r2, r0, #7
   20796:	0000      	movs	r0, r0
   20798:	032c      	lsls	r4, r5, #12
   2079a:	0000      	movs	r0, r0
   2079c:	04b0      	lsls	r0, r6, #18
   2079e:	0000      	movs	r0, r0
   207a0:	05a0      	lsls	r0, r4, #22
   207a2:	0000      	movs	r0, r0
   207a4:	008d      	lsls	r5, r1, #2
   207a6:	0000      	movs	r0, r0
   207a8:	0913      	lsrs	r3, r2, #4
   207aa:	0000      	movs	r0, r0
   207ac:	0003      	movs	r3, r0
   207ae:	0000      	movs	r0, r0
   207b0:	01e0      	lsls	r0, r4, #7
   207b2:	0000      	movs	r0, r0
   207b4:	0364      	lsls	r4, r4, #13
   207b6:	0000      	movs	r0, r0
   207b8:	050a      	lsls	r2, r1, #20
   207ba:	0000      	movs	r0, r0
   207bc:	05fa      	lsls	r2, r7, #23
   207be:	0000      	movs	r0, r0
   207c0:	0091      	lsls	r1, r2, #2
   207c2:	0000      	movs	r0, r0
   207c4:	09a1      	lsrs	r1, r4, #6
   207c6:	0000      	movs	r0, r0
   207c8:	0003      	movs	r3, r0
   207ca:	0000      	movs	r0, r0
   207cc:	01fe      	lsls	r6, r7, #7
   207ce:	0000      	movs	r0, r0
   207d0:	039c      	lsls	r4, r3, #14
   207d2:	0000      	movs	r0, r0
   207d4:	0546      	lsls	r6, r0, #21
   207d6:	0000      	movs	r0, r0
   207d8:	0654      	lsls	r4, r2, #25
   207da:	0000      	movs	r0, r0
   207dc:	0095      	lsls	r5, r2, #2
   207de:	0000      	movs	r0, r0
   207e0:	0a33      	lsrs	r3, r6, #8
   207e2:	0000      	movs	r0, r0
   207e4:	0003      	movs	r3, r0
   207e6:	0000      	movs	r0, r0
   207e8:	021c      	lsls	r4, r3, #8
   207ea:	0000      	movs	r0, r0
   207ec:	03d4      	lsls	r4, r2, #15
   207ee:	0000      	movs	r0, r0
   207f0:	05a0      	lsls	r0, r4, #22
   207f2:	0000      	movs	r0, r0
   207f4:	06ae      	lsls	r6, r5, #26
   207f6:	0000      	movs	r0, r0
   207f8:	0099      	lsls	r1, r3, #2
   207fa:	0000      	movs	r0, r0
   207fc:	0ac9      	lsrs	r1, r1, #11
   207fe:	0000      	movs	r0, r0
   20800:	0003      	movs	r3, r0
   20802:	0000      	movs	r0, r0
   20804:	023a      	lsls	r2, r7, #8
   20806:	0000      	movs	r0, r0
   20808:	040c      	lsls	r4, r1, #16
   2080a:	0000      	movs	r0, r0
   2080c:	05fa      	lsls	r2, r7, #23
   2080e:	0000      	movs	r0, r0
   20810:	0708      	lsls	r0, r1, #28
   20812:	0000      	movs	r0, r0
   20814:	009d      	lsls	r5, r3, #2
   20816:	0000      	movs	r0, r0
   20818:	0b3c      	lsrs	r4, r7, #12
   2081a:	0000      	movs	r0, r0
   2081c:	0000      	movs	r0, r0
   2081e:	0000      	movs	r0, r0
   20820:	023a      	lsls	r2, r7, #8
   20822:	0000      	movs	r0, r0
   20824:	0428      	lsls	r0, r5, #16
   20826:	0000      	movs	r0, r0
   20828:	0636      	lsls	r6, r6, #24
   2082a:	0000      	movs	r0, r0
   2082c:	0762      	lsls	r2, r4, #29
   2082e:	0000      	movs	r0, r0
   20830:	00a1      	lsls	r1, r4, #2
   20832:	0000      	movs	r0, r0
   20834:	0bda      	lsrs	r2, r3, #15
   20836:	0000      	movs	r0, r0
   20838:	0000      	movs	r0, r0
   2083a:	0000      	movs	r0, r0
   2083c:	0258      	lsls	r0, r3, #9
   2083e:	0000      	movs	r0, r0
   20840:	0460      	lsls	r0, r4, #17
   20842:	0000      	movs	r0, r0
   20844:	0690      	lsls	r0, r2, #26
   20846:	0000      	movs	r0, r0
   20848:	07bc      	lsls	r4, r7, #30
   2084a:	0000      	movs	r0, r0
   2084c:	00a5      	lsls	r5, r4, #2
   2084e:	0000      	movs	r0, r0
   20850:	0c7c      	lsrs	r4, r7, #17
   20852:	0000      	movs	r0, r0
   20854:	0000      	movs	r0, r0
   20856:	0000      	movs	r0, r0
   20858:	0276      	lsls	r6, r6, #9
   2085a:	0000      	movs	r0, r0
   2085c:	04b4      	lsls	r4, r6, #18
   2085e:	0000      	movs	r0, r0
   20860:	06ea      	lsls	r2, r5, #27
   20862:	0000      	movs	r0, r0
   20864:	0834      	lsrs	r4, r6, #32
   20866:	0000      	movs	r0, r0
   20868:	00a9      	lsls	r1, r5, #2
   2086a:	0000      	movs	r0, r0
   2086c:	0d22      	lsrs	r2, r4, #20
   2086e:	0000      	movs	r0, r0
   20870:	0000      	movs	r0, r0
   20872:	0000      	movs	r0, r0
   20874:	0294      	lsls	r4, r2, #10
   20876:	0000      	movs	r0, r0
   20878:	04ec      	lsls	r4, r5, #19
   2087a:	0000      	movs	r0, r0
   2087c:	0744      	lsls	r4, r0, #29
   2087e:	0000      	movs	r0, r0
   20880:	08ac      	lsrs	r4, r5, #2
   20882:	0000      	movs	r0, r0
   20884:	00ad      	lsls	r5, r5, #2
   20886:	0000      	movs	r0, r0
   20888:	0dcc      	lsrs	r4, r1, #23
   2088a:	0000      	movs	r0, r0
   2088c:	0000      	movs	r0, r0
   2088e:	0000      	movs	r0, r0
   20890:	02d0      	lsls	r0, r2, #11
   20892:	0000      	movs	r0, r0
   20894:	0524      	lsls	r4, r4, #20
   20896:	0000      	movs	r0, r0
   20898:	079e      	lsls	r6, r3, #30
   2089a:	0000      	movs	r0, r0
   2089c:	0906      	lsrs	r6, r0, #4
   2089e:	0000      	movs	r0, r0
   208a0:	00b1      	lsls	r1, r6, #2
   208a2:	0000      	movs	r0, r0
   208a4:	0e7a      	lsrs	r2, r7, #25
   208a6:	0000      	movs	r0, r0
   208a8:	0000      	movs	r0, r0
   208aa:	0000      	movs	r0, r0
   208ac:	02ee      	lsls	r6, r5, #11
   208ae:	0000      	movs	r0, r0
   208b0:	055c      	lsls	r4, r3, #21
   208b2:	0000      	movs	r0, r0
   208b4:	07f8      	lsls	r0, r7, #31
   208b6:	0000      	movs	r0, r0
   208b8:	097e      	lsrs	r6, r7, #5
	...

000208bc <versionPattern>:
   208bc:	7c94      	ldrb	r4, [r2, #18]
   208be:	0000      	movs	r0, r0
   208c0:	85bc      	strh	r4, [r7, #44]	; 0x2c
   208c2:	0000      	movs	r0, r0
   208c4:	9a99      	ldr	r2, [sp, #612]	; 0x264
   208c6:	0000      	movs	r0, r0
   208c8:	a4d3      	add	r4, pc, #844	; (adr r4, 20c18 <mqrspecCapacity+0x30>)
   208ca:	0000      	movs	r0, r0
   208cc:	bbf6      	cbnz	r6, 2094c <finder.5997+0x8>
   208ce:	0000      	movs	r0, r0
   208d0:	c762      	stmia	r7!, {r1, r5, r6}
   208d2:	0000      	movs	r0, r0
   208d4:	d847      	bhi.n	20966 <alignmentPattern+0x6>
   208d6:	0000      	movs	r0, r0
   208d8:	e60d      	b.n	204f6 <qrspecCapacity+0xb6>
   208da:	0000      	movs	r0, r0
   208dc:	f928 0000 	vld4.8	{d0-d3}, [r8], r0
   208e0:	0b78      	lsrs	r0, r7, #13
   208e2:	0001      	movs	r1, r0
   208e4:	145d      	asrs	r5, r3, #17
   208e6:	0001      	movs	r1, r0
   208e8:	2a17      	cmp	r2, #23
   208ea:	0001      	movs	r1, r0
   208ec:	3532      	adds	r5, #50	; 0x32
   208ee:	0001      	movs	r1, r0
   208f0:	49a6      	ldr	r1, [pc, #664]	; (20b8c <finder.5925+0x18>)
   208f2:	0001      	movs	r1, r0
   208f4:	5683      	ldrsb	r3, [r0, r2]
   208f6:	0001      	movs	r1, r0
   208f8:	68c9      	ldr	r1, [r1, #12]
   208fa:	0001      	movs	r1, r0
   208fc:	77ec      	strb	r4, [r5, #31]
   208fe:	0001      	movs	r1, r0
   20900:	8ec4      	ldrh	r4, [r0, #54]	; 0x36
   20902:	0001      	movs	r1, r0
   20904:	91e1      	str	r1, [sp, #900]	; 0x384
   20906:	0001      	movs	r1, r0
   20908:	afab      	add	r7, sp, #684	; 0x2ac
   2090a:	0001      	movs	r1, r0
   2090c:	b08e      	sub	sp, #56	; 0x38
   2090e:	0001      	movs	r1, r0
   20910:	cc1a      	ldmia	r4, {r1, r3, r4}
   20912:	0001      	movs	r1, r0
   20914:	d33f      	bcc.n	20996 <alignmentPattern+0x36>
   20916:	0001      	movs	r1, r0
   20918:	ed75 0001 	ldcl	0, cr0, [r5, #-4]!
   2091c:	f250 0001 			; <UNDEFINED> instruction: 0xf2500001
   20920:	09d5      	lsrs	r5, r2, #7
   20922:	0002      	movs	r2, r0
   20924:	16f0      	asrs	r0, r6, #27
   20926:	0002      	movs	r2, r0
   20928:	28ba      	cmp	r0, #186	; 0xba
   2092a:	0002      	movs	r2, r0
   2092c:	379f      	adds	r7, #159	; 0x9f
   2092e:	0002      	movs	r2, r0
   20930:	4b0b      	ldr	r3, [pc, #44]	; (20960 <alignmentPattern>)
   20932:	0002      	movs	r2, r0
   20934:	542e      	strb	r6, [r5, r0]
   20936:	0002      	movs	r2, r0
   20938:	6a64      	ldr	r4, [r4, #36]	; 0x24
   2093a:	0002      	movs	r2, r0
   2093c:	7541      	strb	r1, [r0, #21]
   2093e:	0002      	movs	r2, r0
   20940:	8c69      	ldrh	r1, [r5, #34]	; 0x22
   20942:	0002      	movs	r2, r0

00020944 <finder.5997>:
   20944:	a1a1      	add	r1, pc, #644	; (adr r1, 20bcc <lengthTableBits+0x24>)
   20946:	a1a1      	add	r1, pc, #644	; (adr r1, 20bcc <lengthTableBits+0x24>)
   20948:	a1a1      	add	r1, pc, #644	; (adr r1, 20bd0 <lengthTableBits+0x28>)
   2094a:	a0a0      	add	r0, pc, #640	; (adr r0, 20bcc <lengthTableBits+0x24>)
   2094c:	a1a0      	add	r1, pc, #640	; (adr r1, 20bd0 <lengthTableBits+0x28>)
   2094e:	a0a1      	add	r0, pc, #644	; (adr r0, 20bd4 <lengthTableBits+0x2c>)
   20950:	a0a1      	add	r0, pc, #644	; (adr r0, 20bd8 <lengthTableBits+0x30>)
   20952:	a1a1      	add	r1, pc, #644	; (adr r1, 20bd8 <lengthTableBits+0x30>)
   20954:	a0a0      	add	r0, pc, #640	; (adr r0, 20bd8 <lengthTableBits+0x30>)
   20956:	a1a0      	add	r1, pc, #640	; (adr r1, 20bd8 <lengthTableBits+0x30>)
   20958:	a1a1      	add	r1, pc, #644	; (adr r1, 20be0 <lengthTableBits+0x38>)
   2095a:	a1a1      	add	r1, pc, #644	; (adr r1, 20be0 <lengthTableBits+0x38>)
   2095c:	00a1      	lsls	r1, r4, #2
	...

00020960 <alignmentPattern>:
	...
   20970:	0012      	movs	r2, r2
   20972:	0000      	movs	r0, r0
   20974:	0000      	movs	r0, r0
   20976:	0000      	movs	r0, r0
   20978:	0016      	movs	r6, r2
   2097a:	0000      	movs	r0, r0
   2097c:	0000      	movs	r0, r0
   2097e:	0000      	movs	r0, r0
   20980:	001a      	movs	r2, r3
   20982:	0000      	movs	r0, r0
   20984:	0000      	movs	r0, r0
   20986:	0000      	movs	r0, r0
   20988:	001e      	movs	r6, r3
   2098a:	0000      	movs	r0, r0
   2098c:	0000      	movs	r0, r0
   2098e:	0000      	movs	r0, r0
   20990:	0022      	movs	r2, r4
   20992:	0000      	movs	r0, r0
   20994:	0000      	movs	r0, r0
   20996:	0000      	movs	r0, r0
   20998:	0016      	movs	r6, r2
   2099a:	0000      	movs	r0, r0
   2099c:	0026      	movs	r6, r4
   2099e:	0000      	movs	r0, r0
   209a0:	0018      	movs	r0, r3
   209a2:	0000      	movs	r0, r0
   209a4:	002a      	movs	r2, r5
   209a6:	0000      	movs	r0, r0
   209a8:	001a      	movs	r2, r3
   209aa:	0000      	movs	r0, r0
   209ac:	002e      	movs	r6, r5
   209ae:	0000      	movs	r0, r0
   209b0:	001c      	movs	r4, r3
   209b2:	0000      	movs	r0, r0
   209b4:	0032      	movs	r2, r6
   209b6:	0000      	movs	r0, r0
   209b8:	001e      	movs	r6, r3
   209ba:	0000      	movs	r0, r0
   209bc:	0036      	movs	r6, r6
   209be:	0000      	movs	r0, r0
   209c0:	0020      	movs	r0, r4
   209c2:	0000      	movs	r0, r0
   209c4:	003a      	movs	r2, r7
   209c6:	0000      	movs	r0, r0
   209c8:	0022      	movs	r2, r4
   209ca:	0000      	movs	r0, r0
   209cc:	003e      	movs	r6, r7
   209ce:	0000      	movs	r0, r0
   209d0:	001a      	movs	r2, r3
   209d2:	0000      	movs	r0, r0
   209d4:	002e      	movs	r6, r5
   209d6:	0000      	movs	r0, r0
   209d8:	001a      	movs	r2, r3
   209da:	0000      	movs	r0, r0
   209dc:	0030      	movs	r0, r6
   209de:	0000      	movs	r0, r0
   209e0:	001a      	movs	r2, r3
   209e2:	0000      	movs	r0, r0
   209e4:	0032      	movs	r2, r6
   209e6:	0000      	movs	r0, r0
   209e8:	001e      	movs	r6, r3
   209ea:	0000      	movs	r0, r0
   209ec:	0036      	movs	r6, r6
   209ee:	0000      	movs	r0, r0
   209f0:	001e      	movs	r6, r3
   209f2:	0000      	movs	r0, r0
   209f4:	0038      	movs	r0, r7
   209f6:	0000      	movs	r0, r0
   209f8:	001e      	movs	r6, r3
   209fa:	0000      	movs	r0, r0
   209fc:	003a      	movs	r2, r7
   209fe:	0000      	movs	r0, r0
   20a00:	0022      	movs	r2, r4
   20a02:	0000      	movs	r0, r0
   20a04:	003e      	movs	r6, r7
   20a06:	0000      	movs	r0, r0
   20a08:	001c      	movs	r4, r3
   20a0a:	0000      	movs	r0, r0
   20a0c:	0032      	movs	r2, r6
   20a0e:	0000      	movs	r0, r0
   20a10:	001a      	movs	r2, r3
   20a12:	0000      	movs	r0, r0
   20a14:	0032      	movs	r2, r6
   20a16:	0000      	movs	r0, r0
   20a18:	001e      	movs	r6, r3
   20a1a:	0000      	movs	r0, r0
   20a1c:	0036      	movs	r6, r6
   20a1e:	0000      	movs	r0, r0
   20a20:	001c      	movs	r4, r3
   20a22:	0000      	movs	r0, r0
   20a24:	0036      	movs	r6, r6
   20a26:	0000      	movs	r0, r0
   20a28:	0020      	movs	r0, r4
   20a2a:	0000      	movs	r0, r0
   20a2c:	003a      	movs	r2, r7
   20a2e:	0000      	movs	r0, r0
   20a30:	001e      	movs	r6, r3
   20a32:	0000      	movs	r0, r0
   20a34:	003a      	movs	r2, r7
   20a36:	0000      	movs	r0, r0
   20a38:	0022      	movs	r2, r4
   20a3a:	0000      	movs	r0, r0
   20a3c:	003e      	movs	r6, r7
   20a3e:	0000      	movs	r0, r0
   20a40:	001a      	movs	r2, r3
   20a42:	0000      	movs	r0, r0
   20a44:	0032      	movs	r2, r6
   20a46:	0000      	movs	r0, r0
   20a48:	001e      	movs	r6, r3
   20a4a:	0000      	movs	r0, r0
   20a4c:	0036      	movs	r6, r6
   20a4e:	0000      	movs	r0, r0
   20a50:	001a      	movs	r2, r3
   20a52:	0000      	movs	r0, r0
   20a54:	0034      	movs	r4, r6
   20a56:	0000      	movs	r0, r0
   20a58:	001e      	movs	r6, r3
   20a5a:	0000      	movs	r0, r0
   20a5c:	0038      	movs	r0, r7
   20a5e:	0000      	movs	r0, r0
   20a60:	0022      	movs	r2, r4
   20a62:	0000      	movs	r0, r0
   20a64:	003c      	movs	r4, r7
   20a66:	0000      	movs	r0, r0
   20a68:	001e      	movs	r6, r3
   20a6a:	0000      	movs	r0, r0
   20a6c:	003a      	movs	r2, r7
   20a6e:	0000      	movs	r0, r0
   20a70:	0022      	movs	r2, r4
   20a72:	0000      	movs	r0, r0
   20a74:	003e      	movs	r6, r7
   20a76:	0000      	movs	r0, r0
   20a78:	001e      	movs	r6, r3
   20a7a:	0000      	movs	r0, r0
   20a7c:	0036      	movs	r6, r6
   20a7e:	0000      	movs	r0, r0
   20a80:	0018      	movs	r0, r3
   20a82:	0000      	movs	r0, r0
   20a84:	0032      	movs	r2, r6
   20a86:	0000      	movs	r0, r0
   20a88:	001c      	movs	r4, r3
   20a8a:	0000      	movs	r0, r0
   20a8c:	0036      	movs	r6, r6
   20a8e:	0000      	movs	r0, r0
   20a90:	0020      	movs	r0, r4
   20a92:	0000      	movs	r0, r0
   20a94:	003a      	movs	r2, r7
   20a96:	0000      	movs	r0, r0
   20a98:	001a      	movs	r2, r3
   20a9a:	0000      	movs	r0, r0
   20a9c:	0036      	movs	r6, r6
   20a9e:	0000      	movs	r0, r0
   20aa0:	001e      	movs	r6, r3
   20aa2:	0000      	movs	r0, r0
   20aa4:	003a      	movs	r2, r7
	...

00020aa8 <maskMakers>:
   20aa8:	f091 0001 	eors.w	r0, r1, #1
   20aac:	f0d1 0001 			; <UNDEFINED> instruction: 0xf0d10001
   20ab0:	f131 0001 			; <UNDEFINED> instruction: 0xf1310001
   20ab4:	f195 0001 			; <UNDEFINED> instruction: 0xf1950001

00020ab8 <formatInfo>:
   20ab8:	4445      	add	r5, r8
   20aba:	0000      	movs	r0, r0
   20abc:	55ae      	strb	r6, [r5, r6]
   20abe:	0000      	movs	r0, r0
   20ac0:	6793      	str	r3, [r2, #120]	; 0x78
   20ac2:	0000      	movs	r0, r0
   20ac4:	7678      	strb	r0, [r7, #25]
   20ac6:	0000      	movs	r0, r0
   20ac8:	06de      	lsls	r6, r3, #27
   20aca:	0000      	movs	r0, r0
   20acc:	1735      	asrs	r5, r6, #28
   20ace:	0000      	movs	r0, r0
   20ad0:	2508      	movs	r5, #8
   20ad2:	0000      	movs	r0, r0
   20ad4:	34e3      	adds	r4, #227	; 0xe3
   20ad6:	0000      	movs	r0, r0
   20ad8:	4172      	adcs	r2, r6
   20ada:	0000      	movs	r0, r0
   20adc:	5099      	str	r1, [r3, r2]
   20ade:	0000      	movs	r0, r0
   20ae0:	62a4      	str	r4, [r4, #40]	; 0x28
   20ae2:	0000      	movs	r0, r0
   20ae4:	734f      	strb	r7, [r1, #13]
   20ae6:	0000      	movs	r0, r0
   20ae8:	03e9      	lsls	r1, r5, #15
   20aea:	0000      	movs	r0, r0
   20aec:	1202      	asrs	r2, r0, #8
   20aee:	0000      	movs	r0, r0
   20af0:	203f      	movs	r0, #63	; 0x3f
   20af2:	0000      	movs	r0, r0
   20af4:	31d4      	adds	r1, #212	; 0xd4
   20af6:	0000      	movs	r0, r0
   20af8:	4e2b      	ldr	r6, [pc, #172]	; (20ba8 <lengthTableBits>)
   20afa:	0000      	movs	r0, r0
   20afc:	5fc0      	ldrsh	r0, [r0, r7]
   20afe:	0000      	movs	r0, r0
   20b00:	6dfd      	ldr	r5, [r7, #92]	; 0x5c
   20b02:	0000      	movs	r0, r0
   20b04:	7c16      	ldrb	r6, [r2, #16]
   20b06:	0000      	movs	r0, r0
   20b08:	0cb0      	lsrs	r0, r6, #18
   20b0a:	0000      	movs	r0, r0
   20b0c:	1d5b      	adds	r3, r3, #5
   20b0e:	0000      	movs	r0, r0
   20b10:	2f66      	cmp	r7, #102	; 0x66
   20b12:	0000      	movs	r0, r0
   20b14:	3e8d      	subs	r6, #141	; 0x8d
   20b16:	0000      	movs	r0, r0
   20b18:	4b1c      	ldr	r3, [pc, #112]	; (20b8c <finder.5925+0x18>)
   20b1a:	0000      	movs	r0, r0
   20b1c:	5af7      	ldrh	r7, [r6, r3]
   20b1e:	0000      	movs	r0, r0
   20b20:	68ca      	ldr	r2, [r1, #12]
   20b22:	0000      	movs	r0, r0
   20b24:	7921      	ldrb	r1, [r4, #4]
   20b26:	0000      	movs	r0, r0
   20b28:	0987      	lsrs	r7, r0, #6
   20b2a:	0000      	movs	r0, r0
   20b2c:	186c      	adds	r4, r5, r1
   20b2e:	0000      	movs	r0, r0
   20b30:	2a51      	cmp	r2, #81	; 0x51
   20b32:	0000      	movs	r0, r0
   20b34:	3bba      	subs	r3, #186	; 0xba
	...

00020b38 <typeTable>:
   20b38:	ffff ffff 			; <UNDEFINED> instruction: 0xffffffff
   20b3c:	ffff ffff 			; <UNDEFINED> instruction: 0xffffffff
   20b40:	ffff ffff 			; <UNDEFINED> instruction: 0xffffffff
   20b44:	0000      	movs	r0, r0
   20b46:	0000      	movs	r0, r0
   20b48:	ffff ffff 			; <UNDEFINED> instruction: 0xffffffff
   20b4c:	ffff ffff 			; <UNDEFINED> instruction: 0xffffffff
   20b50:	0001      	movs	r1, r0
   20b52:	0000      	movs	r0, r0
   20b54:	0002      	movs	r2, r0
   20b56:	0000      	movs	r0, r0
   20b58:	ffff ffff 			; <UNDEFINED> instruction: 0xffffffff
   20b5c:	0003      	movs	r3, r0
   20b5e:	0000      	movs	r0, r0
   20b60:	0004      	movs	r4, r0
   20b62:	0000      	movs	r0, r0
   20b64:	ffff ffff 			; <UNDEFINED> instruction: 0xffffffff
   20b68:	0005      	movs	r5, r0
   20b6a:	0000      	movs	r0, r0
   20b6c:	0006      	movs	r6, r0
   20b6e:	0000      	movs	r0, r0
   20b70:	0007      	movs	r7, r0
	...

00020b74 <finder.5925>:
   20b74:	c1c1      	stmia	r1!, {r0, r6, r7}
   20b76:	c1c1      	stmia	r1!, {r0, r6, r7}
   20b78:	c1c1      	stmia	r1!, {r0, r6, r7}
   20b7a:	c1c1      	stmia	r1!, {r0, r6, r7}
   20b7c:	c0c0      	stmia	r0!, {r6, r7}
   20b7e:	c0c0      	stmia	r0!, {r6, r7}
   20b80:	c1c0      	stmia	r1!, {r6, r7}
   20b82:	c0c1      	stmia	r0!, {r0, r6, r7}
   20b84:	c1c1      	stmia	r1!, {r0, r6, r7}
   20b86:	c0c1      	stmia	r0!, {r0, r6, r7}
   20b88:	c1c1      	stmia	r1!, {r0, r6, r7}
   20b8a:	c1c0      	stmia	r1!, {r6, r7}
   20b8c:	c1c1      	stmia	r1!, {r0, r6, r7}
   20b8e:	c1c0      	stmia	r1!, {r6, r7}
   20b90:	c0c1      	stmia	r0!, {r0, r6, r7}
   20b92:	c1c1      	stmia	r1!, {r0, r6, r7}
   20b94:	c0c1      	stmia	r0!, {r0, r6, r7}
   20b96:	c1c1      	stmia	r1!, {r0, r6, r7}
   20b98:	c0c0      	stmia	r0!, {r6, r7}
   20b9a:	c0c0      	stmia	r0!, {r6, r7}
   20b9c:	c1c0      	stmia	r1!, {r6, r7}
   20b9e:	c1c1      	stmia	r1!, {r0, r6, r7}
   20ba0:	c1c1      	stmia	r1!, {r0, r6, r7}
   20ba2:	c1c1      	stmia	r1!, {r0, r6, r7}
   20ba4:	00c1      	lsls	r1, r0, #3
	...

00020ba8 <lengthTableBits>:
   20ba8:	0003      	movs	r3, r0
   20baa:	0000      	movs	r0, r0
   20bac:	0004      	movs	r4, r0
   20bae:	0000      	movs	r0, r0
   20bb0:	0005      	movs	r5, r0
   20bb2:	0000      	movs	r0, r0
   20bb4:	0006      	movs	r6, r0
   20bb6:	0000      	movs	r0, r0
   20bb8:	0000      	movs	r0, r0
   20bba:	0000      	movs	r0, r0
   20bbc:	0003      	movs	r3, r0
   20bbe:	0000      	movs	r0, r0
   20bc0:	0004      	movs	r4, r0
   20bc2:	0000      	movs	r0, r0
   20bc4:	0005      	movs	r5, r0
	...
   20bce:	0000      	movs	r0, r0
   20bd0:	0004      	movs	r4, r0
   20bd2:	0000      	movs	r0, r0
   20bd4:	0005      	movs	r5, r0
	...
   20bde:	0000      	movs	r0, r0
   20be0:	0003      	movs	r3, r0
   20be2:	0000      	movs	r0, r0
   20be4:	0004      	movs	r4, r0
	...

00020be8 <mqrspecCapacity>:
	...
   20bfc:	000b      	movs	r3, r1
   20bfe:	0000      	movs	r0, r0
   20c00:	0002      	movs	r2, r0
	...
   20c0e:	0000      	movs	r0, r0
   20c10:	000d      	movs	r5, r1
   20c12:	0000      	movs	r0, r0
   20c14:	0005      	movs	r5, r0
   20c16:	0000      	movs	r0, r0
   20c18:	0006      	movs	r6, r0
	...
   20c22:	0000      	movs	r0, r0
   20c24:	000f      	movs	r7, r1
   20c26:	0000      	movs	r0, r0
   20c28:	0006      	movs	r6, r0
   20c2a:	0000      	movs	r0, r0
   20c2c:	0008      	movs	r0, r1
	...
   20c36:	0000      	movs	r0, r0
   20c38:	0011      	movs	r1, r2
   20c3a:	0000      	movs	r0, r0
   20c3c:	0008      	movs	r0, r1
   20c3e:	0000      	movs	r0, r0
   20c40:	000a      	movs	r2, r1
   20c42:	0000      	movs	r0, r0
   20c44:	000e      	movs	r6, r1
   20c46:	0000      	movs	r0, r0
   20c48:	0000      	movs	r0, r0
   20c4a:	0000      	movs	r0, r0
   20c4c:	0043      	lsls	r3, r0, #1
	...

00020c50 <_global_impure_ptr>:
   20c50:	6724      	str	r4, [r4, #112]	; 0x70
   20c52:	2000      	movs	r0, #0

00020c54 <__EH_FRAME_BEGIN__>:
   20c54:	0000      	movs	r0, r0
	...

Disassembly of section .ARM.exidx:

00020c58 <__etext-0x8>:
   20c58:	a468      	add	r4, pc, #416	; (adr r4, 20dfc <__etext+0x19c>)
   20c5a:	7fff      	ldrb	r7, [r7, #31]
   20c5c:	0001      	movs	r1, r0
	...

Disassembly of section .data:

20002800 <__data_start__>:
20002800:	a414      	add	r4, pc, #80	; (adr r4, 20002854 <ble_config+0x8>)
	...

2000280a <text_scale_char>:
2000280a:	a413      	add	r4, pc, #76	; (adr r4, 20002858 <ble_config+0xc>)
	...

20002814 <text_y_coordinate_char>:
20002814:	a412      	add	r4, pc, #72	; (adr r4, 20002860 <m_sec_params+0x4>)
	...

2000281e <text_char>:
2000281e:	a410      	add	r4, pc, #64	; (adr r4, 20002860 <m_sec_params+0x4>)
	...

20002828 <text_x_coordinate_char>:
20002828:	a411      	add	r4, pc, #68	; (adr r4, 20002870 <font8x8_basic+0xf>)
	...

20002832 <led_service>:
20002832:	a641      	add	r6, pc, #260	; (adr r6, 20002938 <font8x8_basic+0xd7>)
20002834:	05ab      	lsls	r3, r5, #22
20002836:	7cb5      	ldrb	r5, [r6, #18]
20002838:	d44f      	bmi.n	200028da <font8x8_basic+0x79>
2000283a:	3089      	adds	r0, #137	; 0x89
2000283c:	ff4f 4aa4 	vpmax.u8	d20, d31, d20
20002840:	e528      	b.n	20002294 <__etext+0x1ffe1634>
20002842:	0000      	movs	r0, r0
20002844:	0000      	movs	r0, r0
	...

20002848 <text_scale_value>:
20002848:	0001      	movs	r1, r0
	...

2000284c <ble_config>:
2000284c:	0000      	movs	r0, r0
2000284e:	ffff fd56 			; <UNDEFINED> instruction: 0xfffffd56
20002852:	0001      	movs	r1, r0
20002854:	0320      	lsls	r0, r4, #12
20002856:	0190      	lsls	r0, r2, #6
20002858:	0320      	lsls	r0, r4, #12
	...

2000285c <m_sec_params>:
2000285c:	0731      	lsls	r1, r6, #28
2000285e:	0010      	movs	r0, r2
	...

20002861 <font8x8_basic>:
	...
20002969:	3c18      	subs	r4, #24
2000296b:	183c      	adds	r4, r7, r0
2000296d:	0018      	movs	r0, r3
2000296f:	0018      	movs	r0, r3
20002971:	3636      	adds	r6, #54	; 0x36
20002973:	0000      	movs	r0, r0
20002975:	0000      	movs	r0, r0
20002977:	0000      	movs	r0, r0
20002979:	3636      	adds	r6, #54	; 0x36
2000297b:	367f      	adds	r6, #127	; 0x7f
2000297d:	367f      	adds	r6, #127	; 0x7f
2000297f:	0036      	movs	r6, r6
20002981:	3e0c      	subs	r6, #12
20002983:	1e03      	subs	r3, r0, #0
20002985:	1f30      	subs	r0, r6, #4
20002987:	000c      	movs	r4, r1
20002989:	6300      	str	r0, [r0, #48]	; 0x30
2000298b:	1833      	adds	r3, r6, r0
2000298d:	660c      	str	r4, [r1, #96]	; 0x60
2000298f:	0063      	lsls	r3, r4, #1
20002991:	361c      	adds	r6, #28
20002993:	6e1c      	ldr	r4, [r3, #96]	; 0x60
20002995:	333b      	adds	r3, #59	; 0x3b
20002997:	006e      	lsls	r6, r5, #1
20002999:	0606      	lsls	r6, r0, #24
2000299b:	0003      	movs	r3, r0
2000299d:	0000      	movs	r0, r0
2000299f:	0000      	movs	r0, r0
200029a1:	0c18      	lsrs	r0, r3, #16
200029a3:	0606      	lsls	r6, r0, #24
200029a5:	0c06      	lsrs	r6, r0, #16
200029a7:	0018      	movs	r0, r3
200029a9:	0c06      	lsrs	r6, r0, #16
200029ab:	1818      	adds	r0, r3, r0
200029ad:	0c18      	lsrs	r0, r3, #16
200029af:	0006      	movs	r6, r0
200029b1:	6600      	str	r0, [r0, #96]	; 0x60
200029b3:	ff3c 663c 	vmin.u<illegal width 64>	d6, d12, d28
200029b7:	0000      	movs	r0, r0
200029b9:	0c00      	lsrs	r0, r0, #16
200029bb:	3f0c      	subs	r7, #12
200029bd:	0c0c      	lsrs	r4, r1, #16
200029bf:	0000      	movs	r0, r0
200029c1:	0000      	movs	r0, r0
200029c3:	0000      	movs	r0, r0
200029c5:	0c00      	lsrs	r0, r0, #16
200029c7:	060c      	lsls	r4, r1, #24
200029c9:	0000      	movs	r0, r0
200029cb:	3f00      	subs	r7, #0
	...
200029d5:	0c00      	lsrs	r0, r0, #16
200029d7:	000c      	movs	r4, r1
200029d9:	3060      	adds	r0, #96	; 0x60
200029db:	0c18      	lsrs	r0, r3, #16
200029dd:	0306      	lsls	r6, r0, #12
200029df:	0001      	movs	r1, r0
200029e1:	633e      	str	r6, [r7, #48]	; 0x30
200029e3:	7b73      	ldrb	r3, [r6, #13]
200029e5:	676f      	str	r7, [r5, #116]	; 0x74
200029e7:	003e      	movs	r6, r7
200029e9:	0e0c      	lsrs	r4, r1, #24
200029eb:	0c0c      	lsrs	r4, r1, #16
200029ed:	0c0c      	lsrs	r4, r1, #16
200029ef:	003f      	movs	r7, r7
200029f1:	331e      	adds	r3, #30
200029f3:	1c30      	adds	r0, r6, #0
200029f5:	3306      	adds	r3, #6
200029f7:	003f      	movs	r7, r7
200029f9:	331e      	adds	r3, #30
200029fb:	1c30      	adds	r0, r6, #0
200029fd:	3330      	adds	r3, #48	; 0x30
200029ff:	001e      	movs	r6, r3
20002a01:	3c38      	subs	r4, #56	; 0x38
20002a03:	3336      	adds	r3, #54	; 0x36
20002a05:	307f      	adds	r0, #127	; 0x7f
20002a07:	0078      	lsls	r0, r7, #1
20002a09:	033f      	lsls	r7, r7, #12
20002a0b:	301f      	adds	r0, #31
20002a0d:	3330      	adds	r3, #48	; 0x30
20002a0f:	001e      	movs	r6, r3
20002a11:	061c      	lsls	r4, r3, #24
20002a13:	1f03      	subs	r3, r0, #4
20002a15:	3333      	adds	r3, #51	; 0x33
20002a17:	001e      	movs	r6, r3
20002a19:	333f      	adds	r3, #63	; 0x3f
20002a1b:	1830      	adds	r0, r6, r0
20002a1d:	0c0c      	lsrs	r4, r1, #16
20002a1f:	000c      	movs	r4, r1
20002a21:	331e      	adds	r3, #30
20002a23:	1e33      	subs	r3, r6, #0
20002a25:	3333      	adds	r3, #51	; 0x33
20002a27:	001e      	movs	r6, r3
20002a29:	331e      	adds	r3, #30
20002a2b:	3e33      	subs	r6, #51	; 0x33
20002a2d:	1830      	adds	r0, r6, r0
20002a2f:	000e      	movs	r6, r1
20002a31:	0c00      	lsrs	r0, r0, #16
20002a33:	000c      	movs	r4, r1
20002a35:	0c00      	lsrs	r0, r0, #16
20002a37:	000c      	movs	r4, r1
20002a39:	0c00      	lsrs	r0, r0, #16
20002a3b:	000c      	movs	r4, r1
20002a3d:	0c00      	lsrs	r0, r0, #16
20002a3f:	060c      	lsls	r4, r1, #24
20002a41:	0c18      	lsrs	r0, r3, #16
20002a43:	0306      	lsls	r6, r0, #12
20002a45:	0c06      	lsrs	r6, r0, #16
20002a47:	0018      	movs	r0, r3
20002a49:	0000      	movs	r0, r0
20002a4b:	003f      	movs	r7, r7
20002a4d:	3f00      	subs	r7, #0
20002a4f:	0000      	movs	r0, r0
20002a51:	0c06      	lsrs	r6, r0, #16
20002a53:	3018      	adds	r0, #24
20002a55:	0c18      	lsrs	r0, r3, #16
20002a57:	0006      	movs	r6, r0
20002a59:	331e      	adds	r3, #30
20002a5b:	1830      	adds	r0, r6, r0
20002a5d:	000c      	movs	r4, r1
20002a5f:	000c      	movs	r4, r1
20002a61:	633e      	str	r6, [r7, #48]	; 0x30
20002a63:	7b7b      	ldrb	r3, [r7, #13]
20002a65:	037b      	lsls	r3, r7, #13
20002a67:	001e      	movs	r6, r3
20002a69:	1e0c      	subs	r4, r1, #0
20002a6b:	3333      	adds	r3, #51	; 0x33
20002a6d:	333f      	adds	r3, #63	; 0x3f
20002a6f:	0033      	movs	r3, r6
20002a71:	663f      	str	r7, [r7, #96]	; 0x60
20002a73:	3e66      	subs	r6, #102	; 0x66
20002a75:	6666      	str	r6, [r4, #100]	; 0x64
20002a77:	003f      	movs	r7, r7
20002a79:	663c      	str	r4, [r7, #96]	; 0x60
20002a7b:	0303      	lsls	r3, r0, #12
20002a7d:	6603      	str	r3, [r0, #96]	; 0x60
20002a7f:	003c      	movs	r4, r7
20002a81:	361f      	adds	r6, #31
20002a83:	6666      	str	r6, [r4, #100]	; 0x64
20002a85:	3666      	adds	r6, #102	; 0x66
20002a87:	001f      	movs	r7, r3
20002a89:	467f      	mov	r7, pc
20002a8b:	1e16      	subs	r6, r2, #0
20002a8d:	4616      	mov	r6, r2
20002a8f:	007f      	lsls	r7, r7, #1
20002a91:	467f      	mov	r7, pc
20002a93:	1e16      	subs	r6, r2, #0
20002a95:	0616      	lsls	r6, r2, #24
20002a97:	000f      	movs	r7, r1
20002a99:	663c      	str	r4, [r7, #96]	; 0x60
20002a9b:	0303      	lsls	r3, r0, #12
20002a9d:	6673      	str	r3, [r6, #100]	; 0x64
20002a9f:	007c      	lsls	r4, r7, #1
20002aa1:	3333      	adds	r3, #51	; 0x33
20002aa3:	3f33      	subs	r7, #51	; 0x33
20002aa5:	3333      	adds	r3, #51	; 0x33
20002aa7:	0033      	movs	r3, r6
20002aa9:	0c1e      	lsrs	r6, r3, #16
20002aab:	0c0c      	lsrs	r4, r1, #16
20002aad:	0c0c      	lsrs	r4, r1, #16
20002aaf:	001e      	movs	r6, r3
20002ab1:	3078      	adds	r0, #120	; 0x78
20002ab3:	3030      	adds	r0, #48	; 0x30
20002ab5:	3333      	adds	r3, #51	; 0x33
20002ab7:	001e      	movs	r6, r3
20002ab9:	6667      	str	r7, [r4, #100]	; 0x64
20002abb:	1e36      	subs	r6, r6, #0
20002abd:	6636      	str	r6, [r6, #96]	; 0x60
20002abf:	0067      	lsls	r7, r4, #1
20002ac1:	060f      	lsls	r7, r1, #24
20002ac3:	0606      	lsls	r6, r0, #24
20002ac5:	6646      	str	r6, [r0, #100]	; 0x64
20002ac7:	007f      	lsls	r7, r7, #1
20002ac9:	7763      	strb	r3, [r4, #29]
20002acb:	7f7f      	ldrb	r7, [r7, #29]
20002acd:	636b      	str	r3, [r5, #52]	; 0x34
20002acf:	0063      	lsls	r3, r4, #1
20002ad1:	6763      	str	r3, [r4, #116]	; 0x74
20002ad3:	7b6f      	ldrb	r7, [r5, #13]
20002ad5:	6373      	str	r3, [r6, #52]	; 0x34
20002ad7:	0063      	lsls	r3, r4, #1
20002ad9:	361c      	adds	r6, #28
20002adb:	6363      	str	r3, [r4, #52]	; 0x34
20002add:	3663      	adds	r6, #99	; 0x63
20002adf:	001c      	movs	r4, r3
20002ae1:	663f      	str	r7, [r7, #96]	; 0x60
20002ae3:	3e66      	subs	r6, #102	; 0x66
20002ae5:	0606      	lsls	r6, r0, #24
20002ae7:	000f      	movs	r7, r1
20002ae9:	331e      	adds	r3, #30
20002aeb:	3333      	adds	r3, #51	; 0x33
20002aed:	1e3b      	subs	r3, r7, #0
20002aef:	0038      	movs	r0, r7
20002af1:	663f      	str	r7, [r7, #96]	; 0x60
20002af3:	3e66      	subs	r6, #102	; 0x66
20002af5:	6636      	str	r6, [r6, #96]	; 0x60
20002af7:	0067      	lsls	r7, r4, #1
20002af9:	331e      	adds	r3, #30
20002afb:	0e07      	lsrs	r7, r0, #24
20002afd:	3338      	adds	r3, #56	; 0x38
20002aff:	001e      	movs	r6, r3
20002b01:	2d3f      	cmp	r5, #63	; 0x3f
20002b03:	0c0c      	lsrs	r4, r1, #16
20002b05:	0c0c      	lsrs	r4, r1, #16
20002b07:	001e      	movs	r6, r3
20002b09:	3333      	adds	r3, #51	; 0x33
20002b0b:	3333      	adds	r3, #51	; 0x33
20002b0d:	3333      	adds	r3, #51	; 0x33
20002b0f:	003f      	movs	r7, r7
20002b11:	3333      	adds	r3, #51	; 0x33
20002b13:	3333      	adds	r3, #51	; 0x33
20002b15:	1e33      	subs	r3, r6, #0
20002b17:	000c      	movs	r4, r1
20002b19:	6363      	str	r3, [r4, #52]	; 0x34
20002b1b:	6b63      	ldr	r3, [r4, #52]	; 0x34
20002b1d:	777f      	strb	r7, [r7, #29]
20002b1f:	0063      	lsls	r3, r4, #1
20002b21:	6363      	str	r3, [r4, #52]	; 0x34
20002b23:	1c36      	adds	r6, r6, #0
20002b25:	361c      	adds	r6, #28
20002b27:	0063      	lsls	r3, r4, #1
20002b29:	3333      	adds	r3, #51	; 0x33
20002b2b:	1e33      	subs	r3, r6, #0
20002b2d:	0c0c      	lsrs	r4, r1, #16
20002b2f:	001e      	movs	r6, r3
20002b31:	637f      	str	r7, [r7, #52]	; 0x34
20002b33:	1831      	adds	r1, r6, r0
20002b35:	664c      	str	r4, [r1, #100]	; 0x64
20002b37:	007f      	lsls	r7, r7, #1
20002b39:	061e      	lsls	r6, r3, #24
20002b3b:	0606      	lsls	r6, r0, #24
20002b3d:	0606      	lsls	r6, r0, #24
20002b3f:	001e      	movs	r6, r3
20002b41:	0603      	lsls	r3, r0, #24
20002b43:	180c      	adds	r4, r1, r0
20002b45:	6030      	str	r0, [r6, #0]
20002b47:	0040      	lsls	r0, r0, #1
20002b49:	181e      	adds	r6, r3, r0
20002b4b:	1818      	adds	r0, r3, r0
20002b4d:	1818      	adds	r0, r3, r0
20002b4f:	001e      	movs	r6, r3
20002b51:	1c08      	adds	r0, r1, #0
20002b53:	6336      	str	r6, [r6, #48]	; 0x30
	...
20002b5d:	0000      	movs	r0, r0
20002b5f:	ff00 0c0c 			; <UNDEFINED> instruction: 0xff000c0c
20002b63:	0018      	movs	r0, r3
20002b65:	0000      	movs	r0, r0
20002b67:	0000      	movs	r0, r0
20002b69:	0000      	movs	r0, r0
20002b6b:	301e      	adds	r0, #30
20002b6d:	333e      	adds	r3, #62	; 0x3e
20002b6f:	006e      	lsls	r6, r5, #1
20002b71:	0607      	lsls	r7, r0, #24
20002b73:	3e06      	subs	r6, #6
20002b75:	6666      	str	r6, [r4, #100]	; 0x64
20002b77:	003b      	movs	r3, r7
20002b79:	0000      	movs	r0, r0
20002b7b:	331e      	adds	r3, #30
20002b7d:	3303      	adds	r3, #3
20002b7f:	001e      	movs	r6, r3
20002b81:	3038      	adds	r0, #56	; 0x38
20002b83:	3e30      	subs	r6, #48	; 0x30
20002b85:	3333      	adds	r3, #51	; 0x33
20002b87:	006e      	lsls	r6, r5, #1
20002b89:	0000      	movs	r0, r0
20002b8b:	331e      	adds	r3, #30
20002b8d:	033f      	lsls	r7, r7, #12
20002b8f:	001e      	movs	r6, r3
20002b91:	361c      	adds	r6, #28
20002b93:	0f06      	lsrs	r6, r0, #28
20002b95:	0606      	lsls	r6, r0, #24
20002b97:	000f      	movs	r7, r1
20002b99:	0000      	movs	r0, r0
20002b9b:	336e      	adds	r3, #110	; 0x6e
20002b9d:	3e33      	subs	r6, #51	; 0x33
20002b9f:	1f30      	subs	r0, r6, #4
20002ba1:	0607      	lsls	r7, r0, #24
20002ba3:	6e36      	ldr	r6, [r6, #96]	; 0x60
20002ba5:	6666      	str	r6, [r4, #100]	; 0x64
20002ba7:	0067      	lsls	r7, r4, #1
20002ba9:	000c      	movs	r4, r1
20002bab:	0c0e      	lsrs	r6, r1, #16
20002bad:	0c0c      	lsrs	r4, r1, #16
20002baf:	001e      	movs	r6, r3
20002bb1:	0030      	movs	r0, r6
20002bb3:	3030      	adds	r0, #48	; 0x30
20002bb5:	3330      	adds	r3, #48	; 0x30
20002bb7:	1e33      	subs	r3, r6, #0
20002bb9:	0607      	lsls	r7, r0, #24
20002bbb:	3666      	adds	r6, #102	; 0x66
20002bbd:	361e      	adds	r6, #30
20002bbf:	0067      	lsls	r7, r4, #1
20002bc1:	0c0e      	lsrs	r6, r1, #16
20002bc3:	0c0c      	lsrs	r4, r1, #16
20002bc5:	0c0c      	lsrs	r4, r1, #16
20002bc7:	001e      	movs	r6, r3
20002bc9:	0000      	movs	r0, r0
20002bcb:	7f33      	ldrb	r3, [r6, #28]
20002bcd:	6b7f      	ldr	r7, [r7, #52]	; 0x34
20002bcf:	0063      	lsls	r3, r4, #1
20002bd1:	0000      	movs	r0, r0
20002bd3:	331f      	adds	r3, #31
20002bd5:	3333      	adds	r3, #51	; 0x33
20002bd7:	0033      	movs	r3, r6
20002bd9:	0000      	movs	r0, r0
20002bdb:	331e      	adds	r3, #30
20002bdd:	3333      	adds	r3, #51	; 0x33
20002bdf:	001e      	movs	r6, r3
20002be1:	0000      	movs	r0, r0
20002be3:	663b      	str	r3, [r7, #96]	; 0x60
20002be5:	3e66      	subs	r6, #102	; 0x66
20002be7:	0f06      	lsrs	r6, r0, #28
20002be9:	0000      	movs	r0, r0
20002beb:	336e      	adds	r3, #110	; 0x6e
20002bed:	3e33      	subs	r6, #51	; 0x33
20002bef:	7830      	ldrb	r0, [r6, #0]
20002bf1:	0000      	movs	r0, r0
20002bf3:	6e3b      	ldr	r3, [r7, #96]	; 0x60
20002bf5:	0666      	lsls	r6, r4, #25
20002bf7:	000f      	movs	r7, r1
20002bf9:	0000      	movs	r0, r0
20002bfb:	033e      	lsls	r6, r7, #12
20002bfd:	301e      	adds	r0, #30
20002bff:	001f      	movs	r7, r3
20002c01:	0c08      	lsrs	r0, r1, #16
20002c03:	0c3e      	lsrs	r6, r7, #16
20002c05:	2c0c      	cmp	r4, #12
20002c07:	0018      	movs	r0, r3
20002c09:	0000      	movs	r0, r0
20002c0b:	3333      	adds	r3, #51	; 0x33
20002c0d:	3333      	adds	r3, #51	; 0x33
20002c0f:	006e      	lsls	r6, r5, #1
20002c11:	0000      	movs	r0, r0
20002c13:	3333      	adds	r3, #51	; 0x33
20002c15:	1e33      	subs	r3, r6, #0
20002c17:	000c      	movs	r4, r1
20002c19:	0000      	movs	r0, r0
20002c1b:	6b63      	ldr	r3, [r4, #52]	; 0x34
20002c1d:	7f7f      	ldrb	r7, [r7, #29]
20002c1f:	0036      	movs	r6, r6
20002c21:	0000      	movs	r0, r0
20002c23:	3663      	adds	r6, #99	; 0x63
20002c25:	361c      	adds	r6, #28
20002c27:	0063      	lsls	r3, r4, #1
20002c29:	0000      	movs	r0, r0
20002c2b:	3333      	adds	r3, #51	; 0x33
20002c2d:	3e33      	subs	r6, #51	; 0x33
20002c2f:	1f30      	subs	r0, r6, #4
20002c31:	0000      	movs	r0, r0
20002c33:	193f      	adds	r7, r7, r4
20002c35:	260c      	movs	r6, #12
20002c37:	003f      	movs	r7, r7
20002c39:	0c38      	lsrs	r0, r7, #16
20002c3b:	070c      	lsls	r4, r1, #28
20002c3d:	0c0c      	lsrs	r4, r1, #16
20002c3f:	0038      	movs	r0, r7
20002c41:	1818      	adds	r0, r3, r0
20002c43:	0018      	movs	r0, r3
20002c45:	1818      	adds	r0, r3, r0
20002c47:	0018      	movs	r0, r3
20002c49:	0c07      	lsrs	r7, r0, #16
20002c4b:	380c      	subs	r0, #12
20002c4d:	0c0c      	lsrs	r4, r1, #16
20002c4f:	0007      	movs	r7, r0
20002c51:	3b6e      	subs	r3, #110	; 0x6e
	...

20002c61 <screen>:
20002c61:	fdff ffff 	ldc2l	15, cr15, [pc, #1020]!	; 20003060 <screen+0x3ff>
20002c65:	ffff ffff 			; <UNDEFINED> instruction: 0xffffffff
20002c69:	7ffb      	ldrb	r3, [r7, #31]
20002c6b:	ffff ff7f 	vcvt.u32.f32	<illegal reg q15.5>, <illegal reg q15.5>, #1
20002c6f:	fdff 0000 	ldc2l	0, cr0, [pc]	; 20002c70 <screen+0xf>
20002c73:	7f09      	ldrb	r1, [r1, #28]
20002c75:	7fff      	ldrb	r7, [r7, #31]
20002c77:	6fff      	ldr	r7, [r7, #124]	; 0x7c
20002c79:	7f7f      	ldrb	r7, [r7, #29]
20002c7b:	bff7      	itett	<und>
20002c7d:	ffff ffff 			; <UNDEFINED> instruction: 0xffffffff
20002c81:	ffff ffff 			; <UNDEFINED> instruction: 0xffffffff
20002c85:	ffff bfff 			; <UNDEFINED> instruction: 0xffffbfff
20002c89:	c0ff      	stmia<und>	r0!, {r0, r1, r2, r3, r4, r5, r6, r7}
	...
20002c93:	b7ff      			; <UNDEFINED> instruction: 0xb7ff
20002c95:	5baf      	ldrh	r7, [r5, r6]
20002c97:	b5fa      	push	{r1, r3, r4, r5, r6, r7, lr}
20002c99:	aa6a      	add	r2, sp, #424	; 0x1a8
20002c9b:	b6ad      			; <UNDEFINED> instruction: 0xb6ad
20002c9d:	fbf7 76ab 			; <UNDEFINED> instruction: 0xfbf776ab
20002ca1:	beff      	bkpt	0x00ff
20002ca3:	4aaa      	ldr	r2, [pc, #680]	; (20002f4c <screen+0x2eb>)
20002ca5:	37a4      	adds	r7, #164	; 0xa4
20002ca7:	d5f5      	bpl.n	20002c95 <screen+0x34>
20002ca9:	b575      	push	{r0, r2, r4, r5, r6, lr}
20002cab:	d5d5      	bpl.n	20002c59 <font8x8_basic+0x3f8>
20002cad:	6a5d      	ldr	r5, [r3, #36]	; 0x24
20002caf:	ffff b6fb 	vqshlu.s64	<illegal reg q13.5>, <illegal reg q13.5>, #63	; 0x3f
20002cb3:	6ddb      	ldr	r3, [r3, #92]	; 0x5c
20002cb5:	b6b6      			; <UNDEFINED> instruction: 0xb6b6
20002cb7:	efb6 f5bd 	vshl.s64	d15, d29, #54	; 0x36
20002cbb:	806f      	strh	r7, [r5, #2]
	...
20002cc5:	fdfd ffff 	ldc2l	15, cr15, [sp, #1020]!	; 0x3fc
20002cc9:	ff6f ffff 	vminnm.f32	<illegal reg q15.5>, <illegal reg q15.5>, <illegal reg q15.5>
20002ccd:	ffee be7f 	vcvt.f32.u32	<illegal reg q13.5>, <illegal reg q15.5>, #18
20002cd1:	dfdf      	svc	223	; 0xdf
20002cd3:	fdbb 0000 	ldc2	0, cr0, [fp]
20002cd7:	fd12 b6be 	ldc2	6, cr11, [r2, #-760]	; 0xfffffd08
20002cdb:	fbdf be6e 			; <UNDEFINED> instruction: 0xfbdfbe6e
20002cdf:	dbef      	blt.n	20002cc1 <screen+0x60>
20002ce1:	ff7f ff6f 	vpmin.f<illegal width 64>	<illegal reg q15.5>, <illegal reg q7.5>, <illegal reg q15.5>
20002ce5:	fefe ffff 	mrc2	15, 7, pc, cr14, cr15, {7}
20002ce9:	baef      	revsh	r7, r5
20002ceb:	6feb      	ldr	r3, [r5, #124]	; 0x7c
20002ced:	80fd      	strh	r5, [r7, #6]
	...
20002cf7:	b7ff      			; <UNDEFINED> instruction: 0xb7ff
20002cf9:	af56      	add	r7, sp, #344	; 0x158
20002cfb:	d6fa      	bvs.n	20002cf3 <screen+0x92>
20002cfd:	b6b6      			; <UNDEFINED> instruction: 0xb6b6
20002cff:	5bb5      	ldrh	r5, [r6, r6]
20002d01:	efed 7beb 	vqdmull.s32	<illegal reg q11.5>, d29, d11[1]
20002d05:	ddff      	ble.n	20002d07 <screen+0xa6>
20002d07:	952a      	str	r5, [sp, #168]	; 0xa8
20002d09:	3749      	adds	r7, #73	; 0x49
20002d0b:	dbeb      	blt.n	20002ce5 <screen+0x84>
20002d0d:	5db7      	ldrb	r7, [r6, r6]
20002d0f:	d5b5      	bpl.n	20002c7d <screen+0x1c>
20002d11:	76f5      	strb	r5, [r6, #27]
20002d13:	fdbf d5fe 	ldc2	5, cr13, [pc, #1016]!	; 2000310c <screen+0x4ab>
20002d17:	b7ab      			; <UNDEFINED> instruction: 0xb7ab
20002d19:	aad5      	add	r2, sp, #852	; 0x354
20002d1b:	efbd bbbd 			; <UNDEFINED> instruction: 0xefbdbbbd
20002d1f:	c0b7      	stmia	r0!, {r0, r1, r2, r4, r5, r7}
	...
20002d29:	fefb fbff 	mrc2	11, 7, pc, cr11, cr15, {7}
20002d2d:	ffdf ffef 	vqrdmlsh.s16	<illegal reg q15.5>, <illegal reg q15.5>, d7[3]
20002d31:	beff      	bkpt	0x00ff
20002d33:	ffbf fe77 	vcvt.f32.u32	<illegal reg q7.5>, <illegal reg q11.5>, #1
20002d37:	7def      	ldrb	r7, [r5, #23]
20002d39:	2000      	movs	r0, #0
20002d3b:	5e12      	ldrsh	r2, [r2, r0]
20002d3d:	7dfd      	ldrb	r5, [r7, #23]
20002d3f:	f6dd fbde 	bl	1fee04ff <__etext+0x1febf89f>
20002d43:	df5f      	svc	95	; 0x5f
20002d45:	ffdf ffff 			; <UNDEFINED> instruction: 0xffdfffff
20002d49:	fdff ffff 	ldc2l	15, cr15, [pc, #1020]!	; 20003148 <screen+0x4e7>
20002d4d:	7df7      	ldrb	r7, [r6, #23]
20002d4f:	6e6b      	ldr	r3, [r5, #100]	; 0x64
20002d51:	c0ff      	stmia	r0!, {r0, r1, r2, r3, r4, r5, r6, r7}
	...
20002d5b:	7bff      	ldrb	r7, [r7, #15]
20002d5d:	bed7      	bkpt	0x00d7
20002d5f:	b5ea      	push	{r1, r3, r5, r6, r7, lr}
20002d61:	d5bd      	bpl.n	20002cdf <screen+0x7e>
20002d63:	5bd5      	ldrh	r5, [r2, r7]
20002d65:	fdfa b7da 	ldc2l	7, cr11, [sl, #872]!	; 0x368
20002d69:	edbf 1452 	cfldrs	mvf1, [pc, #328]!	; 20002eb4 <screen+0x253>
20002d6d:	3f89      	subs	r7, #137	; 0x89
20002d6f:	abaf      	add	r3, sp, #700	; 0x2bc
20002d71:	7f6b      	ldrb	r3, [r5, #29]
20002d73:	576b      	ldrsb	r3, [r5, r5]
20002d75:	fafe f7ef 			; <UNDEFINED> instruction: 0xfafef7ef
20002d79:	dded      	ble.n	20002d57 <screen+0xf6>
20002d7b:	af76      	add	r7, sp, #472	; 0x1d8
20002d7d:	6d6d      	ldr	r5, [r5, #84]	; 0x54
20002d7f:	afbd      	add	r7, sp, #756	; 0x2f4
20002d81:	dbfe      	blt.n	20002d81 <screen+0x120>
20002d83:	c0dd      	stmia	r0!, {r0, r2, r3, r4, r6, r7}
	...
20002d8d:	eff7 f77f 	vqshl.s32	<illegal reg q15.5>, <illegal reg q15.5>, #23
20002d91:	ffbf 7ff7 			; <UNDEFINED> instruction: 0xffbf7ff7
20002d95:	ef7f ffbf 	vrsqrts.f<illegal width 64>	d31, d31, d31
20002d99:	fdf7 fdfd 	ldc2l	13, cr15, [r7, #1012]!	; 0x3f4
20002d9d:	8000      	strh	r0, [r0, #0]
20002d9f:	b544      	push	{r2, r6, lr}
20002da1:	76f5      	strb	r5, [r6, #27]
20002da3:	addd      	add	r5, sp, #884	; 0x374
20002da5:	ddf6      	ble.n	20002d95 <screen+0x134>
20002da7:	df57      	svc	87	; 0x57
20002da9:	ffbb ffff 			; <UNDEFINED> instruction: 0xffbbffff
20002dad:	fbdf fbbf 			; <UNDEFINED> instruction: 0xfbdffbbf
20002db1:	faef beab 			; <UNDEFINED> instruction: 0xfaefbeab
20002db5:	e0f7      	b.n	20002fa7 <screen+0x346>
	...
20002dbf:	fffd bed6 			; <UNDEFINED> instruction: 0xfffdbed6
20002dc3:	deee      	udf	#238	; 0xee
20002dc5:	edde b6d4 	ldcl	6, cr11, [lr, #848]	; 0x350
20002dc9:	77dd      	strb	r5, [r3, #31]
20002dcb:	af7a      	add	r7, sp, #488	; 0x1e8
20002dcd:	ddb7      	ble.n	20002d3f <screen+0xde>
20002dcf:	1224      	asrs	r4, r4, #8
20002dd1:	3f21      	subs	r7, #33	; 0x21
20002dd3:	bb5f      	cbnz	r7, 20002e2d <screen+0x1cc>
20002dd5:	7777      	strb	r7, [r6, #29]
20002dd7:	b6bb      			; <UNDEFINED> instruction: 0xb6bb
20002dd9:	f7fa fff7 	bl	1fffddcb <__etext+0x1ffdd16b>
20002ddd:	edbe 6efb 	ldc	14, cr6, [lr, #1004]!	; 0x3ec
20002de1:	aef6      	add	r6, sp, #984	; 0x3d8
20002de3:	afba      	add	r7, sp, #744	; 0x2e8
20002de5:	ebf6 60bf 			; <UNDEFINED> instruction: 0xebf660bf
	...
20002df1:	b5f7      	push	{r0, r1, r2, r4, r5, r6, r7, lr}
20002df3:	ef7f f7fb 	vaba.s<illegal width 64>	<illegal reg q15.5>, <illegal reg q15.5>, <illegal reg q13.5>
20002df7:	bfbb      	ittet	lt
20002df9:	af7b      	addlt	r7, sp, #492	; 0x1ec
20002dfb:	bff7      	itett	<und>	; unpredictable <IT:lt>
20002dfd:	fede faff 	mrc2<und>	10, 6, pc, cr14, cr15, {7}
20002e01:	4000      	andal	r0, r0
20002e03:	9f88      	ldr<und>	r7, [sp, #544]	; 0x220
20002e05:	6ef5      	ldr<und>	r5, [r6, #108]	; 0x6c
20002e07:	dada      	bge.n	20002dbf <screen+0x15e>
20002e09:	dbee      	blt.n	20002de9 <screen+0x188>
20002e0b:	5d57      	ldrb	r7, [r2, r5]
20002e0d:	ff6d fffb 	vminnm.f32	<illegal reg q15.5>, <illegal reg q14.5>, <illegal reg q13.5>
20002e11:	bb6f      	cbnz	r7, 20002e6f <screen+0x20e>
20002e13:	ffff faf7 			; <UNDEFINED> instruction: 0xfffffaf7
20002e17:	bdad      	pop	{r0, r2, r3, r5, r7, pc}
20002e19:	e0ed      	b.n	20002ff7 <screen+0x396>
	...
20002e23:	ffff bbd7 			; <UNDEFINED> instruction: 0xffffbbd7
20002e27:	bd5f      	pop	{r0, r1, r2, r3, r4, r6, pc}
20002e29:	f5ff ebde 	blx	1fe025e9 <__etext+0x1fde1989>
20002e2d:	7f6f      	ldrb	r7, [r5, #29]
20002e2f:	57fb      	ldrsb	r3, [r7, r7]
20002e31:	b9dd      	cbnz	r5, 20002e6b <screen+0x20a>
20002e33:	0a49      	lsrs	r1, r1, #9
20002e35:	5525      	strb	r5, [r4, r4]
20002e37:	dbbf      	blt.n	20002db9 <screen+0x158>
20002e39:	b7b7      			; <UNDEFINED> instruction: 0xb7b7
20002e3b:	6dbf      	ldr	r7, [r7, #88]	; 0x58
20002e3d:	f7dd ffdf 	bl	1ffe0dff <__etext+0x1ffc019f>
20002e41:	bfff      	itttt	<und>
20002e43:	effd da56 			; <UNDEFINED> instruction: 0xeffdda56
20002e47:	afde      	add<und>	r7, sp, #888	; 0x378
20002e49:	6bfb      	ldr<und>	r3, [r7, #60]	; 0x3c
20002e4b:	f07f 0000 	mvns<und>.w	r0, #0
20002e4f:	0000      	movs	r0, r0
20002e51:	0000      	movs	r0, r0
20002e53:	0000      	movs	r0, r0
20002e55:	d7ee      	bvc.n	20002e35 <screen+0x1d4>
20002e57:	ff7b eff6 	vminnm.f<illegal width 64>	q15, <illegal reg q13.5>, q11
20002e5b:	deb6      	udf	#182	; 0xb6
20002e5d:	5beb      	ldrh	r3, [r5, r7]
20002e5f:	aeff      	add	r6, sp, #1020	; 0x3fc
20002e61:	bdff      	pop	{r0, r1, r2, r3, r4, r5, r6, r7, pc}
20002e63:	f4ff 0000 			; <UNDEFINED> instruction: 0xf4ff0000
20002e67:	5f88      	ldrsh	r0, [r1, r6]
20002e69:	edea 6d6d 	stcl	13, cr6, [sl, #436]!	; 0x1b4
20002e6d:	f66d adb6 	bls.w	1fff09dd <__etext+0x1ffcfd7d>
20002e71:	ff75 f5ff 	vqrshl.u64	<illegal reg q15.5>, <illegal reg q15.5>, <illegal reg q10.5>
20002e75:	7db7      	ldrb	r7, [r6, #22]
20002e77:	f7ff fafb 	bl	20002471 <__etext+0x1ffe1811>
20002e7b:	dfae      	svc	174	; 0xae
20002e7d:	b0db      	sub	sp, #364	; 0x16c
	...
20002e87:	fbfb b6d7 			; <UNDEFINED> instruction: 0xfbfbb6d7
20002e8b:	bbbf      	cbnz	r7, 20002efd <screen+0x29c>
20002e8d:	6b7f      	ldr	r7, [r7, #52]	; 0x34
20002e8f:	b55d      	push	{r0, r2, r3, r4, r6, lr}
20002e91:	ff56 d7da 	vaba.u16	<illegal reg q14.5>, q11, q5
20002e95:	b46f      	push	{r0, r1, r2, r3, r5, r6}
20002e97:	5290      	strh	r0, [r2, r2]
20002e99:	2f21      	cmp	r7, #33	; 0x21
20002e9b:	777f      	strb	r7, [r7, #29]
20002e9d:	debb      	udf	#187	; 0xbb
20002e9f:	7ff7      	ldrb	r7, [r6, #31]
20002ea1:	dfdb      	svc	219	; 0xdb
20002ea3:	ffbb df7d 	vcvt.u32.f32	<illegal reg q6.5>, <illegal reg q14.5>, #5
20002ea7:	d7ff      	bvc.n	20002ea9 <screen+0x248>
20002ea9:	be76      	bkpt	0x0076
20002eab:	dfde      	svc	222	; 0xde
20002ead:	b5f7      	push	{r0, r1, r2, r4, r5, r6, r7, lr}
20002eaf:	f87f 0000 	ldr??.w	r0, [pc]	; 20002eb0 <screen+0x24f>
20002eb3:	0000      	movs	r0, r0
20002eb5:	0000      	movs	r0, r0
20002eb7:	0000      	movs	r0, r0
20002eb9:	aeef      	add	r6, sp, #956	; 0x3bc
20002ebb:	ffff ffd6 			; <UNDEFINED> instruction: 0xffffffd6
20002ebf:	ffd5 edff 			; <UNDEFINED> instruction: 0xffd5edff
20002ec3:	cbff      	ldmia	r3, {r0, r1, r2, r3, r4, r5, r6, r7}
20002ec5:	efff f1fe 	vsra.s64	<illegal reg q15.5>, q15, #1
20002ec9:	0002      	movs	r2, r0
20002ecb:	9788      	str	r7, [sp, #544]	; 0x220
20002ecd:	addb      	add	r5, sp, #876	; 0x36c
20002ecf:	75dd      	strb	r5, [r3, #23]
20002ed1:	adad      	add	r5, sp, #692	; 0x2b4
20002ed3:	75ed      	strb	r5, [r5, #23]
20002ed5:	f76d fff7 	bl	1ff70ec7 <__etext+0x1ff50267>
20002ed9:	7fdb      	ldrb	r3, [r3, #31]
20002edb:	ebdf 76f7 	rsbs	r6, pc, r7, ror #31
20002edf:	efba f0d6 	vshr.s64	<illegal reg q7.5>, q3, #6
	...
20002eeb:	f7ff baab 	b.w	20002445 <__etext+0x1ffe17e5>
20002eef:	d6ff      	bvs.n	20002ef1 <screen+0x290>
20002ef1:	bfbf      	itttt	lt
20002ef3:	faff f7d6 			; <UNDEFINED> instruction: 0xfafff7d6
20002ef7:	76bf      	strblt	r7, [r7, #26]
20002ef9:	e8db 8820 			; <UNDEFINED> instruction: 0xe8db8820
20002efd:	4e22      	ldrlt	r6, [pc, #136]	; (20002f88 <screen+0x327>)
20002eff:	fbfe ae6b 			; <UNDEFINED> instruction: 0xfbfeae6b
20002f03:	f6f6 dbbe 	bl	1f6f9683 <__etext+0x1f6d8a23>
20002f07:	ffdb fbff 			; <UNDEFINED> instruction: 0xffdbfbff
20002f0b:	f57f be75 	b.w	1fd82bf9 <__etext+0x1fd61f99>
20002f0f:	dddd      	ble.n	20002ecd <screen+0x26c>
20002f11:	5adf      	ldrh	r7, [r3, r3]
20002f13:	d8ff      	bhi.n	20002f15 <screen+0x2b4>
	...
20002f1d:	5aed      	ldrh	r5, [r5, r3]
20002f1f:	dff7      	svc	247	; 0xf7
20002f21:	fdb6 fef7 	ldc2	14, cr15, [r6, #988]!	; 0x3dc
20002f25:	77eb      	strb	r3, [r5, #31]
20002f27:	bb7f      	cbnz	r7, 20002f89 <screen+0x328>
20002f29:	dbed      	blt.n	20002f07 <screen+0x2a6>
20002f2b:	d1ff      	bne.n	20002f2d <screen+0x2cc>
20002f2d:	0204      	lsls	r4, r0, #8
20002f2f:	af84      	add	r7, sp, #528	; 0x210
20002f31:	aed7      	add	r6, sp, #860	; 0x35c
20002f33:	f7de 5b5b 			; <UNDEFINED> instruction: 0xf7de5b5b
20002f37:	add7      	add	r5, sp, #860	; 0x35c
20002f39:	ff6d bfff 	vminnm.f32	<illegal reg q13.5>, <illegal reg q14.5>, <illegal reg q15.5>
20002f3d:	5ffb      	ldrsh	r3, [r7, r7]
20002f3f:	77df      	strb	r7, [r3, #31]
20002f41:	77fb      	strb	r3, [r7, #31]
20002f43:	ff6a fcb6 	vqrdmlsh.s32	d31, d26, d22
	...
20002f4f:	f7ff fdbd 	bl	20002acd <font8x8_basic+0x26c>
20002f53:	b7ff      			; <UNDEFINED> instruction: 0xb7ff
20002f55:	fbfe ddfe 			; <UNDEFINED> instruction: 0xfbfeddfe
20002f59:	fdb5 fdff 	ldc2	13, cr15, [r5, #1020]!	; 0x3fc
20002f5d:	e0ff      	b.n	2000315f <screen+0x4fe>
20002f5f:	5020      	str	r0, [r4, r0]
20002f61:	5710      	ldrsb	r0, [r2, r4]
20002f63:	fb7d ad75 			; <UNDEFINED> instruction: 0xfb7dad75
20002f67:	eded f77a 	stcl	7, cr15, [sp, #488]!	; 0x1e8
20002f6b:	feb7 fdff 	mrc2	13, 5, pc, cr7, cr15, {7}
20002f6f:	fbef fd7d 			; <UNDEFINED> instruction: 0xfbeffd7d
20002f73:	dd6f      	ble.n	20003055 <screen+0x3f4>
20002f75:	aaff      	add	r2, sp, #1020	; 0x3fc
20002f77:	f8ff 0000 	ldr??.w	r0, [pc]	; 20002f78 <screen+0x317>
20002f7b:	0000      	movs	r0, r0
20002f7d:	0000      	movs	r0, r0
20002f7f:	0000      	movs	r0, r0
20002f81:	5bd7      	ldrh	r7, [r2, r7]
20002f83:	5feb      	ldrsh	r3, [r5, r7]
20002f85:	ef5a efbf 	vrecps.f<illegal width 64>	d30, d26, d31
20002f89:	ebbb d66f 			; <UNDEFINED> instruction: 0xebbbd66f
20002f8d:	6bef      	ldr	r7, [r5, #60]	; 0x3c
20002f8f:	c96e      	ldmia	r1, {r1, r2, r3, r5, r6}
20002f91:	0402      	lsls	r2, r0, #16
20002f93:	2b45      	cmp	r3, #69	; 0x45
20002f95:	5df7      	ldrb	r7, [r6, r7]
20002f97:	76af      	strb	r7, [r5, #26]
20002f99:	b7b6      			; <UNDEFINED> instruction: 0xb7b6
20002f9b:	baad      	hlt	0x002d
20002f9d:	efdb f7ee 	vqdmlsl.s16	<illegal reg q15.5>, d27, d6[3]
20002fa1:	efbf afef 	vext.8	q5, <illegal reg q15.5>, <illegal reg q15.5>, #15
20002fa5:	f7fd f755 	bl	1fc00e53 <__etext+0x1fbe01f3>
20002fa9:	6eab      	ldr	r3, [r5, #104]	; 0x68
	...
20002fb3:	d7ff      	bvc.n	20002fb5 <screen+0x354>
20002fb5:	eb7f bef7 			; <UNDEFINED> instruction: 0xeb7fbef7
20002fb9:	bffb      	ittet	<und>
20002fbb:	7eff      	ldrb<und>	r7, [r7, #27]
20002fbd:	fdfd fd7d 	ldc2l<und>	13, cr15, [sp, #500]!	; 0x1f4
20002fc1:	c0ff      	stmiaal	r0!, {r0, r1, r2, r3, r4, r5, r6, r7}
20002fc3:	1020      	asr<und>	r0, r4, #32
20002fc5:	9710      	str	r7, [sp, #64]	; 0x40
20002fc7:	f7df dbfa 	bl	1f7e27bf <__etext+0x1f7c1b5f>
20002fcb:	dadb      	bge.n	20002f85 <screen+0x324>
20002fcd:	d7d6      	bvc.n	20002f7d <screen+0x31c>
20002fcf:	ff7f ffff 	vminnm.f<illegal width 64>	<illegal reg q15.5>, <illegal reg q15.5>, <illegal reg q15.5>
20002fd3:	7dfd      	ldrb	r5, [r7, #23]
20002fd5:	fb7b 5d6f 			; <UNDEFINED> instruction: 0xfb7b5d6f
20002fd9:	adfe      	add	r5, sp, #1016	; 0x3f8
20002fdb:	fcff 0000 	ldc2l	0, cr0, [pc]	; 20002fdc <screen+0x37b>
20002fdf:	0000      	movs	r0, r0
20002fe1:	0000      	movs	r0, r0
20002fe3:	0000      	movs	r0, r0
20002fe5:	7fd7      	ldrb	r7, [r2, #31]
20002fe7:	feb5 fbde 	mrc2	11, 5, pc, cr5, cr14, {6}
20002feb:	ffff df6d 	vqrdmlsh.s<illegal width 64>	<illegal reg q14.5>, <illegal reg q7.5>, d29[0]
20002fef:	6fb7      	ldr	r7, [r6, #120]	; 0x78
20002ff1:	f67f a9bf 	bls.w	20002373 <__etext+0x1ffe1713>
20002ff5:	8204      	strh	r4, [r0, #16]
20002ff7:	4b42      	ldr	r3, [pc, #264]	; (20003100 <screen+0x49f>)
20002ff9:	bafa      	revsh	r2, r7
20002ffb:	b6af      			; <UNDEFINED> instruction: 0xb6af
20002ffd:	6fbd      	ldr	r5, [r7, #120]	; 0x78
20002fff:	6d7b      	ldr	r3, [r7, #84]	; 0x54
20003001:	ffab ffbf 			; <UNDEFINED> instruction: 0xffabffbf
20003005:	eff7 6fdd 			; <UNDEFINED> instruction: 0xeff76fdd
20003009:	f7db ff55 	bl	1ffdeeb7 <__etext+0x1ffbe257>
2000300d:	de5a      	udf	#90	; 0x5a
	...
20003017:	d6ff      	bvs.n	20003019 <screen+0x3b8>
20003019:	effb 6ff7 			; <UNDEFINED> instruction: 0xeffb6ff7
2000301d:	bbdd      	cbnz	r5, 20003097 <screen+0x436>
2000301f:	75ff      	strb	r7, [r7, #23]
20003021:	fbdd bfbf 			; <UNDEFINED> instruction: 0xfbddbfbf
20003025:	c07b      	stmia	r0!, {r0, r1, r3, r4, r5, r6}
20003027:	1040      	asrs	r0, r0, #1
20003029:	5508      	strb	r0, [r1, r4]
2000302b:	ef6f ddda 	vmls.f32	<illegal reg q14.5>, <illegal reg q15.5>, q5
2000302f:	b5eb      	push	{r0, r1, r3, r5, r6, r7, lr}
20003031:	daae      	bge.n	20002f91 <screen+0x330>
20003033:	fffe ddf6 			; <UNDEFINED> instruction: 0xfffeddf6
20003037:	fddf fdf7 	ldc2l	13, cr15, [pc, #988]	; 20003414 <screen+0x7b3>
2000303b:	bdbe      	pop	{r1, r2, r3, r4, r5, r7, pc}
2000303d:	55ff      	strb	r7, [r7, r7]
2000303f:	feff 0000 	cdp2	0, 15, cr0, cr15, cr0, {0}
20003043:	0000      	movs	r0, r0
20003045:	0000      	movs	r0, r0
20003047:	0000      	movs	r0, r0
20003049:	7fdd      	ldrb	r5, [r3, #31]
2000304b:	f67f ffbd 	bl	1fe82fc9 <__etext+0x1fe62369>
2000304f:	ffff feff 			; <UNDEFINED> instruction: 0xfffffeff
20003053:	6eff      	ldr	r7, [r7, #108]	; 0x6c
20003055:	fddb a9df 	ldc2l	9, cr10, [fp, #892]	; 0x37c
20003059:	0409      	lsls	r1, r1, #16
2000305b:	2921      	cmp	r1, #33	; 0x21
2000305d:	7afb      	ldrb	r3, [r7, #11]
2000305f:	b7ed      			; <UNDEFINED> instruction: 0xb7ed
20003061:	de5d      	udf	#93	; 0x5d
20003063:	eff5 ff57 	vcvt.s32.f32	<illegal reg q15.5>, <illegal reg q3.5>, #11
20003067:	ffff 77ff 	vqshl.u64	<illegal reg q11.5>, <illegal reg q15.5>, #63	; 0x3f
2000306b:	af5d      	add	r7, sp, #372	; 0x174
2000306d:	eff7 efaa 			; <UNDEFINED> instruction: 0xeff7efaa
20003071:	7a6b      	ldrb	r3, [r5, #9]
	...
2000307b:	edf7 bbb5 	ldcl	11, cr11, [r7, #724]!	; 0x2d4
2000307f:	beee      	bkpt	0x00ee
20003081:	dbf6      	blt.n	20003071 <screen+0x410>
20003083:	af6d      	add	r7, sp, #436	; 0x1b4
20003085:	fb57 efbf 			; <UNDEFINED> instruction: 0xfb57efbf
20003089:	807f      	strh	r7, [r7, #2]
2000308b:	4800      	ldr	r0, [pc, #0]	; (2000308c <screen+0x42b>)
2000308d:	4584      	cmp	ip, r0
2000308f:	dfaf      	svc	175	; 0xaf
20003091:	7a77      	ldrb	r7, [r6, #9]
20003093:	b5ee      	push	{r1, r2, r3, r5, r6, r7, lr}
20003095:	5aaf      	ldrh	r7, [r5, r2]
20003097:	feff ffef 	cdp2	15, 15, cr15, cr15, cr15, {7}
2000309b:	ff7d faff 	vpmin.u<illegal width 64>	<illegal reg q15.5>, <illegal reg q14.5>, <illegal reg q15.5>
2000309f:	badd      	revsh	r5, r3
200030a1:	7bff      	ldrb	r7, [r7, #15]
200030a3:	dfbf      	svc	191	; 0xbf
	...
200030ad:	febf fbff 	mrc2	11, 5, pc, cr15, cr15, {7}
200030b1:	ffbb ffdf 			; <UNDEFINED> instruction: 0xffbbffdf
200030b5:	fbff 6ffd 			; <UNDEFINED> instruction: 0xfbff6ffd
200030b9:	ffd6 a8df 			; <UNDEFINED> instruction: 0xffd6a8df
200030bd:	0049      	lsls	r1, r1, #1
200030bf:	2a10      	cmp	r2, #16
200030c1:	75fd      	strb	r5, [r7, #23]
200030c3:	d7dd      	bvc.n	20003081 <screen+0x420>
200030c5:	dbb5      	blt.n	20003033 <screen+0x3d2>
200030c7:	ed7a ffbb 	ldcl	15, cr15, [sl, #-748]!	; 0xfffffd14
200030cb:	b7fd      			; <UNDEFINED> instruction: 0xb7fd
200030cd:	ddef      	ble.n	200030af <screen+0x44e>
200030cf:	6fb5      	ldr	r5, [r6, #120]	; 0x78
200030d1:	ef77 add5 	vmls.f<illegal width 64>	q13, <illegal reg q11.5>, <illegal reg q2.5>
200030d5:	feed 0000 	cdp2	0, 14, cr0, cr13, cr0, {0}
200030d9:	0000      	movs	r0, r0
200030db:	0000      	movs	r0, r0
200030dd:	0000      	movs	r0, r0
200030df:	dbee      	blt.n	200030bf <screen+0x45e>
200030e1:	eef5 effd 	mrc	15, 7, lr, cr5, cr13, {7}
200030e5:	6f7f      	ldr	r7, [r7, #116]	; 0x74
200030e7:	7edb      	ldrb	r3, [r3, #27]
200030e9:	feaf dddf 	mcr2	13, 5, sp, cr15, cr15, {6}
200030ed:	c2ed      	stmia	r2!, {r0, r2, r3, r5, r6, r7}
200030ef:	2400      	movs	r4, #0
200030f1:	1441      	asrs	r1, r0, #17
200030f3:	df5f      	svc	95	; 0x5f
200030f5:	bd76      	pop	{r1, r2, r4, r5, r6, pc}
200030f7:	ee6e 77d7 	mcr	7, 3, r7, cr14, cr7, {6}
200030fb:	ff7f fdf7 			; <UNDEFINED> instruction: 0xff7ffdf7
200030ff:	ffff fbff 			; <UNDEFINED> instruction: 0xfffffbff
20003103:	fbfe f77e 			; <UNDEFINED> instruction: 0xfbfef77e
20003107:	6f7f      	ldr	r7, [r7, #116]	; 0x74
	...
20003111:	febf fdff 	mrc2	13, 5, pc, cr15, cr15, {7}
20003115:	7dd7      	ldrb	r7, [r2, #23]
20003117:	fbfd db7f 			; <UNDEFINED> instruction: 0xfbfddb7f
2000311b:	7ffb      	ldrb	r3, [r7, #31]
2000311d:	ffeb a0f7 	vshr.u64	q13, <illegal reg q11.5>, #21
20003121:	0149      	lsls	r1, r1, #5
20003123:	4b04      	ldr	r3, [pc, #16]	; (20003134 <screen+0x4d3>)
20003125:	f775 ebdb 			; <UNDEFINED> instruction: 0xf775ebdb
20003129:	5bbb      	ldrh	r3, [r7, r6]
2000312b:	adbb      	add	r5, sp, #748	; 0x2ec
2000312d:	fbef f7ff 			; <UNDEFINED> instruction: 0xfbeff7ff
20003131:	76fb      	strb	r3, [r7, #27]
20003133:	aed5      	add	r6, sp, #852	; 0x354
20003135:	5fd7      	ldrsh	r7, [r2, r7]
20003137:	5dd7      	ldrb	r7, [r2, r7]
20003139:	fdab 0000 	stc2	0, cr0, [fp]
2000313d:	0000      	movs	r0, r0
2000313f:	0000      	movs	r0, r0
20003141:	0000      	movs	r0, r0
20003143:	bbf7      	cbnz	r7, 200031c3 <screen+0x562>
20003145:	ffeb dfee 	vqrdmlsh.s32	<illegal reg q14.5>, <illegal reg q13.5>, d14[1]
20003149:	dfff      	svc	255	; 0xff
2000314b:	fdfe b65f 	ldc2l	6, cr11, [lr, #380]!	; 0x17c
2000314f:	7fb7      	ldrb	r7, [r6, #30]
20003151:	917f      	str	r1, [sp, #508]	; 0x1fc
20003153:	2400      	movs	r4, #0
20003155:	2111      	movs	r1, #17
20003157:	5d5f      	ldrb	r7, [r3, r5]
20003159:	bd7e      	pop	{r1, r2, r3, r4, r5, r6, pc}
2000315b:	f6d6 76dd 			; <UNDEFINED> instruction: 0xf6d676dd
2000315f:	fffb dffe 			; <UNDEFINED> instruction: 0xfffbdffe
20003163:	ff6f fdff 			; <UNDEFINED> instruction: 0xff6ffdff
20003167:	f5fd ef7b 			; <UNDEFINED> instruction: 0xf5fdef7b
2000316b:	b7fe      			; <UNDEFINED> instruction: 0xb7fe
2000316d:	0080      	lsls	r0, r0, #2
2000316f:	0000      	movs	r0, r0
20003171:	0000      	movs	r0, r0
20003173:	0000      	movs	r0, r0
20003175:	febe b5ff 	mrc2	5, 5, fp, cr14, cr15, {7}
20003179:	7f7f      	ldrb	r7, [r7, #29]
2000317b:	f76e d7ef 	bl	1f37215d <__etext+0x1f3514fd>
2000317f:	fffa f7fd 	vqshl.u64	<illegal reg q15.5>, <illegal reg q14.5>, #58	; 0x3a
20003183:	c4ed      	stmia	r4!, {r0, r2, r3, r5, r6, r7}
20003185:	8012      	strh	r2, [r2, #0]
20003187:	1540      	asrs	r0, r0, #21
20003189:	f735 d6d5 	bl	1f338f37 <__etext+0x1f3182d7>
2000318d:	adbd      	add	r5, sp, #756	; 0x2f4
2000318f:	dbb6      	blt.n	200030ff <screen+0x49e>
20003191:	ffbf fff7 			; <UNDEFINED> instruction: 0xffbffff7
20003195:	ffff 5f6d 	vqrdmlsh.s<illegal width 64>	<illegal reg q10.5>, <illegal reg q7.5>, d29[0]
20003199:	bf57      	itett	pl
2000319b:	75dd      	strbpl	r5, [r3, #23]
2000319d:	ff5b 0000 	vhaddmi.u16	d16, d11, d0
200031a1:	0000      	movpl	r0, r0
200031a3:	0000      	movpl	r0, r0
200031a5:	0000      	movs	r0, r0
200031a7:	efef ff6b 	vqrdmlsh.s32	d31, d15, d11[1]
200031ab:	b7db      			; <UNDEFINED> instruction: 0xb7db
200031ad:	feff 7dfb 	mrc2	13, 7, r7, cr15, cr11, {7}
200031b1:	de6f      	udf	#111	; 0x6f
200031b3:	ffd7 a0ff 	vshr.u64	q13, <illegal reg q15.5>, #41
200031b7:	1440      	asrs	r0, r0, #17
200031b9:	4905      	ldr	r1, [pc, #20]	; (200031d0 <screen+0x56f>)
200031bb:	5d6f      	ldrb	r7, [r5, r5]
200031bd:	7b7f      	ldrb	r7, [r7, #13]
200031bf:	fbeb b66b 	umaal	fp, r6, fp, fp
200031c3:	fff7 f6ff 	vqshlu.s64	<illegal reg q15.5>, <illegal reg q15.5>, #55	; 0x37
200031c7:	6dfb      	ldr	r3, [r7, #92]	; 0x5c
200031c9:	f5ff edfd 			; <UNDEFINED> instruction: 0xf5ffedfd
200031cd:	af77      	add	r7, sp, #476	; 0x1dc
200031cf:	efee 0080 	vaddl.s32	q8, d30, d0
200031d3:	0000      	movs	r0, r0
200031d5:	0000      	movs	r0, r0
200031d7:	0000      	movs	r0, r0
200031d9:	fbbb fd7f 			; <UNDEFINED> instruction: 0xfbbbfd7f
200031dd:	fd7f dbf6 	ldc2l	11, cr13, [pc, #-984]!	; 20002e08 <screen+0x1a7>
200031e1:	efff efff 			; <UNDEFINED> instruction: 0xefffefff
200031e5:	6efd      	ldr	r5, [r7, #108]	; 0x6c
200031e7:	a1fb      	add	r1, pc, #1004	; (adr r1, 200035d4 <screen+0x973>)
200031e9:	4109      	asrs	r1, r1
200031eb:	1210      	asrs	r0, r2, #8
200031ed:	f7bb add5 	undefined (bcc, cond=0xE)
200031f1:	ae5e      	add	r6, sp, #376	; 0x178
200031f3:	dffd      	svc	253	; 0xfd
200031f5:	efff 7ffb 			; <UNDEFINED> instruction: 0xefff7ffb
200031f9:	ffdf bfed 	vqrdmlsh.s16	<illegal reg q13.5>, <illegal reg q15.5>, d5[3]
200031fd:	77b7      	strb	r7, [r6, #30]
200031ff:	fadd bfbb 			; <UNDEFINED> instruction: 0xfaddbfbb
20003203:	0080      	lsls	r0, r0, #2
20003205:	0000      	movs	r0, r0
20003207:	0000      	movs	r0, r0
20003209:	0000      	movs	r0, r0
2000320b:	7def      	ldrb	r7, [r5, #23]
2000320d:	b777      			; <UNDEFINED> instruction: 0xb777
2000320f:	5fad      	ldrsh	r5, [r5, r6]
20003211:	ff7f fbbd 	vqrdmlah.s<illegal width 64>	d31, d31, d29
20003215:	777b      	strb	r3, [r7, #29]
20003217:	ff76 c8df 	vceq.i<illegal width 64>	q14, q11, <illegal reg q7.5>
2000321b:	0400      	lsls	r0, r0, #16
2000321d:	4441      	add	r1, r8
2000321f:	7d5d      	ldrb	r5, [r3, #21]
20003221:	777f      	strb	r7, [r7, #29]
20003223:	dbf5      	blt.n	20003211 <screen+0x5b0>
20003225:	75ab      	strb	r3, [r5, #22]
20003227:	ffdf dfbf 			; <UNDEFINED> instruction: 0xffdfdfbf
2000322b:	bf7b      	ittet	vc
2000322d:	edbf dded 	ldcvc	13, cr13, [pc, #948]!	; 200035e4 <screen+0x983>
20003231:	5f77      	ldrshvc	r7, [r6, r5]
20003233:	fbef 0080 			; <UNDEFINED> instruction: 0xfbef0080
20003237:	0000      	movvc	r0, r0
20003239:	0000      	movs	r0, r0
2000323b:	0000      	movs	r0, r0
2000323d:	efbd ff7d 	vcvt.s32.f32	<illegal reg q7.5>, <illegal reg q14.5>, #3
20003241:	f7ff d6fe 	bl	1f403041 <__etext+0x1f3e23e1>
20003245:	b7f7      			; <UNDEFINED> instruction: 0xb7f7
20003247:	dfdf      	svc	223	; 0xdf
20003249:	5fdf      	ldrsh	r7, [r3, r7]
2000324b:	a0fe      	add	r0, pc, #1016	; (adr r0, 20003644 <screen+0x9e3>)
2000324d:	504a      	str	r2, [r1, r1]
2000324f:	1204      	asrs	r4, r0, #8
20003251:	d7af      	bvc.n	200031b3 <screen+0x552>
20003253:	ddd5      	ble.n	20003201 <screen+0x5a0>
20003255:	6d5f      	ldr	r7, [r3, #84]	; 0x54
20003257:	df76      	svc	118	; 0x76
20003259:	fff7 fbff 			; <UNDEFINED> instruction: 0xfff7fbff
2000325d:	edef bbfd 	stcl	11, cr11, [pc, #1012]!	; 20003654 <screen+0x9f3>
20003261:	7f7f      	ldrb	r7, [r7, #29]
20003263:	eadd 6fbd 			; <UNDEFINED> instruction: 0xeadd6fbd
20003267:	00c0      	lsls	r0, r0, #3
20003269:	0000      	movs	r0, r0
2000326b:	0000      	movs	r0, r0
2000326d:	0000      	movs	r0, r0
2000326f:	fdef fe6f 	stc2l	14, cr15, [pc, #444]!	; 2000342c <screen+0x7cb>
20003273:	beab      	bkpt	0x00ab
20003275:	ffdb fdff 			; <UNDEFINED> instruction: 0xffdbfdff
20003279:	f7fd bbfa 	b.w	20000a71 <__etext+0x1ffdfe11>
2000327d:	c2ff      	stmia	r2!, {r0, r1, r2, r3, r4, r5, r6, r7}
2000327f:	0200      	lsls	r0, r0, #8
20003281:	4980      	ldr	r1, [pc, #512]	; (20003484 <screen+0x823>)
20003283:	fd5a ee7e 	ldc2l	14, cr14, [sl, #-504]	; 0xfffffe08
20003287:	dfea      	svc	234	; 0xea
20003289:	bbaf      	cbnz	r7, 200032f7 <screen+0x696>
2000328b:	ff7f fefd 	vacgt.f<illegal width 64>	<illegal reg q15.5>, <illegal reg q15.5>, <illegal reg q14.5>
2000328f:	bffd      	ittte	<und>
20003291:	eff7 d5db 	vshl<und>.s64	<illegal reg q14.5>, <illegal reg q5.5>, #55	; 0x37
20003295:	bd76      	pop<und>	{r1, r2, r4, r5, r6, pc}
20003297:	feef 00c0 	cdp2<und>	0, 14, cr0, cr15, cr0, {6}
2000329b:	0000      	moval	r0, r0
2000329d:	0000      	movs	r0, r0
2000329f:	0000      	movs	r0, r0
200032a1:	bfbd      	ittte	lt
200032a3:	fb7b dbff 			; <UNDEFINED> instruction: 0xfb7bdbff
200032a7:	fbff dfbd 			; <UNDEFINED> instruction: 0xfbffdfbd
200032ab:	bb6f      	cbnz	r7, 20003309 <screen+0x6a8>	; unpredictable <IT:lt>
200032ad:	dfff      	svcge	255	; 0xff
200032af:	a877      	add	r0, sp, #476	; 0x1dc
200032b1:	a052      	add	r0, pc, #328	; (adr r0, 200033fc <screen+0x79b>)
200032b3:	0412      	lsls	r2, r2, #16
200032b5:	5757      	ldrsb	r7, [r2, r5]
200032b7:	75d7      	strb	r7, [r2, #23]
200032b9:	b5bd      	push	{r0, r2, r3, r4, r5, r7, lr}
200032bb:	ff7a ffdf 	vminnm.f<illegal width 64>	<illegal reg q15.5>, q13, <illegal reg q7.5>
200032bf:	b7ff      			; <UNDEFINED> instruction: 0xb7ff
200032c1:	feb7 7bff 	mrc2	11, 5, r7, cr7, cr15, {7}
200032c5:	ff76 d7df 	vaba.u<illegal width 64>	<illegal reg q14.5>, q11, <illegal reg q7.5>
200032c9:	777b      	strb	r3, [r7, #29]
200032cb:	00c0      	lsls	r0, r0, #3
200032cd:	0000      	movs	r0, r0
200032cf:	0000      	movs	r0, r0
200032d1:	0000      	movs	r0, r0
200032d3:	f5f7 df3f 	bl	1f5fb155 <__etext+0x1f5da4f5>
200032d7:	f7b6 defe 	bl	1f7ba0d7 <__etext+0x1f799477>
200032db:	f7f7 fffe 	bl	1fffb2db <__etext+0x1ffda67b>
200032df:	6b6f      	ldr	r7, [r5, #52]	; 0x34
200032e1:	c1ff      	stmia	r1!, {r0, r1, r2, r3, r4, r5, r6, r7}
200032e3:	0800      	lsrs	r0, r0, #32
200032e5:	a280      	add	r2, pc, #512	; (adr r2, 200034e8 <screen+0x887>)
200032e7:	feae beed 	cdp2	14, 10, cr11, cr14, cr13, {7}
200032eb:	7bd7      	ldrb	r7, [r2, #15]
200032ed:	aedf      	add	r6, sp, #892	; 0x37c
200032ef:	fbfb fffe 			; <UNDEFINED> instruction: 0xfbfbfffe
200032f3:	77ff      	strb	r7, [r7, #31]
200032f5:	eedd addf 	mrc	13, 6, sl, cr13, cr15, {6}
200032f9:	fbba dfdd 			; <UNDEFINED> instruction: 0xfbbadfdd
200032fd:	00c0      	lsls	r0, r0, #3
200032ff:	0000      	movs	r0, r0
20003301:	0000      	movs	r0, r0
20003303:	0000      	movs	r0, r0
20003305:	dedf      	udf	#223	; 0xdf
20003307:	ffeb deff 			; <UNDEFINED> instruction: 0xffebdeff
2000330b:	fbdb 7fff 			; <UNDEFINED> instruction: 0xfbdb7fff
2000330f:	edb7 d7fd 	ldc	7, cr13, [r7, #1012]!	; 0x3f4
20003313:	a0df      	add	r0, pc, #892	; (adr r0, 20003690 <screen+0xa2f>)
20003315:	424a      	negs	r2, r1
20003317:	0812      	lsrs	r2, r2, #32
20003319:	ab5b      	add	r3, sp, #364	; 0x16c
2000331b:	d5bb      	bpl.n	20003295 <screen+0x634>
2000331d:	d6fb      	bvs.n	20003317 <screen+0x6b6>
2000331f:	fbb5 ffff 	udiv	pc, r5, pc
20003323:	fbdf fd7d 			; <UNDEFINED> instruction: 0xfbdffd7d
20003327:	fbff f7f5 			; <UNDEFINED> instruction: 0xfbfff7f5
2000332b:	5def      	ldrb	r7, [r5, r7]
2000332d:	fd77 00c0 	ldc2l	0, cr0, [r7, #-768]!	; 0xfffffd00
20003331:	0000      	movs	r0, r0
20003333:	0000      	movs	r0, r0
20003335:	0000      	movs	r0, r0
20003337:	fefa fe3f 	mrc2	14, 7, pc, cr10, cr15, {1}
2000333b:	f7ee bfff 	b.w	1fff233d <__etext+0x1ffd16dd>
2000333f:	ddbb      	ble.n	200032b9 <screen+0x658>
20003341:	7dff      	ldrb	r7, [r7, #23]
20003343:	faf7 c9ff 			; <UNDEFINED> instruction: 0xfaf7c9ff
20003347:	1000      	asrs	r0, r0, #32
20003349:	2240      	movs	r2, #64	; 0x40
2000334b:	7eb7      	ldrb	r7, [r6, #26]
2000334d:	efee bd56 			; <UNDEFINED> instruction: 0xefeebd56
20003351:	bfee      	itee	al
20003353:	ffbf efff 			; <UNDEFINED> instruction: 0xffbfefff
20003357:	dff7      	svc<und>	247	; 0xf7
20003359:	6fb7      	ldr<und>	r7, [r6, #120]	; 0x78
2000335b:	5d5f      	ldrb	r7, [r3, r5]
2000335d:	ef7b f7de 	vaba.s<illegal width 64>	<illegal reg q15.5>, <illegal reg q13.5>, q7
20003361:	00c0      	lsls	r0, r0, #3
20003363:	0000      	movs	r0, r0
20003365:	0000      	movs	r0, r0
20003367:	4000      	ands	r0, r0
20003369:	f6bf f7b6 	bl	1fac32d9 <__etext+0x1faa2679>
2000336d:	fbfb f6ff 			; <UNDEFINED> instruction: 0xfbfbf6ff
20003371:	ffff f7dd 	vqshl.u64	<illegal reg q15.5>, <illegal reg q6.5>, #63	; 0x3f
20003375:	6dff      	ldr	r7, [r7, #92]	; 0x5c
20003377:	d0fd      	beq.n	20003375 <screen+0x714>
20003379:	8822      	ldrh	r2, [r4, #0]
2000337b:	0909      	lsrs	r1, r1, #4
2000337d:	d72d      	bvc.n	200033db <screen+0x77a>
2000337f:	75bb      	strb	r3, [r7, #22]
20003381:	d7bb      	bvc.n	200032fb <screen+0x69a>
20003383:	db5b      	blt.n	2000343d <screen+0x7dc>
20003385:	fff7 fffe 			; <UNDEFINED> instruction: 0xfff7fffe
20003389:	f6de fdff 	bl	1fee1f8b <__etext+0x1fec132b>
2000338d:	f7f6 5aad 			; <UNDEFINED> instruction: 0xf7f65aad
20003391:	bff7      	itett	<und>
20003393:	00c0      	lsl<und>	r0, r0, #3
20003395:	0000      	moval	r0, r0
20003397:	0000      	mov<und>	r0, r0
20003399:	0008      	mov<und>	r0, r1
2000339b:	beef      	bkpt	0x00ef
2000339d:	ff3d bddf 			; <UNDEFINED> instruction: 0xff3dbddf
200033a1:	ffb6 b7dd 	vqshl.u64	<illegal reg q5.5>, <illegal reg q6.5>, #54	; 0x36
200033a5:	de7f      	udf	#127	; 0x7f
200033a7:	f6df c2bf 			; <UNDEFINED> instruction: 0xf6dfc2bf
200033ab:	2208      	movs	r2, #8
200033ad:	2040      	movs	r0, #64	; 0x40
200033af:	7abf      	ldrb	r7, [r7, #10]
200033b1:	befd      	bkpt	0x00fd
200033b3:	7aed      	ldrb	r5, [r5, #11]
200033b5:	fef6 dfff 	mrc2	15, 7, sp, cr6, cr15, {7}
200033b9:	ffff bf7f 	vcvt.u32.f32	<illegal reg q13.5>, <illegal reg q15.5>, #1
200033bd:	dffd      	svc	253	; 0xfd
200033bf:	debd      	udf	#189	; 0xbd
200033c1:	f7ff ff5d 	bl	2000327f <screen+0x61e>
200033c5:	0040      	lsls	r0, r0, #1
200033c7:	0000      	movs	r0, r0
200033c9:	0000      	movs	r0, r0
200033cb:	0000      	movs	r0, r0
200033cd:	f6fb df57 	bl	1f6ff27f <__etext+0x1f6de61f>
200033d1:	efff b6ff 			; <UNDEFINED> instruction: 0xefffb6ff
200033d5:	ffff 7ff7 			; <UNDEFINED> instruction: 0xffff7ff7
200033d9:	fffd e877 	vqrshrun.s64	d30, <illegal reg q11.5>, #3
200033dd:	0841      	lsrs	r1, r0, #1
200033df:	0505      	lsls	r5, r0, #20
200033e1:	d72b      	bvc.n	2000343b <screen+0x7da>
200033e3:	d5af      	bpl.n	20003345 <screen+0x6e4>
200033e5:	afb7      	add	r7, sp, #732	; 0x2dc
200033e7:	57af      	ldrsb	r7, [r5, r6]
200033e9:	757f      	strb	r7, [r7, #21]
200033eb:	fbbf edfd 			; <UNDEFINED> instruction: 0xfbbfedfd
200033ef:	7bdf      	ldrb	r7, [r3, #15]
200033f1:	bbdb      	cbnz	r3, 2000346b <screen+0x80a>
200033f3:	5dd5      	ldrb	r5, [r2, r7]
200033f5:	b7f7      			; <UNDEFINED> instruction: 0xb7f7
200033f7:	00c0      	lsls	r0, r0, #3
200033f9:	0000      	movs	r0, r0
200033fb:	0000      	movs	r0, r0
200033fd:	0000      	movs	r0, r0
200033ff:	7cbf      	ldrb	r7, [r7, #18]
20003401:	fd3d fafd 	ldc2	10, cr15, [sp, #-1012]!	; 0xfffffc0c
20003405:	fffb 7bdb 			; <UNDEFINED> instruction: 0xfffb7bdb
20003409:	fabf bbdf 			; <UNDEFINED> instruction: 0xfabfbbdf
2000340d:	c1bf      	stmia	r1!, {r0, r1, r2, r3, r4, r5, r7}
2000340f:	2008      	movs	r0, #8
20003411:	4190      	sbcs	r0, r2
20003413:	7a3d      	ldrb	r5, [r7, #8]
20003415:	7ff5      	ldrb	r5, [r6, #31]
20003417:	756d      	strb	r5, [r5, #21]
20003419:	fd75 ffd7 	ldc2l	15, cr15, [r5, #-860]!	; 0xfffffca4
2000341d:	bfff      	itttt	<und>
2000341f:	bff7      	itett	<und>	; unpredictable <IT:<und>>
20003421:	fe77 fefe 	mrc2<und>	14, 3, pc, cr7, cr14, {7}
20003425:	f7ff ff5e 	blal	200032e5 <screen+0x684>	; unpredictable branch in IT block

20003429:	00c0      	lsl<und>	r0, r0, #3
2000342b:	0000      	mov<und>	r0, r0
2000342d:	0000      	movs	r0, r0
2000342f:	0000      	movs	r0, r0
20003431:	eef7 ff16 	mrc	15, 7, APSR_nzcv, cr7, cr6, {0}
20003435:	bfb7      	itett	lt
20003437:	dbdf      	blt.n	200033f9 <screen+0x798>	; unpredictable <IT:lt>
20003439:	de7f      	udfge	#127	; 0x7f
2000343b:	effb feb7 			; <UNDEFINED> instruction: 0xeffbfeb7
2000343f:	e8df 0222 			; <UNDEFINED> instruction: 0xe8df0222
20003443:	1402      	asrs	r2, r0, #16
20003445:	df97      	svc	151	; 0x97
20003447:	d57f      	bpl.n	20003549 <screen+0x8e8>
20003449:	dfde      	svc	222	; 0xde
2000344b:	6fbb      	ldr	r3, [r7, #120]	; 0x78
2000344d:	defd      	udf	#253	; 0xfd
2000344f:	fed6 fbdf 	mrc2	11, 6, pc, cr6, cr15, {6}
20003453:	dbfd      	blt.n	20003451 <screen+0x7f0>
20003455:	abb7      	add	r3, sp, #732	; 0x2dc
20003457:	5dad      	ldrb	r5, [r5, r6]
20003459:	ddf7      	ble.n	2000344b <screen+0x7ea>
2000345b:	0080      	lsls	r0, r0, #2
2000345d:	0000      	movs	r0, r0
2000345f:	0000      	movs	r0, r0
20003461:	0000      	movs	r0, r0
20003463:	fcfe f79f 	ldc2l	7, cr15, [lr], #636	; 0x27c
20003467:	fdff ff7e 	ldc2l	15, cr15, [pc, #504]!	; 20003660 <screen+0x9ff>
2000346b:	fffd ffee 	vqrdmlsh.s<illegal width 64>	<illegal reg q15.5>, <illegal reg q14.5>, d30[0]
2000346f:	effe e4eb 	vext.8	q15, q15, <illegal reg q13.5>, #4
20003473:	a880      	add	r0, sp, #512	; 0x200
20003475:	8020      	strh	r0, [r4, #0]
20003477:	6a5d      	ldr	r5, [r3, #36]	; 0x24
20003479:	7ed5      	ldrb	r5, [r2, #27]
2000347b:	eaf5 ffd6 			; <UNDEFINED> instruction: 0xeaf5ffd6
2000347f:	fbf7 f7ff 			; <UNDEFINED> instruction: 0xfbf7f7ff
20003483:	dffe      	svc	254	; 0xfe
20003485:	ff6f fefd 	vacgt.f32	<illegal reg q15.5>, <illegal reg q15.5>, <illegal reg q14.5>
20003489:	effb ff7d 	vcvt.s32.f32	<illegal reg q15.5>, <illegal reg q14.5>, #5
2000348d:	00c0      	lsls	r0, r0, #3
2000348f:	0000      	movs	r0, r0
20003491:	0000      	movs	r0, r0
20003493:	0080      	lsls	r0, r0, #2
20003495:	dedf      	udf	#223	; 0xdf
20003497:	bf2a      	itet	cs
20003499:	effe f7fb 	vqshlcs.s64	<illegal reg q15.5>, <illegal reg q13.5>, #62	; 0x3e
2000349d:	bbb7      	cbnz	r7, 2000350d <screen+0x8ac>	; unpredictable <IT:cc>
2000349f:	bdbf      	popcs	{r0, r1, r2, r3, r4, r5, r7, pc}
200034a1:	ffbb d05f 	vshr.u32	<illegal reg q6.5>, <illegal reg q7.5>, #5
200034a5:	000a      	movs	r2, r1
200034a7:	0588      	lsls	r0, r1, #22
200034a9:	fd2b d7ff 	stc2	7, cr13, [fp, #-1020]!	; 0xfffffc04
200034ad:	5d5b      	ldrb	r3, [r3, r5]
200034af:	dfbd      	svc	189	; 0xbd
200034b1:	7fff      	ldrb	r7, [r7, #31]
200034b3:	7f7b      	ldrb	r3, [r7, #29]
200034b5:	f7ff 6dff 			; <UNDEFINED> instruction: 0xf7ff6dff
200034b9:	6faf      	ldr	r7, [r5, #120]	; 0x78
200034bb:	bbae      	cbnz	r6, 20003529 <screen+0x8c8>
200034bd:	6faf      	ldr	r7, [r5, #120]	; 0x78
200034bf:	0080      	lsls	r0, r0, #2
200034c1:	0000      	movs	r0, r0
200034c3:	0000      	movs	r0, r0
200034c5:	0000      	movs	r0, r0
200034c7:	f4fb ff0f 	bl	1fcff2e9 <__etext+0x1fcde689>
200034cb:	febb deef 	cdp2	14, 11, cr13, cr11, cr15, {7}
200034cf:	ffff f7fb 	vqshl.u64	<illegal reg q15.5>, <illegal reg q13.5>, #63	; 0x3f
200034d3:	fddf eaf5 	ldc2l	10, cr14, [pc, #980]	; 200038a8 <screen+0xc47>
200034d7:	4420      	add	r0, r4
200034d9:	a002      	add	r0, pc, #8	; (adr r0, 200034e4 <screen+0x883>)
200034db:	d71e      	bvc.n	2000351b <screen+0x8ba>
200034dd:	7a55      	ldrb	r5, [r2, #9]
200034df:	b6ef      			; <UNDEFINED> instruction: 0xb6ef
200034e1:	feeb efff 	mcr2	15, 7, lr, cr11, cr15, {7}
200034e5:	dedf      	udf	#223	; 0xdf
200034e7:	bdef      	pop	{r0, r1, r2, r3, r5, r6, r7, pc}
200034e9:	ffbb f5fb 	vsli.64	<illegal reg q7.5>, <illegal reg q13.5>, #59	; 0x3b
200034ed:	ddfb      	ble.n	200034e7 <screen+0x886>
200034ef:	fdfb 0080 	ldc2l	0, cr0, [fp, #512]!	; 0x200
200034f3:	0000      	movs	r0, r0
200034f5:	0000      	movs	r0, r0
200034f7:	0000      	movs	r0, r0
200034f9:	fdde 5e4d 	ldc2l	14, cr5, [lr, #308]	; 0x134
200034fd:	dfff      	svc	255	; 0xff
200034ff:	ffbf defe 			; <UNDEFINED> instruction: 0xffbfdefe
20003503:	ffef 5fef 	vqrdmlsh.s32	<illegal reg q10.5>, <illegal reg q15.5>, d15[1]
20003507:	e0ef      	b.n	200036e9 <screen+0xa88>
20003509:	1082      	asrs	r2, r0, #2
2000350b:	0920      	lsrs	r0, r4, #4
2000350d:	fa4b dfff 			; <UNDEFINED> instruction: 0xfa4bdfff
20003511:	efba ff5e 	vcvt.s32.f32	<illegal reg q7.5>, q7, #6
20003515:	ffff bff5 			; <UNDEFINED> instruction: 0xffffbff5
20003519:	fffd b6ef 	vmlsl.u<illegal width 64>	<illegal reg q13.5>, d29, d31[0]
2000351d:	bfde      	ittt	le
2000351f:	ee5e 7faf 	cdple	15, 5, cr7, cr14, cr15, {5}
20003523:	0080      	lslle	r0, r0, #2
20003525:	0000      	movle	r0, r0
20003527:	0000      	movs	r0, r0
20003529:	0000      	movs	r0, r0
2000352b:	bcff      	pop	{r0, r1, r2, r3, r4, r5, r6, r7}
2000352d:	ff07 fbff 	vqrdmlah.s<illegal width 8>	<illegal reg q7.5>, <illegal reg q11.5>, <illegal reg q15.5>
20003531:	fbfe fbdb 			; <UNDEFINED> instruction: 0xfbfefbdb
20003535:	befd      	bkpt	0x00fd
20003537:	fffd eaba 			; <UNDEFINED> instruction: 0xfffdeaba
2000353b:	8108      	strh	r0, [r1, #8]
2000353d:	a004      	add	r0, pc, #16	; (adr r0, 20003550 <screen+0x8ef>)
2000353f:	af2e      	add	r7, sp, #184	; 0xb8
20003541:	6a55      	ldr	r5, [r2, #36]	; 0x24
20003543:	5ad7      	ldrh	r7, [r2, r3]
20003545:	bbf7      	cbnz	r7, 200035c5 <screen+0x964>
20003547:	f6dd efff 			; <UNDEFINED> instruction: 0xf6ddefff
2000354b:	ebbf ff7e 			; <UNDEFINED> instruction: 0xebbfff7e
2000354f:	d5f7      	bpl.n	20003541 <screen+0x8e0>
20003551:	77f7      	strb	r7, [r6, #31]
20003553:	effb 0080 	vext.8	d16, d27, d0, #0
20003557:	0000      	movs	r0, r0
20003559:	0000      	movs	r0, r0
2000355b:	0000      	movs	r0, r0
2000355d:	e8ef afa6 	strd	sl, pc, [pc], #664	; 200037f8 <screen+0xb97>	; 0x298
20003561:	bfed      	iteet	al
20003563:	ef5f efff 	vrecpsal.f<illegal width 64>	q15, <illegal reg q15.5>, <illegal reg q15.5>
20003567:	efdf 6daf 	vqdmull<und>.s16	q11, d31, d31
2000356b:	f0ff 0800 			; <UNDEFINED> instruction: 0xf0ff0800
2000356f:	0410      	lslal	r0, r2, #16
20003571:	fb97 ffef 			; <UNDEFINED> instruction: 0xfb97ffef
20003575:	f77d ffbb 	bl	1ff814ef <__etext+0x1ff6088f>
20003579:	bfff      	itttt	<und>
2000357b:	b6de      			; <UNDEFINED> instruction: 0xb6de
2000357d:	bff7      	itett	<und>	; unpredictable <IT:<und>>
2000357f:	dbf7      	blt.n	20003571 <screen+0x910>	; unpredictable <IT:<und>>
20003581:	ff7e dd5d 			; <UNDEFINED> instruction: 0xff7edd5d
20003585:	ff6e 0000 	vhadd<und>.u32	d16, d14, d0
20003589:	0000      	mov<und>	r0, r0
2000358b:	0000      	movs	r0, r0
2000358d:	0000      	movs	r0, r0
2000358f:	fcbd fb0b 	ldc2	11, cr15, [sp], #44	; 0x2c
20003593:	fdff 7ff7 	ldc2l	15, cr7, [pc, #988]!	; 20003970 <screen+0xd0f>
20003597:	7f77      	ldrb	r7, [r6, #29]
20003599:	fffd fbf7 			; <UNDEFINED> instruction: 0xfffdfbf7
2000359d:	e9fd 4125 	ldrd	r4, r1, [sp, #148]!	; 0x94
200035a1:	5001      	str	r1, [r0, r0]
200035a3:	5d15      	ldrb	r5, [r2, r4]
200035a5:	555b      	strb	r3, [r3, r5]
200035a7:	add6      	add	r5, sp, #856	; 0x358
200035a9:	ff6e fff7 	vminnm.f32	<illegal reg q15.5>, q15, <illegal reg q11.5>
200035ad:	fbff fbfe 			; <UNDEFINED> instruction: 0xfbfffbfe
200035b1:	7f7f      	ldrb	r7, [r7, #29]
200035b3:	b5db      	push	{r0, r1, r3, r4, r6, r7, lr}
200035b5:	b7f7      			; <UNDEFINED> instruction: 0xb7f7
200035b7:	bbfb      	cbnz	r3, 20003639 <screen+0x9d8>
200035b9:	0080      	lsls	r0, r0, #2
200035bb:	0000      	movs	r0, r0
200035bd:	0000      	movs	r0, r0
200035bf:	0000      	movs	r0, r0
200035c1:	b8ff      			; <UNDEFINED> instruction: 0xb8ff
200035c3:	af81      	add	r7, sp, #516	; 0x204
200035c5:	efff fdef 	vext.8	<illegal reg q15.5>, <illegal reg q15.5>, <illegal reg q15.5>, #13
200035c9:	fdff bbf7 	ldc2l	11, cr11, [pc, #988]!	; 200039a8 <screen+0xd47>
200035cd:	bf7d      	ittte	vc
200035cf:	f0ef 0800 			; <UNDEFINED> instruction: 0xf0ef0800
200035d3:	0044      	lslvc	r4, r0, #1
200035d5:	f74f fe7d 	blvc	1ff532d3 <__etext+0x1ff32673>	; unpredictable branch in IT block

200035d9:	77fb      	strbvs	r3, [r7, #31]
200035db:	ffb7 fb7f 			; <UNDEFINED> instruction: 0xffb7fb7f
200035df:	dff7      	svc	247	; 0xf7
200035e1:	ffff fbd5 			; <UNDEFINED> instruction: 0xfffffbd5
200035e5:	ff7f fd7e 			; <UNDEFINED> instruction: 0xff7ffd7e
200035e9:	ff5f 0000 	vhadd.u16	d16, d15, d0
200035ed:	0000      	movs	r0, r0
200035ef:	2000      	movs	r0, #0
200035f1:	0000      	movs	r0, r0
200035f3:	f8f7 fb25 	ldr??.w	pc, [r7, #2853]	; 0xb25
200035f7:	7fbb      	ldrb	r3, [r7, #30]
200035f9:	ffbb b7ff 	vqshl.u64	<illegal reg q5.5>, <illegal reg q15.5>, #59	; 0x3b
200035fd:	ffbf edef 	vqrdmulh.s<illegal width 64>	q7, <illegal reg q15.5>, d31[0]
20003601:	f5bf 2125 	subs.w	r1, pc, #675840	; 0xa5000
20003605:	a910      	add	r1, sp, #64	; 0x40
20003607:	bb1a      	cbnz	r2, 20003651 <screen+0x9f0>
20003609:	57ab      	ldrsb	r3, [r5, r6]
2000360b:	dd56      	ble.n	200036bb <screen+0xa5a>
2000360d:	fb7f fffd 			; <UNDEFINED> instruction: 0xfb7ffffd
20003611:	fa7e edff 			; <UNDEFINED> instruction: 0xfa7eedff
20003615:	df7f      	svc	127	; 0x7f
20003617:	55ed      	strb	r5, [r5, r7]
20003619:	afd7      	add	r7, sp, #860	; 0x35c
2000361b:	eff6 0000 	vext.8	d16, d6, d0, #0
2000361f:	0000      	movs	r0, r0
20003621:	0040      	lsls	r0, r0, #1
20003623:	0000      	movs	r0, r0
20003625:	e8de 5e41 			; <UNDEFINED> instruction: 0xe8de5e41
20003629:	eeff dffe 	mrc	15, 7, sp, cr15, cr14, {7}
2000362d:	ffb6 effe 			; <UNDEFINED> instruction: 0xffb6effe
20003631:	ff7a 70ff 	vqadd.u64	<illegal reg q11.5>, q13, <illegal reg q15.5>
20003635:	0000      	movs	r0, r0
20003637:	8000      	strh	r0, [r0, #0]
20003639:	ed17 fbde 	vldr	d15, [r7, #-888]	; 0xfffffc88
2000363d:	b7fb      			; <UNDEFINED> instruction: 0xb7fb
2000363f:	ffdb 6fef 	vqrdmlsh.s16	q11, <illegal reg q13.5>, d7[3]
20003643:	edff fff7 	ldcl	15, cr15, [pc, #988]!	; 20003a20 <screen+0xdbf>
20003647:	7bef      	ldrb	r7, [r5, #15]
20003649:	ffbf f57a 	vsli.32	<illegal reg q7.5>, q13, #31
2000364d:	bf5f      	itttt	pl
2000364f:	0000      	movpl	r0, r0
20003651:	bf00      	noppl
20003653:	85bf      	strhpl	r7, [r7, #44]	; 0x2c
20003655:	0020      	movpl	r0, r4
20003657:	f8ff eb14 	ldr??.w	lr, [pc, #2836]	; 2000416c <screen+0x150b>
2000365b:	fffe fdf7 			; <UNDEFINED> instruction: 0xfffefdf7
2000365f:	ffff ffff 			; <UNDEFINED> instruction: 0xffffffff
20003663:	b6ff      			; <UNDEFINED> instruction: 0xb6ff
20003665:	f4ff 8994 	bcc.w	1ffc2991 <__etext+0x1ffa1d31>
20003669:	544a      	strb	r2, [r1, r1]
2000366b:	7e9d      	ldrb	r5, [r3, #26]
2000366d:	aeb5      	add	r6, sp, #724	; 0x2d4
2000366f:	edae ff7f 	stc	15, cr15, [lr, #508]!	; 0x1fc
20003673:	ffbf feed 	vqrdmlah.s<illegal width 64>	<illegal reg q7.5>, <illegal reg q15.5>, d29[0]
20003677:	bfbf      	itttt	lt
20003679:	febd bbfb 	mrc2lt	11, 5, fp, cr13, cr11, {7}
2000367d:	5fdf      	ldrshlt	r7, [r3, r7]
2000367f:	fff6 0000 	vaddllt.u<illegal width 64>	q8, d6, d0
20003683:	6a2b      	ldrlt	r3, [r5, #32]
20003685:	f8ef 0800 	str??.w	r0, [pc, #2048]	; 20003e88 <screen+0x1227>
20003689:	b0f7      	sub	sp, #476	; 0x1dc
2000368b:	7f21      	ldrb	r1, [r4, #28]
2000368d:	f777 dffd 	bl	1f77b68b <__etext+0x1f75aa2b>
20003691:	ddff      	ble.n	20003693 <screen+0xa32>
20003693:	bbb7      	cbnz	r7, 20003703 <screen+0xaa2>
20003695:	ff6d f2df 	vqsub.u32	<illegal reg q15.5>, <illegal reg q14.5>, <illegal reg q7.5>
20003699:	2002      	movs	r0, #2
2000369b:	8210      	strh	r0, [r2, #16]
2000369d:	ab37      	add	r3, sp, #220	; 0xdc
2000369f:	fbdf bbdb 	smlsldx	fp, fp, pc, fp	; <UNPREDICTABLE>
200036a3:	f7df dbfe 	bl	1f7e2ea3 <__etext+0x1f7c2243>
200036a7:	febf fbff 	mrc2	11, 5, pc, cr15, cr15, {7}
200036ab:	d7ef      	bvc.n	2000368d <screen+0xa2c>
200036ad:	eeee f5f5 	mcr	5, 7, pc, cr14, cr5, {7}	; <UNPREDICTABLE>
200036b1:	fe7f 0900 	cdp2	9, 7, cr0, cr15, cr0, {0}
200036b5:	ae2b      	add	r6, sp, #172	; 0xac
200036b7:	feb6 0092 	mrc2	0, 5, r0, cr6, cr2, {4}
200036bb:	f8be 6d08 	ldrh.w	r6, [lr, #3336]	; 0xd08
200036bf:	bfdf      	itttt	le
200036c1:	ffde ff6d 	vqrdmlshle.s16	<illegal reg q15.5>, q7, d5[3]
200036c5:	effe 5bf7 			; <UNDEFINED> instruction: 0xeffe5bf7
200036c9:	f4fd 0224 			; <UNDEFINED> instruction: 0xf4fd0224
200036cd:	5485      	strble	r5, [r0, r2]
200036cf:	fdba ae6a 	ldc2	14, cr10, [sl, #424]!	; 0x1a8
200036d3:	def6      	udf	#246	; 0xf6
200036d5:	7fff      	ldrb	r7, [r7, #31]
200036d7:	ffff b7ff 	vqshl.u64	<illegal reg q13.5>, <illegal reg q15.5>, #63	; 0x3f
200036db:	ff5f 7f7b 	vmaxnm.f<illegal width 64>	<illegal reg q11.5>, <illegal reg q7.5>, <illegal reg q13.5>
200036df:	fb7f 5fbf 			; <UNDEFINED> instruction: 0xfb7f5fbf
200036e3:	fbd7 4200 			; <UNDEFINED> instruction: 0xfbd74200
200036e7:	fbae ffff 			; <UNDEFINED> instruction: 0xfbaeffff
200036eb:	80d4      	strh	r4, [r2, #6]
200036ed:	f0ff 3f0a 			; <UNDEFINED> instruction: 0xf0ff3f0a
200036f1:	ffbf 77fb 	vqshl.u64	<illegal reg q3.5>, <illegal reg q13.5>, #63	; 0x3f
200036f5:	f7ff bdfb 	b.w	200032ef <screen+0x68e>
200036f9:	ffbd e86f 	vtbx.8	d14, {d13}, d31
200036fd:	8082      	strh	r2, [r0, #4]
200036ff:	2251      	movs	r2, #81	; 0x51
20003701:	af6f      	add	r7, sp, #444	; 0x1bc
20003703:	dbdd      	blt.n	200036c1 <screen+0xa60>
20003705:	6bbb      	ldr	r3, [r7, #56]	; 0x38
20003707:	ffbf de7f 	vcvt.f32.u32	<illegal reg q6.5>, <illegal reg q15.5>, #1
2000370b:	fefd ffbf 	mrc2	15, 7, pc, cr13, cr15, {5}
2000370f:	fbef bfed 			; <UNDEFINED> instruction: 0xfbefbfed
20003713:	f66b befd 	b.w	1fe6f511 <__etext+0x1fe4e8b1>
20003717:	0800      	lsrs	r0, r0, #32
20003719:	ae7b      	add	r6, sp, #492	; 0x1ec
2000371b:	bfdd      	ittte	le
2000371d:	00e5      	lslle	r5, r4, #3
2000371f:	d0d7      	beq.n	200036d1 <screen+0xa70>	; unpredictable <IT:le>
20003721:	ab22      	addle	r3, sp, #136	; 0x88
20003723:	edef ffff 	stclgt	15, cr15, [pc, #1020]!	; 20003b20 <screen+0xebf>
20003727:	7df7      	ldrb	r7, [r6, #23]
20003729:	ab2a      	add	r3, sp, #168	; 0xa8
2000372b:	ad76      	add	r5, sp, #472	; 0x1d8
2000372d:	e0ff      	b.n	2000392f <screen+0xcce>
2000372f:	0a14      	lsrs	r4, r2, #8
20003731:	aa84      	add	r2, sp, #528	; 0x210
20003733:	75f5      	strb	r5, [r6, #23]
20003735:	be76      	bkpt	0x0076
20003737:	fedf fffb 	mrc2	15, 6, pc, cr15, cr11, {7}
2000373b:	fbfb f7ef 			; <UNDEFINED> instruction: 0xfbfbf7ef
2000373f:	ff5b befd 	vacge.f<illegal width 64>	<illegal reg q13.5>, <illegal reg q13.5>, <illegal reg q14.5>
20003743:	edff 5dfd 	ldcl	13, cr5, [pc, #1012]!	; 20003b38 <screen+0xed7>
20003747:	feb7 0200 	cdp2	2, 11, cr0, cr7, cr0, {0}
2000374b:	fbdd f7b7 			; <UNDEFINED> instruction: 0xfbddf7b7
2000374f:	c0f8      	stmia	r0!, {r3, r4, r5, r6, r7}
20003751:	f0fd 9d02 	b.w	20901159 <__stack+0x8f9159>
20003755:	7ffb      	ldrb	r3, [r7, #31]
20003757:	7fff      	ldrb	r7, [r7, #31]
20003759:	927d      	str	r2, [sp, #500]	; 0x1f4
2000375b:	aa94      	add	r2, sp, #592	; 0x250
2000375d:	7795      	strb	r5, [r2, #30]
2000375f:	eadf 4006 			; <UNDEFINED> instruction: 0xeadf4006
20003763:	5522      	strb	r2, [r4, r4]
20003765:	ffbe ebbb 			; <UNDEFINED> instruction: 0xffbeebbb
20003769:	abea      	add	r3, sp, #936	; 0x3a8
2000376b:	dbef      	blt.n	2000374d <screen+0xaec>
2000376d:	6fff      	ldr	r7, [r7, #124]	; 0x7c
2000376f:	7bff      	ldrb	r7, [r7, #15]
20003771:	de6f      	udf	#111	; 0x6f
20003773:	eff7 ffb6 			; <UNDEFINED> instruction: 0xeff7ffb6
20003777:	f7af fcff 	bl	1ffb3179 <__etext+0x1ff92519>
2000377b:	af02      	add	r7, sp, #8
2000377d:	aef6      	add	r6, sp, #984	; 0x3d8
2000377f:	ffff 30fd 	vshr.u64	<illegal reg q9.5>, <illegal reg q14.5>, #1
20003783:	b0d7      	sub	sp, #348	; 0x15c
20003785:	5701      	ldrsb	r1, [r0, r4]
20003787:	ffad dffd 			; <UNDEFINED> instruction: 0xffaddffd
2000378b:	00d2      	lsls	r2, r2, #3
2000378d:	4922      	ldr	r1, [pc, #136]	; (20003818 <screen+0xbb7>)
2000378f:	bf75      	itete	vc
20003791:	d07f      	beq.n	20003893 <screen+0xc32>	; unpredictable <IT:vc>
20003793:	054e      	lslvs	r6, r1, #21
20003795:	4a49      	ldrvc	r2, [pc, #292]	; (200038bc <screen+0xc5b>)
20003797:	aad5      	addvs	r2, sp, #852	; 0x354
20003799:	b7d6      			; <UNDEFINED> instruction: 0xb7d6
2000379b:	ff7f ff7f 	vminnm.f<illegal width 64>	<illegal reg q15.5>, <illegal reg q7.5>, <illegal reg q15.5>
2000379f:	fdb7 ddfb 	ldc2	13, cr13, [r7, #1004]!	; 0x3ec
200037a3:	ffbf 7bfd 			; <UNDEFINED> instruction: 0xffbf7bfd
200037a7:	b5ff      	push	{r0, r1, r2, r3, r4, r5, r6, r7, lr}
200037a9:	5df5      	ldrb	r5, [r6, r7]
200037ab:	fe6f bd02 	cdp2	13, 6, cr11, cr15, cr2, {0}
200037af:	fbbf 7edb 			; <UNDEFINED> instruction: 0xfbbf7edb
200037b3:	10fe      	asrs	r6, r7, #3
200037b5:	e0df      	b.n	20003977 <screen+0xd16>
200037b7:	5e00      	ldrsh	r0, [r0, r0]
200037b9:	fbff f5f7 			; <UNDEFINED> instruction: 0xfbfff5f7
200037bd:	5700      	ldrsb	r0, [r0, r4]
200037bf:	aaad      	add	r2, sp, #692	; 0x2b4
200037c1:	abde      	add	r3, sp, #888	; 0x378
200037c3:	c1ef      	stmia	r1!, {r0, r1, r2, r3, r5, r6, r7}
200037c5:	110c      	asrs	r4, r1, #4
200037c7:	2b05      	cmp	r3, #5
200037c9:	fffb 5d7b 			; <UNDEFINED> instruction: 0xfffb5d7b
200037cd:	55d5      	strb	r5, [r2, r7]
200037cf:	fdff dffe 	ldc2l	15, cr13, [pc, #1016]!	; 20003bc8 <screen+0xf67>
200037d3:	f77f ff4b 	bl	1ff8366d <__etext+0x1ff62a0d>
200037d7:	dedf      	udf	#223	; 0xdf
200037d9:	ffdb ef7f 			; <UNDEFINED> instruction: 0xffdbef7f
200037dd:	ecfe ff3f 	ldcl	15, cr15, [lr], #252	; 0xfc
200037e1:	add2      	add	r5, sp, #840	; 0x348
200037e3:	bf6d      	iteet	vs
200037e5:	ac7f      	addvs	r4, sp, #508	; 0x1fc
200037e7:	f0b7 2b02 			; <UNDEFINED> instruction: 0xf0b72b02
200037eb:	bfb6      	itet	lt	; unpredictable <IT:vc>
200037ed:	baff      	revshlt	r7, r7
200037ef:	dd56      	ble.n	2000389f <screen+0xc3e>	; unpredictable <IT:ge>
200037f1:	ff7b edb7 			; <UNDEFINED> instruction: 0xff7bedb7
200037f5:	d47f      	bmi.n	200038f7 <screen+0xc96>
200037f7:	042d      	lsls	r5, r5, #16
200037f9:	4b52      	ldr	r3, [pc, #328]	; (20003944 <screen+0xce3>)
200037fb:	aa56      	add	r2, sp, #344	; 0x158
200037fd:	eedd ffff 	mrc	15, 6, APSR_nzcv, cr13, cr15, {7}
20003801:	6fff      	ldr	r7, [r7, #124]	; 0x7c
20003803:	f7df bbee 	b.w	1ffe2fe3 <__etext+0x1ffc2383>
20003807:	7fb7      	ldrb	r7, [r6, #30]
20003809:	77fb      	strb	r3, [r7, #31]
2000380b:	dbfe      	blt.n	2000380b <screen+0xbaa>
2000380d:	75d5      	strb	r5, [r2, #23]
2000380f:	fdbf ffff 	ldc2	15, cr15, [pc, #1020]!	; 20003c0c <screen+0xfab>
20003813:	d7ff      	bvc.n	20003815 <screen+0xbb4>
20003815:	ef57 d4df 	vqshl.s16	<illegal reg q14.5>, <illegal reg q7.5>, <illegal reg q11.5>
20003819:	e0fe      	b.n	20003a19 <screen+0xdb8>
2000381b:	1700      	asrs	r0, r0, #28
2000381d:	dfff      	svc	255	; 0xff
2000381f:	d57f      	bpl.n	20003921 <screen+0xcc0>
20003821:	6b53      	ldr	r3, [r2, #52]	; 0x34
20003823:	57dd      	ldrsb	r5, [r3, r7]
20003825:	b6fb      			; <UNDEFINED> instruction: 0xb6fb
20003827:	c0df      	stmia	r0!, {r0, r1, r2, r3, r4, r6, r7}
20003829:	420c      	tst	r4, r1
2000382b:	2b09      	cmp	r3, #9
2000382d:	dffd      	svc	253	; 0xfd
2000382f:	5beb      	ldrh	r3, [r5, r7]
20003831:	adda      	add	r5, sp, #872	; 0x368
20003833:	fbff 7d7b 			; <UNDEFINED> instruction: 0xfbff7d7b
20003837:	fdbf ffad 	ldc2	15, cr15, [pc, #692]!	; 20003aec <screen+0xe8b>
2000383b:	deff      	udf	#255	; 0xff
2000383d:	ffdb bf7f 			; <UNDEFINED> instruction: 0xffdbbf7f
20003841:	fff7 ff77 	vcvt.u32.f32	<illegal reg q15.5>, <illegal reg q11.5>, #9
20003845:	7d7f      	ldrb	r7, [r7, #21]
20003847:	bbfd      	cbnz	r5, 200038c9 <screen+0xc68>
20003849:	f4f7 c0af 			; <UNDEFINED> instruction: 0xf4f7c0af
2000384d:	4500      	cmp	r0, r0
2000384f:	7f5b      	ldrb	r3, [r3, #29]
20003851:	6afd      	ldr	r5, [r7, #44]	; 0x2c
20003853:	15a9      	asrs	r1, r5, #22
20003855:	fd77 d56e 	ldc2l	5, cr13, [r7, #-440]!	; 0xfffffe48
20003859:	52fb      	strh	r3, [r7, r3]
2000385b:	115c      	asrs	r4, r3, #5
2000385d:	af24      	add	r7, sp, #144	; 0x90
2000385f:	f556 ed5e 	blx	1fd5a31d <__etext+0x1fd396bd>
20003863:	ff7f bf6d 	vpmin.f<illegal width 64>	<illegal reg q13.5>, <illegal reg q7.5>, <illegal reg q14.5>
20003867:	deef      	udf	#239	; 0xef
20003869:	57f7      	ldrsb	r7, [r6, r7]
2000386b:	bfd7      	itett	le
2000386d:	b7ed      			; <UNDEFINED> instruction: 0xb7ed
2000386f:	bbff      	cbnz	r7, 200038f1 <screen+0xc90>	; unpredictable <IT:gt>
20003871:	eaed dfdf 			; <UNDEFINED> instruction: 0xeaeddfdf
20003875:	fdff ffff 	ldc2lle	15, cr15, [pc, #1020]!	; 20003c74 <screen+0x1013>
20003879:	ef6f fcbf 	vfms.f32	d31, d31, d31
2000387d:	e0ff      	b.n	20003a7f <screen+0xe1e>
2000387f:	0300      	lsls	r0, r0, #12
20003881:	d7ef      	bvc.n	20003863 <screen+0xc02>
20003883:	b6f7      			; <UNDEFINED> instruction: 0xb6f7
20003885:	efad 5fbd 			; <UNDEFINED> instruction: 0xefad5fbd
20003889:	edfb a45f 	cfldrd	mvd10, [fp, #380]!	; 0x17c
2000388d:	841a      	strh	r2, [r3, #32]
2000388f:	2f82      	cmp	r7, #130	; 0x82
20003891:	5ffb      	ldrsh	r3, [r7, r7]
20003893:	b7f5      			; <UNDEFINED> instruction: 0xb7f5
20003895:	d7f6      	bvc.n	20003885 <screen+0xc24>
20003897:	edff fb5d 	ldcl	11, cr15, [pc, #372]!	; 20003a0c <screen+0xdab>
2000389b:	dddd      	ble.n	20003859 <screen+0xbf8>
2000389d:	ff75 fa7f 	vpmin.u<illegal width 64>	<illegal reg q15.5>, <illegal reg q2.5>, <illegal reg q15.5>
200038a1:	ffdb 7f7b 			; <UNDEFINED> instruction: 0xffdb7f7b
200038a5:	7fff      	ldrb	r7, [r7, #31]
200038a7:	77ff      	strb	r7, [r7, #31]
200038a9:	fff7 bdfd 			; <UNDEFINED> instruction: 0xfff7bdfd
200038ad:	feff c0ad 	cdp2	0, 15, cr12, cr15, cr13, {5}
200038b1:	1408      	asrs	r0, r1, #16
200038b3:	7bff      	ldrb	r7, [r7, #15]
200038b5:	55fd      	strb	r5, [r7, r7]
200038b7:	bdfe      	pop	{r1, r2, r3, r4, r5, r6, r7, pc}
200038b9:	f6df b6de 	b.w	1fae3679 <__etext+0x1fac2a19>
200038bd:	50ef      	str	r7, [r5, r3]
200038bf:	1298      	asrs	r0, r3, #10
200038c1:	af2a      	add	r7, sp, #168	; 0xa8
200038c3:	eadd 6daf 			; <UNDEFINED> instruction: 0xeadd6daf
200038c7:	fd7f ffff 	ldc2l	15, cr15, [pc, #-1020]!	; 200034cc <screen+0x86b>
200038cb:	6fff      	ldr	r7, [r7, #124]	; 0x7c
200038cd:	7f6f      	ldrb	r7, [r5, #29]
200038cf:	bfaa      	itet	ge
200038d1:	dffe      	svcge	254	; 0xfe
200038d3:	dbfe      	blt.n	200038d3 <screen+0xc72>	; unpredictable <IT:lt>
200038d5:	abef      	addge	r3, sp, #956	; 0x3bc
200038d7:	ff7d ffff 	vminnm.f<illegal width 64>	<illegal reg q15.5>, <illegal reg q14.5>, <illegal reg q15.5>
200038db:	f7fd f7ff 	bl	1fc018dd <__etext+0x1fbe0c7d>
200038df:	fffb c0ff 	vshr.u64	q14, <illegal reg q15.5>, #5
200038e3:	0200      	lsls	r0, r0, #8
200038e5:	feab 7ffb 	mcr2	15, 5, r7, cr11, cr11, {7}
200038e9:	eff7 db6a 	vext.8	<illegal reg q14.5>, <illegal reg q3.5>, q13, #11
200038ed:	d5fb      	bpl.n	200038e7 <screen+0xc86>
200038ef:	8abd      	ldrh	r5, [r7, #20]
200038f1:	443a      	add	r2, r7
200038f3:	bf04      	itt	eq
200038f5:	bdf6      	popeq	{r1, r2, r4, r5, r6, r7, pc}
200038f7:	dbfa      	blt.n	200038ef <screen+0xc8e>	; unpredictable <IT:eq>
200038f9:	77bb      	strb	r3, [r7, #30]
200038fb:	b7f6      			; <UNDEFINED> instruction: 0xb7f6
200038fd:	dfd5      	svc	213	; 0xd5
200038ff:	dbb5      	blt.n	2000386d <screen+0xc0c>
20003901:	5fdf      	ldrsh	r7, [r3, r7]
20003903:	b5fb      	push	{r0, r1, r3, r4, r5, r6, r7, lr}
20003905:	ff57 ff7a 	vmaxnm.f<illegal width 64>	<illegal reg q15.5>, <illegal reg q3.5>, q13
20003909:	ffff ffff 			; <UNDEFINED> instruction: 0xffffffff
2000390d:	5fdf      	ldrsh	r7, [r3, r7]
2000390f:	feff ffff 	mrc2	15, 7, pc, cr15, cr15, {7}
20003913:	40df      	lsrs	r7, r3
20003915:	0900      	lsrs	r0, r0, #4
20003917:	db7f      	blt.n	20003a19 <screen+0xdb8>
20003919:	bffd      	ittte	<und>
2000391b:	bbd4      	cbnz	r4, 20003993 <screen+0xd32>	; unpredictable <IT:<und>>
2000391d:	ffff ad6f 	vqrdmulh<und>.s<illegal width 64>	q13, <illegal reg q7.5>, d31[0]
20003921:	64ff      	str<und>	r7, [r7, #76]	; 0x4c
20003923:	12b4      	asral	r4, r6, #10
20003925:	bfaa      	itet	ge
20003927:	d7fd      	bvc.n	20003925 <screen+0xcc4>	; unpredictable <IT:ge>
20003929:	bd5f      	poplt	{r0, r1, r2, r3, r4, r6, pc}
2000392b:	dfff      	svcge	255	; 0xff
2000392d:	fddf 757f 	ldc2l	5, cr7, [pc, #508]	; 20003b2c <screen+0xecb>
20003931:	fe7e efe9 	cdp2	15, 7, cr14, cr14, cr9, {7}
20003935:	feff ddfe 	mrc2	13, 7, sp, cr15, cr14, {7}
20003939:	addf      	add	r5, sp, #892	; 0x37c
2000393b:	fff7 bfff 			; <UNDEFINED> instruction: 0xfff7bfff
2000393f:	fbff 7bfb 			; <UNDEFINED> instruction: 0xfbff7bfb
20003943:	7fef      	ldrb	r7, [r5, #31]
20003945:	c0fb      	stmia	r0!, {r0, r1, r3, r4, r5, r6, r7}
20003947:	2100      	movs	r1, #0
20003949:	ff75 f6ba 	vmin.u<illegal width 64>	d31, d21, d26
2000394d:	f7ab b56a 	b.w	1fbaf425 <__etext+0x1fb8e7c5>
20003951:	d6fd      	bvs.n	2000394f <screen+0xcee>
20003953:	aad7      	add	r2, sp, #860	; 0x35c
20003955:	88f0      	ldrh	r0, [r6, #6]
20003957:	f70a edfe 	blx	1ff0e555 <__etext+0x1feed8f5>
2000395b:	ebea ff5f 			; <UNDEFINED> instruction: 0xebeaff5f
2000395f:	afff      	add	r7, sp, #1020	; 0x3fc
20003961:	afad      	add	r7, sp, #692	; 0x2b4
20003963:	7fdb      	ldrb	r3, [r3, #31]
20003965:	bff6      	itet	<und>
20003967:	d7fe      	bvc.n	20003967 <screen+0xd06>	; unpredictable <IT:<und>>
20003969:	f75b fffd 	blal	1ff5f967 <__etext+0x1ff3ed07>	; unpredictable branch in IT block

2000396d:	ffbf ffff 			; <UNDEFINED> instruction: 0xffbfffff
20003971:	b6f5      			; <UNDEFINED> instruction: 0xb6f5
20003973:	efef efbf 			; <UNDEFINED> instruction: 0xefefefbf
20003977:	c0ff      	stmia	r0!, {r0, r1, r2, r3, r4, r5, r6, r7}
20003979:	0000      	movs	r0, r0
2000397b:	febe 9efe 	mrc2	14, 5, r9, cr14, cr14, {7}
2000397f:	6dad      	ldr	r5, [r5, #88]	; 0x58
20003981:	ffff 6bb7 			; <UNDEFINED> instruction: 0xffff6bb7
20003985:	697b      	ldr	r3, [r7, #20]
20003987:	04f4      	lsls	r4, r6, #19
20003989:	5da5      	ldrb	r5, [r4, r6]
2000398b:	5fff      	ldrsh	r7, [r7, r7]
2000398d:	bd7f      	pop	{r0, r1, r2, r3, r4, r5, r6, pc}
2000398f:	fffe fafa 			; <UNDEFINED> instruction: 0xfffefafa
20003993:	faf7 bfed 			; <UNDEFINED> instruction: 0xfaf7bfed
20003997:	abbd      	add	r3, sp, #756	; 0x2f4
20003999:	fbff 7fef 			; <UNDEFINED> instruction: 0xfbff7fef
2000399d:	56b7      	ldrsb	r7, [r6, r2]
2000399f:	ffff ffff 			; <UNDEFINED> instruction: 0xffffffff
200039a3:	dfff      	svc	255	; 0xff
200039a5:	ff7f ffff 	vminnm.f<illegal width 64>	<illegal reg q15.5>, <illegal reg q15.5>, <illegal reg q15.5>
200039a9:	80bf      	strh	r7, [r7, #4]
200039ab:	0400      	lsls	r0, r0, #16
200039ad:	6f5f      	ldr	r7, [r3, #116]	; 0x74
200039af:	ebf5 bf77 			; <UNDEFINED> instruction: 0xebf5bf77
200039b3:	6db5      	ldr	r5, [r6, #88]	; 0x58
200039b5:	b5ff      	push	{r0, r1, r2, r3, r4, r5, r6, r7, lr}
200039b7:	b7df      			; <UNDEFINED> instruction: 0xb7df
200039b9:	a2e0      	add	r2, pc, #896	; (adr r2, 20003d3c <screen+0x10db>)
200039bb:	ff15 ea7f 	vpmin.u16	q7, <illegal reg q2.5>, <illegal reg q15.5>
200039bf:	d7d5      	bvc.n	2000396d <screen+0xd0c>
200039c1:	fe5f dfdf 	mrc2	15, 2, sp, cr15, cr15, {6}
200039c5:	575d      	ldrsb	r5, [r3, r5]
200039c7:	ee5f dffe 	mrc	15, 2, sp, cr15, cr14, {7}
200039cb:	5e7f      	ldrsh	r7, [r7, r1]
200039cd:	dabb      	bge.n	20003947 <screen+0xce6>
200039cf:	ffff f7ff 	vqshl.u64	<illegal reg q15.5>, <illegal reg q15.5>, #63	; 0x3f
200039d3:	feff fbde 	mrc2	11, 7, pc, cr15, cr14, {6}
200039d7:	ffbf fb7f 			; <UNDEFINED> instruction: 0xffbffb7f
200039db:	84f7      	strh	r7, [r6, #38]	; 0x26
200039dd:	0190      	lsls	r0, r2, #6
200039df:	bf17      	itett	ne
200039e1:	a9fe      	addne	r1, sp, #1016	; 0x3f8
200039e3:	6aad      	ldreq	r5, [r5, #40]	; 0x28
200039e5:	feff d7aa 	cdp2ne	7, 15, cr13, cr15, cr10, {5}
200039e9:	ef75 08d4 	vtstne.<illegal width 64>	q8, <illegal reg q10.5>, q2
200039ed:	ab95      	add	r3, sp, #596	; 0x254
200039ef:	7fdf      	ldrb	r7, [r3, #31]
200039f1:	fbbe dbef 			; <UNDEFINED> instruction: 0xfbbedbef
200039f5:	eaf6 edff 			; <UNDEFINED> instruction: 0xeaf6edff
200039f9:	ff6b 6bf7 	vqrdmlah.s32	q11, <illegal reg q13.5>, <illegal reg q11.5>
200039fd:	f7ff 7f57 			; <UNDEFINED> instruction: 0xf7ff7f57
20003a01:	adee      	add	r5, sp, #952	; 0x3b8
20003a03:	ffff ffee 	vqrdmlsh.s<illegal width 64>	<illegal reg q15.5>, <illegal reg q15.5>, d30[0]
20003a07:	eeff ffef 	cdp	15, 15, cr15, cr15, cr15, {7}
20003a0b:	dffb      	svc	251	; 0xfb
20003a0d:	b6ff      			; <UNDEFINED> instruction: 0xb6ff
20003a0f:	00aa      	lsls	r2, r5, #2
20003a11:	ff5e 56f5 	vmin.u16	<illegal reg q10.5>, q15, <illegal reg q10.5>
20003a15:	b755      			; <UNDEFINED> instruction: 0xb755
20003a17:	b75a      			; <UNDEFINED> instruction: 0xb75a
20003a19:	aaff      	add	r2, sp, #1020	; 0x3fc
20003a1b:	76df      	strb	r7, [r3, #27]
20003a1d:	22e8      	movs	r2, #232	; 0xe8
20003a1f:	fd4b d57b 	stc2l	5, cr13, [fp, #-492]	; 0xfffffe14
20003a23:	ad6b      	add	r5, sp, #428	; 0x1ac
20003a25:	ff7f bfbd 	vminnm.f<illegal width 64>	d27, d31, d29
20003a29:	5ad5      	ldrh	r5, [r2, r3]
20003a2b:	ffbf aefd 			; <UNDEFINED> instruction: 0xffbfaefd
20003a2f:	bbff      	cbnz	r7, 20003ab1 <screen+0xe50>
20003a31:	ebfd ffbf 			; <UNDEFINED> instruction: 0xebfdffbf
20003a35:	ffff ffff 			; <UNDEFINED> instruction: 0xffffffff
20003a39:	7fff      	ldrb	r7, [r7, #31]
20003a3b:	b7fb      			; <UNDEFINED> instruction: 0xb7fb
20003a3d:	ffef a9df 			; <UNDEFINED> instruction: 0xffefa9df
20003a41:	a055      	add	r0, pc, #340	; (adr r0, 20003b98 <screen+0xf37>)
20003a43:	df27      	svc	39	; 0x27
20003a45:	55bf      	strb	r7, [r7, r6]
20003a47:	5a55      	ldrh	r5, [r2, r1]
20003a49:	faff d7aa 			; <UNDEFINED> instruction: 0xfaffd7aa
20003a4d:	ddf5      	ble.n	20003a3b <screen+0xdda>
20003a4f:	88a4      	ldrh	r4, [r4, #4]
20003a51:	af2e      	add	r7, sp, #184	; 0xb8
20003a53:	fbdf f7fe 			; <UNDEFINED> instruction: 0xfbdff7fe
20003a57:	feaf eaeb 	cdp2	10, 10, cr14, cr15, cr11, {7}
20003a5b:	6dbf      	ldr	r7, [r7, #88]	; 0x58
20003a5d:	dddd      	ble.n	20003a1b <screen+0xdba>
20003a5f:	f7ff edff 			; <UNDEFINED> instruction: 0xf7ffedff
20003a63:	be56      	bkpt	0x0056
20003a65:	fbf7 ffbf 			; <UNDEFINED> instruction: 0xfbf7ffbf
20003a69:	b7ff      			; <UNDEFINED> instruction: 0xb7ff
20003a6b:	fbff ffbf 			; <UNDEFINED> instruction: 0xfbffffbf
20003a6f:	ffbf aafd 			; <UNDEFINED> instruction: 0xffbfaafd
20003a73:	a092      	add	r0, pc, #584	; (adr r0, 20003cbc <screen+0x105b>)
20003a75:	f717 b5fd 	b.w	1fb1b673 <__etext+0x1fafaa13>
20003a79:	a554      	add	r5, pc, #336	; (adr r5, 20003bcc <screen+0xf6b>)
20003a7b:	af56      	add	r7, sp, #344	; 0x158
20003a7d:	4aff      	ldr	r2, [pc, #1020]	; (20003e7c <screen+0x121b>)
20003a7f:	f7af 02d2 			; <UNDEFINED> instruction: 0xf7af02d2
20003a83:	f59f fe77 	bl	1fda3775 <__etext+0x1fd82b15>
20003a87:	bdab      	pop	{r0, r1, r3, r5, r7, pc}
20003a89:	7bfb      	ldrb	r3, [r7, #15]
20003a8b:	7fb7      	ldrb	r7, [r6, #30]
20003a8d:	b6f5      			; <UNDEFINED> instruction: 0xb6f5
20003a8f:	7f7f      	ldrb	r7, [r7, #29]
20003a91:	adaf      	add	r5, sp, #700	; 0x2bc
20003a93:	7fff      	ldrb	r7, [r7, #31]
20003a95:	fbfb bfdd 			; <UNDEFINED> instruction: 0xfbfbbfdd
20003a99:	ffff faba 			; <UNDEFINED> instruction: 0xfffffaba
20003a9d:	ffbf dff5 			; <UNDEFINED> instruction: 0xffbfdff5
20003aa1:	f7ff 49ff 			; <UNDEFINED> instruction: 0xf7ff49ff
20003aa5:	5c29      	ldrb	r1, [r5, r0]
20003aa7:	bf4b      	itete	mi
20003aa9:	6dfd      	ldrmi	r5, [r7, #92]	; 0x5c
20003aab:	55ab      	strbpl	r3, [r5, r6]
20003aad:	f65b aeaa 	bls.w	1ffdf805 <__etext+0x1ffbeba5>	; unpredictable <IT:mi>
20003ab1:	adfe      	addpl	r5, sp, #1016	; 0x3f8
20003ab3:	5469      	strb	r1, [r5, r1]
20003ab5:	bf5a      	itte	pl
20003ab7:	fbad effe 			; <UNDEFINED> instruction: 0xfbadeffe
20003abb:	ee6f aadf 	mcrpl	10, 3, sl, cr15, cr15, {6}
20003abf:	5faf      	ldrshmi	r7, [r5, r6]
20003ac1:	ffff faeb 	vtbx.8	d31, {d31-<overflow reg d33}, d27
20003ac5:	eaff 5fad 			; <UNDEFINED> instruction: 0xeaff5fad
20003ac9:	ff7f feff 	vacgt.f<illegal width 64>	<illegal reg q15.5>, <illegal reg q15.5>, <illegal reg q15.5>
20003acd:	dfff      	svc	255	; 0xff
20003acf:	ddd5      	ble.n	20003a7d <screen+0xe1c>
20003ad1:	7fff      	ldrb	r7, [r7, #31]
20003ad3:	dfff      	svc	255	; 0xff
20003ad5:	24ef      	movs	r4, #239	; 0xef
20003ad7:	0544      	lsls	r4, r0, #21
20003ad9:	ed0b 5bff 	vstr	d5, [fp, #-1020]	; 0xfffffc04
20003add:	5575      	strb	r5, [r6, r5]
20003adf:	af2d      	add	r7, sp, #180	; 0xb4
20003ae1:	5b7d      	ldrh	r5, [r7, r5]
20003ae3:	ff55 a1b4 	vbsl	d26, d21, d20
20003ae7:	ea3f 7efb 	bics.w	lr, pc, fp, ror #31
20003aeb:	bbab      	cbnz	r3, 20003b59 <screen+0xef8>
20003aed:	ffbf effd 			; <UNDEFINED> instruction: 0xffbfeffd
20003af1:	ebfd 7ffb 			; <UNDEFINED> instruction: 0xebfd7ffb
20003af5:	bd74      	pop	{r2, r4, r5, r6, pc}
20003af7:	ffbf 6dff 			; <UNDEFINED> instruction: 0xffbf6dff
20003afb:	ffd7 dfff 			; <UNDEFINED> instruction: 0xffd7dfff
20003aff:	76f7      	strb	r7, [r6, #27]
20003b01:	bfee      	itee	al
20003b03:	ef5f fffb 	vrecpsal.f<illegal width 64>	<illegal reg q15.5>, <illegal reg q15.5>, <illegal reg q13.5>
20003b07:	91fe      	str<und>	r1, [sp, #1016]	; 0x3f8
20003b09:	5201      	strh<und>	r1, [r0, r0]
20003b0b:	bfa7      	ittee	ge
20003b0d:	aefd      	addge	r6, sp, #1012	; 0x3f4
20003b0f:	6cdf      	ldrge	r7, [r3, #76]	; 0x4c
20003b11:	7aa5      	ldrblt	r5, [r4, #10]
20003b13:	5fdf      	ldrshlt	r7, [r3, r7]
20003b15:	6aaf      	ldr	r7, [r5, #40]	; 0x28
20003b17:	2ad5      	cmp	r2, #213	; 0xd5
20003b19:	7f55      	ldrb	r5, [r2, #29]
20003b1b:	df56      	svc	86	; 0x56
20003b1d:	eefe f5fb 	mrc	5, 7, APSR_nzcv, cr14, cr11, {7}
20003b21:	bdb6      	pop	{r1, r2, r4, r5, r7, pc}
20003b23:	377f      	adds	r7, #127	; 0x7f
20003b25:	dffe      	svc	254	; 0xfe
20003b27:	b6fe      			; <UNDEFINED> instruction: 0xb6fe
20003b29:	edef bf55 	stcl	15, cr11, [pc, #340]!	; 20003c80 <screen+0x101f>
20003b2d:	ed7d 7bff 	fldmdbx	sp!, {d23-d149}	;@ Deprecated
20003b31:	dfdd      	svc	221	; 0xdd
20003b33:	ebbb bbff 			; <UNDEFINED> instruction: 0xebbbbbff
20003b37:	ffff 04fe 	vsri.64	q8, q15, #1
20003b3b:	0028      	movs	r0, r5
20003b3d:	fda2 e9ff 	stc2	9, cr14, [r2, #1020]!	; 0x3fc
20003b41:	f6f7 d796 	bl	1f2fba71 <__etext+0x1f2dae11>
20003b45:	f67a dfda 	bl	1f67eafd <__etext+0x1f65de9d>
20003b49:	95fa      	str	r5, [sp, #1000]	; 0x3e8
20003b4b:	d57f      	bpl.n	20003c4d <screen+0xfec>
20003b4d:	5fd5      	ldrsh	r5, [r2, r7]
20003b4f:	bf57      	itett	pl
20003b51:	bfef      	iteee	al	; unpredictable <IT:pl>
20003b53:	ffff dfed 	vqrdmlshal.s<illegal width 64>	<illegal reg q14.5>, <illegal reg q15.5>, d29[0]
20003b57:	fdd7 55d7 	ldc2l<und>	5, cr5, [r7, #860]	; 0x35c
20003b5b:	7fbf      	ldrb<und>	r7, [r7, #30]
20003b5d:	ebfe bfef 			; <UNDEFINED> instruction: 0xebfebfef
20003b61:	ffff f5fe 	vsli.64	<illegal reg q15.5>, q15, #63	; 0x3f
20003b65:	bfff      	itttt	<und>
20003b67:	eedb f7f7 	mrc<und>	7, 6, APSR_nzcv, cr11, cr7, {7}
20003b6b:	a1dc      	add<und>	r1, pc, #880	; (adr r1, 20003edc <screen+0x127b>)
20003b6d:	4a02      	ldr<und>	r2, [pc, #8]	; (20003b78 <screen+0xf17>)
20003b6f:	ef1d fdff 	vmla<und>.f<illegal width 64>	<illegal reg q7.5>, <illegal reg q14.5>, <illegal reg q15.5>
20003b73:	dd1a      	ble.n	20003bab <screen+0xf4a>
20003b75:	6fab      	ldr	r3, [r5, #120]	; 0x78
20003b77:	dfef      	svc	239	; 0xef
20003b79:	7d6b      	ldrb	r3, [r5, #21]
20003b7b:	49ad      	ldr	r1, [pc, #692]	; (20003e30 <screen+0x11cf>)
20003b7d:	beed      	bkpt	0x00ed
20003b7f:	a548      	add	r5, pc, #288	; (adr r5, 20003ca0 <screen+0x103f>)
20003b81:	fbfa ee7f 			; <UNDEFINED> instruction: 0xfbfaee7f
20003b85:	6aab      	ldr	r3, [r5, #40]	; 0x28
20003b87:	5fbb      	ldrsh	r3, [r7, r6]
20003b89:	ffea d6fa 	vqshlu.s64	<illegal reg q14.5>, q13, #42	; 0x2a
20003b8d:	fbf7 bd6b 			; <UNDEFINED> instruction: 0xfbf7bd6b
20003b91:	ffbb ffff 			; <UNDEFINED> instruction: 0xffbbffff
20003b95:	bf6b      	itete	vs
20003b97:	f55d ff7f 	blvs	1fd61a99 <__etext+0x1fd40e39>	; unpredictable branch in IT block

20003b9b:	7ddf      	ldrbvc	r7, [r3, #23]
20003b9d:	14fd      	asrvs	r5, r7, #19
20003b9f:	2048      	movvc	r0, #72	; 0x48
20003ba1:	ffa6 6f7b 	vcvt.u32.f32	q3, <illegal reg q13.5>, #26
20003ba5:	bfd5      	itete	le
20003ba7:	da6a      	bge.n	20003c7f <screen+0x101e>	; unpredictable <IT:le>
20003ba9:	abbe      	addgt	r3, sp, #760	; 0x2f8
20003bab:	6fb5      	ldrle	r5, [r6, #120]	; 0x78
20003bad:	a5fa      	addgt	r5, pc, #1000	; (adr r5, 20003f98 <screen+0x1337>)
20003baf:	ea7f 13a2 	mvns.w	r3, r2, asr #6
20003bb3:	efef fdfe 			; <UNDEFINED> instruction: 0xefeffdfe
20003bb7:	bffe      	ittt	<und>
20003bb9:	6ddd      	ldr<und>	r5, [r3, #92]	; 0x5c
20003bbb:	ef3f ea6d 	vpmax<und>.s<illegal width 64>	q7, <illegal reg q7.5>, <illegal reg q14.5>
20003bbf:	ffdf ebfe 			; <UNDEFINED> instruction: 0xffdfebfe
20003bc3:	ffef fdfb 			; <UNDEFINED> instruction: 0xffeffdfb
20003bc7:	6dff      	ldr	r7, [r7, #92]	; 0x5c
20003bc9:	7ff7      	ldrb	r7, [r6, #31]
20003bcb:	f6ed f7fd 	bl	1faf1bc9 <__etext+0x1fad0f69>
20003bcf:	40f8      	lsrs	r0, r7
20003bd1:	0211      	lsls	r1, r2, #8
20003bd3:	dd15      	ble.n	20003c01 <screen+0xfa0>
20003bd5:	fdff ebfa 	ldc2l	11, cr14, [pc, #1000]!	; 20003fc0 <screen+0x135f>
20003bd9:	efdb 75f9 	vshl.s64	<illegal reg q11.5>, <illegal reg q12.5>, #27
20003bdd:	5555      	strb	r5, [r2, r5]
20003bdf:	2bbf      	cmp	r3, #191	; 0xbf
20003be1:	7ad5      	ldrb	r5, [r2, #11]
20003be3:	4411      	add	r1, r2
20003be5:	7ff5      	ldrb	r5, [r6, #31]
20003be7:	dbff      	blt.n	20003be9 <screen+0xf88>
20003be9:	eab7 bfab 			; <UNDEFINED> instruction: 0xeab7bfab
20003bed:	7dab      	ldrb	r3, [r5, #22]
20003bef:	b5fa      	push	{r1, r3, r4, r5, r6, r7, lr}
20003bf1:	edff beb7 	ldcl	14, cr11, [pc, #732]!	; 20003ed0 <screen+0x126f>
20003bf5:	ffbf f7ff 	vqshl.u64	<illegal reg q7.5>, <illegal reg q15.5>, #63	; 0x3f
20003bf9:	fffb dfbb 			; <UNDEFINED> instruction: 0xfffbdfbb
20003bfd:	7fbf      	ldrb	r7, [r7, #30]
20003bff:	efff 09ed 	vext.8	q8, <illegal reg q15.5>, <illegal reg q14.5>, #9
20003c03:	4842      	ldr	r0, [pc, #264]	; (20003d0c <screen+0x10ab>)
20003c05:	7f4b      	ldrb	r3, [r1, #29]
20003c07:	f7fa be6f 	b.w	1fffe8e9 <__etext+0x1ffddc89>
20003c0b:	7ff5      	ldrb	r5, [r6, #31]
20003c0d:	dad6      	bge.n	20003bbd <screen+0xf5c>
20003c0f:	baaa      	hlt	0x002a
20003c11:	a7d5      	add	r7, pc, #852	; (adr r7, 20003f68 <screen+0x1307>)
20003c13:	d5ff      	bpl.n	20003c15 <screen+0xfb4>
20003c15:	0844      	lsrs	r4, r0, #1
20003c17:	dd3f      	ble.n	20003c99 <screen+0x1038>
20003c19:	fedb bfed 	cdp2	15, 13, cr11, cr11, cr13, {7}
20003c1d:	6afd      	ldr	r5, [r7, #44]	; 0x2c
20003c1f:	ff5f 5ead 	vcge.f<illegal width 64>	d21, d31, d29
20003c23:	ffbf ebfd 			; <UNDEFINED> instruction: 0xffbfebfd
20003c27:	7ffb      	ldrb	r3, [r7, #31]
20003c29:	dfff      	svc	255	; 0xff
20003c2b:	f6de fbef 	bl	1fee240d <__etext+0x1fec17ad>
20003c2f:	fff7 bd7b 			; <UNDEFINED> instruction: 0xfff7bd7b
20003c33:	42f8      	cmn	r0, r7
20003c35:	0008      	movs	r0, r1
20003c37:	ef25 2fff 	vrsqrts.f32	q1, <illegal reg q10.5>, <illegal reg q15.5>
20003c3b:	ebdf dbbe 			; <UNDEFINED> instruction: 0xebdfdbbe
20003c3f:	a572      	add	r5, pc, #456	; (adr r5, 20003e08 <screen+0x11a7>)
20003c41:	4f49      	ldr	r7, [pc, #292]	; (20003d68 <screen+0x1107>)
20003c43:	5e7b      	ldrsh	r3, [r7, r1]
20003c45:	e8ff 2280 	ldrd	r2, r2, [pc], #512	; 20003e48 <screen+0x11e7>	; 0x200
20003c49:	7fbd      	ldrb	r5, [r7, #30]
20003c4b:	57ff      	ldrsb	r7, [r7, r7]
20003c4d:	eabf dfda 			; <UNDEFINED> instruction: 0xeabfdfda
20003c51:	b66f      			; <UNDEFINED> instruction: 0xb66f
20003c53:	b5f6      	push	{r1, r2, r4, r5, r6, r7, lr}
20003c55:	ffff 7e6f 	vqrdmlah.s<illegal width 64>	<illegal reg q11.5>, <illegal reg q7.5>, d31[0]
20003c59:	ffdf ffff 			; <UNDEFINED> instruction: 0xffdfffff
20003c5d:	bbf7      	cbnz	r7, 20003cdd <screen+0x107c>
20003c5f:	6ffd      	ldr	r5, [r7, #124]	; 0x7c
20003c61:	b77f      			; <UNDEFINED> instruction: 0xb77f
20003c63:	efdf 28ba 			; <UNDEFINED> instruction: 0xefdf28ba
20003c67:	4942      	ldr	r1, [pc, #264]	; (20003d70 <screen+0x110f>)
20003c69:	ff16 b1fd 	vbsl	<illegal reg q5.5>, q11, <illegal reg q14.5>
20003c6d:	bd7a      	pop	{r1, r3, r4, r5, r6, pc}
20003c6f:	7feb      	ldrb	r3, [r5, #31]
20003c71:	04c8      	lsls	r0, r1, #19
20003c73:	f5aa afad 	bvs.w	1ffeebd1 <__etext+0x1ffcdf71>
20003c77:	a5ff      	add	r5, pc, #1020	; (adr r5, 20004074 <screen+0x1413>)
20003c79:	0011      	movs	r1, r2
20003c7b:	ff0f fdfe 	vmul.f32	<illegal reg q7.5>, <illegal reg q15.5>, q15
20003c7f:	bdf6      	pop	{r1, r2, r4, r5, r6, r7, pc}
20003c81:	ba6d      	rev16	r5, r5
20003c83:	ffbb ad5a 			; <UNDEFINED> instruction: 0xffbbad5a
20003c87:	f75d dbff 	bl	1f761489 <__etext+0x1f740829>
20003c8b:	ff7f fffe 	vminnm.f<illegal width 64>	<illegal reg q15.5>, <illegal reg q15.5>, q15
20003c8f:	ef7e ff5b 	vrsqrts.f<illegal width 64>	<illegal reg q15.5>, q7, <illegal reg q5.5>
20003c93:	fffe bbfd 			; <UNDEFINED> instruction: 0xfffebbfd
20003c97:	02f1      	lsls	r1, r6, #11
20003c99:	0028      	movs	r0, r5
20003c9b:	b78a      			; <UNDEFINED> instruction: 0xb78a
20003c9d:	5dfd      	ldrb	r5, [r7, r7]
20003c9f:	f74f ef5f 			; <UNDEFINED> instruction: 0xf74fef5f
20003ca3:	5552      	strb	r2, [r2, r5]
20003ca5:	1a55      	subs	r5, r2, r1
20003ca7:	ffea a8aa 	vmlal.u32	q13, d26, d26
20003cab:	1440      	asrs	r0, r0, #17
20003cad:	efae d6f7 			; <UNDEFINED> instruction: 0xefaed6f7
20003cb1:	55bb      	strb	r3, [r7, r6]
20003cb3:	dfaa      	svc	170	; 0xaa
20003cb5:	554f      	strb	r7, [r1, r5]
20003cb7:	afd6      	add	r7, sp, #856	; 0x358
20003cb9:	ffef fffb 			; <UNDEFINED> instruction: 0xffeffffb
20003cbd:	efef fffb 			; <UNDEFINED> instruction: 0xefeffffb
20003cc1:	bdeb      	pop	{r0, r1, r3, r5, r6, r7, pc}
20003cc3:	bdff      	pop	{r0, r1, r2, r3, r4, r5, r6, r7, pc}
20003cc5:	feff eeff 	mrc2	14, 7, lr, cr15, cr15, {7}
20003cc9:	a9f4      	add	r1, sp, #976	; 0x3d0
20003ccb:	4a02      	ldr	r2, [pc, #8]	; (20003cd4 <screen+0x1073>)
20003ccd:	df25      	svc	37	; 0x25
20003ccf:	d6fe      	bvs.n	20003ccf <screen+0x106e>
20003cd1:	5da0      	ldrb	r0, [r4, r6]
20003cd3:	7bea      	ldrb	r2, [r5, #15]
20003cd5:	2a80      	cmp	r2, #128	; 0x80
20003cd7:	cdaa      	ldmia	r5, {r1, r3, r5, r7}
20003cd9:	55bf      	strb	r7, [r7, r6]
20003cdb:	aafb      	add	r2, sp, #1004	; 0x3ec
20003cdd:	4088      	lsls	r0, r1
20003cdf:	bf03      	ittte	eq
20003ce1:	ffdd 6ad5 			; <UNDEFINED> instruction: 0xffdd6ad5
20003ce5:	5555      	strbeq	r5, [r2, r5]
20003ce7:	f63d 55ab 			; <UNDEFINED> instruction: 0xf63d55ab
20003ceb:	ee7f 6ddf 	mrcne	13, 3, r6, cr15, cr15, {6}
20003cef:	bfbf      	itttt	lt
20003cf1:	feef f7de 	mcr2lt	7, 7, pc, cr15, cr14, {6}	; <UNPREDICTABLE>
20003cf5:	efad ffdf 			; <UNDEFINED> instruction: 0xefadffdf
20003cf9:	bbee      	cbnz	r6, 20003d77 <screen+0x1116>	; unpredictable <IT:lt>
20003cfb:	04e2      	lsllt	r2, r4, #19
20003cfd:	10a8      	asrs	r0, r5, #2
20003cff:	7512      	strb	r2, [r2, #20]
20003d01:	52fd      	strh	r5, [r7, r3]
20003d03:	56df      	ldrsb	r7, [r3, r3]
20003d05:	aeb5      	add	r6, sp, #724	; 0x2d4
20003d07:	76a9      	strb	r1, [r5, #26]
20003d09:	66d5      	str	r5, [r2, #108]	; 0x6c
20003d0b:	6ed5      	ldr	r5, [r2, #108]	; 0x6c
20003d0d:	a4ae      	add	r4, pc, #696	; (adr r4, 20003fc8 <screen+0x1367>)
20003d0f:	0422      	lsls	r2, r4, #16
20003d11:	ffab 5a7f 			; <UNDEFINED> instruction: 0xffab5a7f
20003d15:	aaad      	add	r2, sp, #692	; 0x2b4
20003d17:	5aa5      	ldrh	r5, [r4, r2]
20003d19:	daaf      	bge.n	20003c7b <screen+0x101a>
20003d1b:	afd9      	add	r7, sp, #868	; 0x364
20003d1d:	ebbf ffff 			; <UNDEFINED> instruction: 0xebbfffff
20003d21:	ffff fbff 			; <UNDEFINED> instruction: 0xfffffbff
20003d25:	bebb      	bkpt	0x00bb
20003d27:	7bff      	ldrb	r7, [r7, #15]
20003d29:	ff7f efff 	vminnm.f<illegal width 64>	q15, <illegal reg q15.5>, <illegal reg q15.5>
20003d2d:	52e9      	strh	r1, [r5, r3]
20003d2f:	4105      	asrs	r5, r0
20003d31:	bf49      	itett	mi
20003d33:	ae7f      	addmi	r6, sp, #508	; 0x1fc
20003d35:	aba9      	addpl	r3, sp, #676	; 0x2a4
20003d37:	5bdd      	ldrhmi	r5, [r3, r7]
20003d39:	da00      	bge.n	20003d3d <screen+0x10dc>	; unpredictable <IT:mi>
20003d3b:	b5b6      	push	{r1, r2, r4, r5, r7, lr}
20003d3d:	bbb5      	cbnz	r5, 20003dad <screen+0x114c>
20003d3f:	52d5      	strh	r5, [r2, r3]
20003d41:	2080      	movs	r0, #128	; 0x80
20003d43:	ff05 f6ff 	vmin.u8	<illegal reg q7.5>, <illegal reg q10.5>, <illegal reg q15.5>
20003d47:	d5d6      	bpl.n	20003cf7 <screen+0x1096>
20003d49:	a454      	add	r4, pc, #336	; (adr r4, 20003e9c <screen+0x123b>)
20003d4b:	b52d      	push	{r0, r2, r3, r5, lr}
20003d4d:	ea56 e5ef 			; <UNDEFINED> instruction: 0xea56e5ef
20003d51:	fbfd ff7d 			; <UNDEFINED> instruction: 0xfbfdff7d
20003d55:	feff f7fe 	mrc2	7, 7, pc, cr15, cr14, {7}
20003d59:	efed ffed 	vqrdmlsh.s32	d31, d29, d13[1]
20003d5d:	fdff 49d4 	ldc2l	9, cr4, [pc, #848]!	; 200040b0 <screen+0x144f>
20003d61:	0850      	lsrs	r0, r2, #1
20003d63:	ae04      	add	r6, sp, #16
20003d65:	d5fe      	bpl.n	20003d65 <screen+0x1104>
20003d67:	b4b6      	push	{r1, r2, r4, r5, r7}
20003d69:	5c6b      	ldrb	r3, [r5, r1]
20003d6b:	a595      	add	r5, pc, #596	; (adr r5, 20003fc0 <screen+0x135f>)
20003d6d:	5515      	strb	r5, [r2, r4]
20003d6f:	6edb      	ldr	r3, [r3, #108]	; 0x6c
20003d71:	88be      	ldrh	r6, [r7, #4]
20003d73:	0929      	lsrs	r1, r5, #4
20003d75:	f722 daf6 	bl	1f726365 <__etext+0x1f705705>
20003d79:	6abb      	ldr	r3, [r7, #40]	; 0x28
20003d7b:	0189      	lsls	r1, r1, #6
20003d7d:	ed2f 5f6a 	stc	15, cr5, [pc, #-424]!	; 20003bd8 <screen+0xf77>
20003d81:	f2fd df5f 	bl	20b01c43 <__stack+0xaf9c43>
20003d85:	fff7 d7ff 	vqshl.u64	<illegal reg q14.5>, <illegal reg q15.5>, #55	; 0x37
20003d89:	ffdb fdff 			; <UNDEFINED> instruction: 0xffdbfdff
20003d8d:	ffbf 57ff 	vqshl.u64	<illegal reg q2.5>, <illegal reg q15.5>, #63	; 0x3f
20003d91:	a4d2      	add	r4, pc, #840	; (adr r4, 200040dc <screen+0x147b>)
20003d93:	a24a      	add	r2, pc, #296	; (adr r2, 20003ebc <screen+0x125b>)
20003d95:	bf52      	itee	pl
20003d97:	6a7f      	ldrpl	r7, [r7, #36]	; 0x24
20003d99:	bb55      	cbnz	r5, 20003df1 <screen+0x1190>	; unpredictable <IT:mi>
20003d9b:	5a5d      	ldrhmi	r5, [r3, r1]
20003d9d:	a852      	add	r0, sp, #328	; 0x148
20003d9f:	d5aa      	bpl.n	20003cf7 <screen+0x1096>
20003da1:	bb7d      	cbnz	r5, 20003e03 <screen+0x11a2>
20003da3:	a5ea      	add	r5, pc, #936	; (adr r5, 2000414c <screen+0x14eb>)
20003da5:	8040      	strh	r0, [r0, #2]
20003da7:	7f14      	ldrb	r4, [r2, #28]
20003da9:	adff      	add	r5, sp, #1020	; 0x3fc
20003dab:	aadd      	add	r2, sp, #884	; 0x374
20003dad:	5442      	strb	r2, [r0, r1]
20003daf:	7605      	strb	r5, [r0, #24]
20003db1:	6bab      	ldr	r3, [r5, #56]	; 0x38
20003db3:	f877 ff9f 	ldr??.w	pc, [r7, #159]!
20003db7:	ffff 7bff 			; <UNDEFINED> instruction: 0xffff7bff
20003dbb:	d67f      	bvs.n	20003ebd <screen+0x125c>
20003dbd:	57ff      	ldrsb	r7, [r7, r7]
20003dbf:	ffff ffff 			; <UNDEFINED> instruction: 0xffffffff
20003dc3:	55ca      	strb	r2, [r1, r7]
20003dc5:	0820      	lsrs	r0, r4, #32
20003dc7:	5781      	ldrsb	r1, [r0, r6]
20003dc9:	aabf      	add	r2, sp, #764	; 0x2fc
20003dcb:	5695      	ldrsb	r5, [r2, r2]
20003dcd:	dab6      	bge.n	20003d3d <screen+0x10dc>
20003dcf:	9245      	str	r2, [sp, #276]	; 0x114
20003dd1:	aa02      	add	r2, sp, #8
20003dd3:	deea      	udf	#234	; 0xea
20003dd5:	10bd      	asrs	r5, r7, #2
20003dd7:	2a15      	cmp	r2, #21
20003dd9:	3f41      	subs	r7, #65	; 0x41
20003ddb:	76fb      	strb	r3, [r7, #27]
20003ddd:	48eb      	ldr	r0, [pc, #940]	; (2000418c <screen+0x152b>)
20003ddf:	0028      	movs	r0, r5
20003de1:	ab52      	add	r3, sp, #328	; 0x148
20003de3:	bd5a      	pop	{r1, r3, r4, r6, pc}
20003de5:	eaff ff47 			; <UNDEFINED> instruction: 0xeaffff47
20003de9:	ffdf effb 			; <UNDEFINED> instruction: 0xffdfeffb
20003ded:	ffeb fdb7 			; <UNDEFINED> instruction: 0xffebfdb7
20003df1:	ff6d fdff 			; <UNDEFINED> instruction: 0xff6dfdff
20003df5:	2aa9      	cmp	r2, #169	; 0xa9
20003df7:	a295      	add	r2, pc, #596	; (adr r2, 2000404c <screen+0x13eb>)
20003df9:	5d14      	ldrb	r4, [r2, r4]
20003dfb:	d5df      	bpl.n	20003dbd <screen+0x115c>
20003dfd:	ab4a      	add	r3, sp, #296	; 0x128
20003dff:	69ab      	ldr	r3, [r5, #24]
20003e01:	4856      	ldr	r0, [pc, #344]	; (20003f5c <screen+0x12fb>)
20003e03:	5690      	ldrsb	r0, [r2, r2]
20003e05:	57bf      	ldrsb	r7, [r7, r6]
20003e07:	4af5      	ldr	r2, [pc, #980]	; (200041dc <screen+0x157b>)
20003e09:	80a4      	strh	r4, [r4, #4]
20003e0b:	bf8a      	itet	hi
20003e0d:	dbde      	blt.n	20003dcd <screen+0x116c>	; unpredictable <IT:hi>
20003e0f:	225d      	movls	r2, #93	; 0x5d
20003e11:	2181      	movhi	r1, #129	; 0x81
20003e13:	5a05      	ldrh	r5, [r0, r0]
20003e15:	56ad      	ldrsb	r5, [r5, r2]
20003e17:	79ff      	ldrb	r7, [r7, #7]
20003e19:	7e21      	ldrb	r1, [r4, #24]
20003e1b:	ffff bdef 	vqrdmulh.s<illegal width 64>	<illegal reg q13.5>, <illegal reg q15.5>, d31[0]
20003e1f:	7d7f      	ldrb	r7, [r7, #21]
20003e21:	7ffd      	ldrb	r5, [r7, #31]
20003e23:	ffff ffff 			; <UNDEFINED> instruction: 0xffffffff
20003e27:	52d5      	strh	r5, [r2, r3]
20003e29:	11aa      	asrs	r2, r5, #6
20003e2b:	2b21      	cmp	r3, #33	; 0x21
20003e2d:	edff 2a51 	ldcl	10, cr2, [pc, #324]!	; 20003f74 <screen+0x1313>
20003e31:	aad5      	add	r2, sp, #852	; 0x354
20003e33:	55a9      	strb	r1, [r5, r6]
20003e35:	1504      	asrs	r4, r0, #20
20003e37:	7a57      	ldrb	r7, [r2, #9]
20003e39:	41da      	rors	r2, r3
20003e3b:	5a12      	ldrh	r2, [r2, r0]
20003e3d:	1f20      	subs	r0, r4, #4
20003e3f:	eafb 90aa 			; <UNDEFINED> instruction: 0xeafb90aa
20003e43:	0404      	lsls	r4, r0, #16
20003e45:	aa08      	add	r2, sp, #32
20003e47:	afab      	add	r7, sp, #684	; 0x2ac
20003e49:	fabb fb94 			; <UNDEFINED> instruction: 0xfabbfb94
20003e4d:	ffff f7ff 	vqshl.u64	<illegal reg q15.5>, <illegal reg q15.5>, #63	; 0x3f
20003e51:	afef      	add	r7, sp, #956	; 0x3bc
20003e53:	efdf ffff 			; <UNDEFINED> instruction: 0xefdfffff
20003e57:	fbff aaaa 			; <UNDEFINED> instruction: 0xfbffaaaa
20003e5b:	4aa9      	ldr	r2, [pc, #676]	; (20004100 <screen+0x149f>)
20003e5d:	ad08      	add	r5, sp, #32
20003e5f:	756f      	strb	r7, [r5, #21]
20003e61:	954c      	str	r5, [sp, #304]	; 0x130
20003e63:	6b55      	ldr	r5, [r2, #52]	; 0x34
20003e65:	b456      	push	{r1, r2, r4, r6}
20003e67:	8252      	strh	r2, [r2, #18]
20003e69:	afbb      	add	r7, sp, #748	; 0x2ec
20003e6b:	2aed      	cmp	r2, #237	; 0xed
20003e6d:	81a8      	strh	r0, [r5, #12]
20003e6f:	4f05      	ldr	r7, [pc, #20]	; (20003e84 <screen+0x1223>)
20003e71:	abfe      	add	r3, sp, #1016	; 0x3f8
20003e73:	4a75      	ldr	r2, [pc, #468]	; (20004048 <screen+0x13e7>)
20003e75:	9040      	str	r0, [sp, #256]	; 0x100
20003e77:	0a22      	lsrs	r2, r4, #8
20003e79:	deae      	udf	#174	; 0xae
20003e7b:	f9ff 2f4a 	ldr??.w	r2, [pc, #3914]	; 20004dc6 <screen+0x2165>
20003e7f:	ffff fffe 			; <UNDEFINED> instruction: 0xfffffffe
20003e83:	fbdb ff77 			; <UNDEFINED> instruction: 0xfbdbff77
20003e87:	ffff fffe 			; <UNDEFINED> instruction: 0xfffffffe
20003e8b:	adaa      	add	r5, sp, #680	; 0x2a8
20003e8d:	5455      	strb	r5, [r2, r1]
20003e8f:	2fa5      	cmp	r7, #165	; 0xa5
20003e91:	fabf 40a2 			; <UNDEFINED> instruction: 0xfabf40a2
20003e95:	adaa      	add	r5, sp, #680	; 0x2a8
20003e97:	ea2a 41a8 	bic.w	r1, sl, r8, asr #18
20003e9b:	dd5d      	ble.n	20003f59 <screen+0x12f8>
20003e9d:	8974      	ldrh	r4, [r6, #10]
20003e9f:	2802      	cmp	r0, #2
20003ea1:	5790      	ldrsb	r0, [r2, r6]
20003ea3:	5aef      	ldrh	r7, [r5, r3]
20003ea5:	20aa      	movs	r0, #170	; 0xaa
20003ea7:	0012      	movs	r2, r2
20003ea9:	4581      	cmp	r9, r0
20003eab:	7753      	strb	r3, [r2, #29]
20003ead:	eebf 5f21 	cdp	15, 11, cr5, cr15, cr1, {1}
20003eb1:	ffff ddff 			; <UNDEFINED> instruction: 0xffffddff
20003eb5:	fffe 7fdf 			; <UNDEFINED> instruction: 0xfffe7fdf
20003eb9:	ffff ffff 			; <UNDEFINED> instruction: 0xffffffff
20003ebd:	d5b5      	bpl.n	20003e2b <screen+0x11ca>
20003ebf:	2242      	movs	r2, #66	; 0x42
20003ec1:	9da0      	ldr	r5, [sp, #640]	; 0x280
20003ec3:	ed6f b62a 	stcl	6, cr11, [pc, #-168]!	; 20003e1c <screen+0x11bb>
20003ec7:	b555      	push	{r0, r2, r4, r6, lr}
20003ec9:	555b      	strb	r3, [r3, r5]
20003ecb:	2855      	cmp	r0, #85	; 0x55
20003ecd:	77ab      	strb	r3, [r5, #30]
20003ecf:	54aa      	strb	r2, [r5, r2]
20003ed1:	84a8      	strh	r0, [r5, #36]	; 0x24
20003ed3:	9742      	str	r7, [sp, #264]	; 0x108
20003ed5:	adba      	add	r5, sp, #744	; 0x2e8
20003ed7:	89aa      	ldrh	r2, [r5, #12]
20003ed9:	0200      	lsls	r0, r0, #8
20003edb:	5204      	strh	r4, [r0, r0]
20003edd:	ddad      	ble.n	20003e3b <screen+0x11da>
20003edf:	fdee 0f55 	stc2l	15, cr0, [lr, #340]!	; 0x154
20003ee3:	ffff fffb 			; <UNDEFINED> instruction: 0xfffffffb
20003ee7:	ddbf      	ble.n	20003e69 <screen+0x1208>
20003ee9:	ffff ffff 			; <UNDEFINED> instruction: 0xffffffff
20003eed:	ffff a9d6 			; <UNDEFINED> instruction: 0xffffa9d6
20003ef1:	9528      	str	r5, [sp, #160]	; 0xa0
20003ef3:	572d      	ldrsb	r5, [r5, r4]
20003ef5:	fffa 48aa 	vtbl.8	d20, {d26}, d26
20003ef9:	aa94      	add	r2, sp, #592	; 0x250
20003efb:	daaa      	bge.n	20003e53 <screen+0x11f2>
20003efd:	92a5      	str	r2, [sp, #660]	; 0x294
20003eff:	dd4f      	ble.n	20003fa1 <screen+0x1340>
20003f01:	8ab4      	ldrh	r4, [r6, #20]
20003f03:	12a4      	asrs	r4, r4, #10
20003f05:	2328      	movs	r3, #40	; 0x28
20003f07:	f6fd 40d4 			; <UNDEFINED> instruction: 0xf6fd40d4
20003f0b:	9048      	str	r0, [sp, #288]	; 0x120
20003f0d:	8100      	strh	r0, [r0, #8]
20003f0f:	7755      	strb	r5, [r2, #29]
20003f11:	fddf a354 	ldc2l	3, cr10, [pc, #336]	; 20004064 <screen+0x1403>
20003f15:	ffff b7ff 	vqshl.u64	<illegal reg q13.5>, <illegal reg q15.5>, #63	; 0x3f
20003f19:	77f7      	strb	r7, [r6, #31]
20003f1b:	ff7b ffff 	vminnm.f<illegal width 64>	<illegal reg q15.5>, <illegal reg q13.5>, <illegal reg q15.5>
20003f1f:	ffff 54bb 	vsri.64	d21, d27, #1
20003f23:	0242      	lsls	r2, r0, #9
20003f25:	2e52      	cmp	r6, #82	; 0x52
20003f27:	5aaf      	ldrh	r7, [r5, r2]
20003f29:	24e9      	movs	r4, #233	; 0xe9
20003f2b:	aa56      	add	r2, sp, #344	; 0x158
20003f2d:	55ab      	strb	r3, [r5, r6]
20003f2f:	a05e      	add	r0, pc, #376	; (adr r0, 200040a8 <screen+0x1447>)
20003f31:	f62a 55d2 			; <UNDEFINED> instruction: 0xf62a55d2
20003f35:	8512      	strh	r2, [r2, #40]	; 0x28
20003f37:	1541      	asrs	r1, r0, #21
20003f39:	5df7      	ldrb	r7, [r6, r7]
20003f3b:	946a      	str	r4, [sp, #424]	; 0x1a8
20003f3d:	0002      	movs	r2, r0
20003f3f:	2910      	cmp	r1, #16
20003f41:	dd55      	ble.n	20003fef <screen+0x138e>
20003f43:	bdff      	pop	{r0, r1, r2, r3, r4, r5, r6, r7, pc}
20003f45:	5552      	strb	r2, [r2, r5]
20003f47:	ff0f feff 	vacge.f32	<illegal reg q7.5>, <illegal reg q15.5>, <illegal reg q15.5>
20003f4b:	fdfd ffef 	ldc2l	15, cr15, [sp, #956]!	; 0x3bc
20003f4f:	ffff ffff 			; <UNDEFINED> instruction: 0xffffffff
20003f53:	a1d6      	add	r1, pc, #856	; (adr r1, 200042ac <screen+0x164b>)
20003f55:	5408      	strb	r0, [r1, r0]
20003f57:	ab89      	add	r3, sp, #548	; 0x224
20003f59:	effd aaad 	vmlsl.s<illegal width 64>	q13, d29, d29
20003f5d:	a5a9      	add	r5, pc, #676	; (adr r5, 20004204 <screen+0x15a3>)
20003f5f:	ab29      	add	r3, sp, #164	; 0xa4
20003f61:	545b      	strb	r3, [r3, r1]
20003f63:	db97      	blt.n	20003e95 <screen+0x1234>
20003f65:	2a69      	cmp	r2, #105	; 0x69
20003f67:	51a9      	str	r1, [r5, r6]
20003f69:	8910      	ldrh	r0, [r2, #8]
20003f6b:	f7dd 01a8 			; <UNDEFINED> instruction: 0xf7dd01a8
20003f6f:	0820      	lsrs	r0, r4, #32
20003f71:	4482      	add	sl, r0
20003f73:	77aa      	strb	r2, [r5, #30]
20003f75:	fd6d 546b 	stc2l	4, cr5, [sp, #-428]!	; 0xfffffe54
20003f79:	ffa3 bffd 			; <UNDEFINED> instruction: 0xffa3bffd
20003f7d:	afdf      	add	r7, sp, #892	; 0x37c
20003f7f:	ffff ffff 			; <UNDEFINED> instruction: 0xffffffff
20003f83:	7fff      	ldrb	r7, [r7, #31]
20003f85:	48fa      	ldr	r0, [pc, #1000]	; (20004370 <screen+0x170f>)
20003f87:	0121      	lsls	r1, r4, #4
20003f89:	af24      	add	r7, sp, #144	; 0x90
20003f8b:	baf7      	revsh	r7, r6
20003f8d:	52b5      	strh	r5, [r6, r2]
20003f8f:	5595      	strb	r5, [r2, r6]
20003f91:	5555      	strb	r5, [r2, r5]
20003f93:	d06a      	beq.n	2000406b <screen+0x140a>
20003f95:	ed12 aa48 	vldr	s20, [r2, #-288]	; 0xfffffee0
20003f99:	0aa0      	lsrs	r0, r4, #10
20003f9b:	24a4      	movs	r4, #164	; 0xa4
20003f9d:	ddff      	ble.n	20003f9f <screen+0x133e>
20003f9f:	a452      	add	r4, pc, #328	; (adr r4, 200040e8 <screen+0x1487>)
20003fa1:	8008      	strh	r0, [r1, #0]
20003fa3:	1200      	asrs	r0, r0, #8
20003fa5:	5f55      	ldrsh	r5, [r2, r5]
20003fa7:	f6f7 a8dd 	blt.w	1fffb165 <__etext+0x1ffda505>
20003fab:	ff11 ffff 	vmaxnm.f<illegal width 64>	<illegal reg q7.5>, <illegal reg q8.5>, <illegal reg q15.5>
20003faf:	fff6 ff7f 	vcvt.u32.f32	<illegal reg q15.5>, <illegal reg q15.5>, #10
20003fb3:	ffff fffd 			; <UNDEFINED> instruction: 0xfffffffd
20003fb7:	82aa      	strh	r2, [r5, #20]
20003fb9:	1200      	asrs	r0, r0, #8
20003fbb:	574a      	ldrsb	r2, [r1, r5]
20003fbd:	6dbf      	ldr	r7, [r7, #88]	; 0x58
20003fbf:	aa4a      	add	r2, sp, #296	; 0x128
20003fc1:	29aa      	cmp	r1, #170	; 0xaa
20003fc3:	2a05      	cmp	r2, #5
20003fc5:	b5aa      	push	{r1, r3, r5, r7, lr}
20003fc7:	b50b      	push	{r0, r1, r3, lr}
20003fc9:	55a2      	strb	r2, [r4, r6]
20003fcb:	0542      	lsls	r2, r0, #21
20003fcd:	4a42      	ldr	r2, [pc, #264]	; (200040d8 <screen+0x1477>)
20003fcf:	fefe 08a9 	cdp2	8, 15, cr0, cr14, cr9, {5}
20003fd3:	1080      	asrs	r0, r0, #2
20003fd5:	0908      	lsrs	r0, r1, #4
20003fd7:	ba2a      	rev	r2, r5
20003fd9:	dddf      	ble.n	20003f9b <screen+0x133a>
20003fdb:	42ea      	cmn	r2, r5
20003fdd:	7f84      	ldrb	r4, [r0, #30]
20003fdf:	ffed f77f 	vqshl.u32	<illegal reg q15.5>, <illegal reg q15.5>, #13
20003fe3:	ffff ffbf 			; <UNDEFINED> instruction: 0xffffffbf
20003fe7:	ffff 28f4 			; <UNDEFINED> instruction: 0xffff28f4
20003feb:	4092      	lsls	r2, r2
20003fed:	2f91      	cmp	r7, #145	; 0x91
20003fef:	f6fb 55d1 			; <UNDEFINED> instruction: 0xf6fb55d1
20003ff3:	4445      	add	r5, r8
20003ff5:	94aa      	str	r4, [sp, #680]	; 0x2a8
20003ff7:	5c95      	ldrb	r5, [r2, r2]
20003ff9:	fa4a 5a09 			; <UNDEFINED> instruction: 0xfa4a5a09
20003ffd:	0190      	lsls	r0, r2, #6
20003fff:	0230      	lsls	r0, r6, #8
20004001:	f77b 4044 			; <UNDEFINED> instruction: 0xf77b4044
20004005:	0212      	lsls	r2, r2, #8
20004007:	9440      	str	r4, [sp, #256]	; 0x100
20004009:	57ad      	ldrsb	r5, [r5, r6]
2000400b:	fefb 10b5 	mrc2	0, 7, r1, cr11, cr5, {5}
2000400f:	bf22      	ittt	cs
20004011:	fbff 7dfb 			; <UNDEFINED> instruction: 0xfbff7dfb
20004015:	fbff fffb 			; <UNDEFINED> instruction: 0xfbfffffb
20004019:	5fff      	ldrshcs	r7, [r7, r7]
2000401b:	80d2      	strh	r2, [r2, #6]
2000401d:	0a00      	lsrs	r0, r0, #8
2000401f:	1304      	asrs	r4, r0, #12
20004021:	bb6d      	cbnz	r5, 2000407f <screen+0x141e>
20004023:	aa2a      	add	r2, sp, #168	; 0xa8
20004025:	1228      	asrs	r0, r5, #8
20004027:	4240      	negs	r0, r0
20004029:	6e25      	ldr	r5, [r4, #96]	; 0x60
2000402b:	d60a      	bvs.n	20004043 <screen+0x13e2>
2000402d:	aba4      	add	r3, sp, #656	; 0x290
2000402f:	4001      	ands	r1, r0
20004031:	a9ca      	add	r1, sp, #808	; 0x328
20004033:	dd3f      	ble.n	200040b5 <screen+0x1454>
20004035:	1229      	asrs	r1, r5, #8
20004037:	4040      	eors	r0, r0
20004039:	0200      	lsls	r0, r0, #8
2000403b:	bfab      	itete	ge
2000403d:	b76f      			; <UNDEFINED> instruction: 0xb76f
2000403f:	44d0      	addlt	r8, sl
20004041:	bf88      	it	hi	; unpredictable <IT:ge>
20004043:	ffff dfdd 			; <UNDEFINED> instruction: 0xffffdfdd
20004047:	efff bfff 			; <UNDEFINED> instruction: 0xefffbfff
2000404b:	ffb6 22a9 	vqmovn.s32	d2, <illegal reg q12.5>
2000404f:	2049      	movs	r0, #73	; 0x49
20004051:	45a9      	cmp	r9, r5
20004053:	ecff 558b 	cfldr64	mvdx5, [pc], #556	; 20004280 <screen+0x161f>
20004057:	8142      	strh	r2, [r0, #10]
20004059:	1015      	asrs	r5, r2, #32
2000405b:	b54a      	push	{r1, r3, r6, lr}
2000405d:	7545      	strb	r5, [r0, #21]
2000405f:	bd12      	pop	{r1, r4, pc}
20004061:	2854      	cmp	r0, #84	; 0x54
20004063:	0228      	lsls	r0, r5, #8
20004065:	fdbf 4044 	ldc2	0, cr4, [pc, #272]!	; 20004178 <screen+0x1517>
20004069:	0000      	movs	r0, r0
2000406b:	2002      	movs	r0, #2
2000406d:	abad      	add	r3, sp, #692	; 0x2b4
2000406f:	fdbb 0055 	ldc2	0, cr0, [fp, #340]!	; 0x154
20004073:	1f02      	subs	r2, r0, #4
20004075:	ffef fff7 			; <UNDEFINED> instruction: 0xffeffff7
20004079:	7fff      	ldrb	r7, [r7, #31]
2000407b:	fefe 7fef 	cdp2	15, 15, cr7, cr14, cr15, {7}
2000407f:	08d4      	lsrs	r4, r2, #3
20004081:	0200      	lsls	r0, r0, #8
20004083:	1000      	asrs	r0, r0, #32
20004085:	5ab5      	ldrh	r5, [r6, r2]
20004087:	a8aa      	add	r0, sp, #680	; 0x2a8
20004089:	2890      	cmp	r0, #144	; 0x90
2000408b:	8440      	strh	r0, [r0, #34]	; 0x22
2000408d:	2f01      	cmp	r7, #1
2000408f:	d402      	bmi.n	20004097 <screen+0x1436>
20004091:	5241      	strh	r1, [r0, r1]
20004093:	0221      	lsls	r1, r4, #8
20004095:	50b2      	str	r2, [r6, r2]
20004097:	ee9f 09a9 	cdp	9, 9, cr0, cr15, cr9, {5}
2000409b:	2412      	movs	r4, #18
2000409d:	0420      	lsls	r0, r4, #16
2000409f:	dd56      	ble.n	2000414f <screen+0x14ee>
200040a1:	efee 2450 			; <UNDEFINED> instruction: 0xefee2450
200040a5:	a728      	add	r7, pc, #160	; (adr r7, 20004148 <screen+0x14e7>)
200040a7:	ffff ef7d 	vcvt.u32.f32	q15, <illegal reg q14.5>, #1
200040ab:	fefd fbd7 	mrc2	11, 7, pc, cr13, cr7, {6}
200040af:	b759      			; <UNDEFINED> instruction: 0xb759
200040b1:	a052      	add	r0, pc, #328	; (adr r0, 200041fc <screen+0x159b>)
200040b3:	4822      	ldr	r0, [pc, #136]	; (2000413c <screen+0x14db>)
200040b5:	4555      	cmp	r5, sl
200040b7:	eb7f a556 			; <UNDEFINED> instruction: 0xeb7fa556
200040bb:	8204      	strh	r4, [r0, #16]
200040bd:	100a      	asrs	r2, r1, #32
200040bf:	5294      	strh	r4, [r2, r2]
200040c1:	d5a4      	bpl.n	2000400d <screen+0x13ac>
200040c3:	6915      	ldr	r5, [r2, #16]
200040c5:	4048      	eors	r0, r1
200040c7:	0a19      	lsrs	r1, r3, #8
200040c9:	fa4f 2044 			; <UNDEFINED> instruction: 0xfa4f2044
200040cd:	8000      	strh	r0, [r0, #0]
200040cf:	8180      	strh	r0, [r0, #12]
200040d1:	eb25 fa7b 			; <UNDEFINED> instruction: 0xeb25fa7b
200040d5:	00a5      	lsls	r5, r4, #2
200040d7:	1782      	asrs	r2, r0, #30
200040d9:	ffff bfd7 			; <UNDEFINED> instruction: 0xffffbfd7
200040dd:	fbf7 b5fa 			; <UNDEFINED> instruction: 0xfbf7b5fa
200040e1:	df56      	svc	86	; 0x56
200040e3:	04a4      	lsls	r4, r4, #18
200040e5:	0180      	lsls	r0, r0, #6
200040e7:	1000      	asrs	r0, r0, #32
200040e9:	b52a      	push	{r1, r3, r5, lr}
200040eb:	902a      	str	r0, [sp, #168]	; 0xa8
200040ed:	1050      	asrs	r0, r2, #1
200040ef:	0020      	movs	r0, r4
200040f1:	9500      	str	r5, [sp, #0]
200040f3:	5441      	strb	r1, [r0, r1]
200040f5:	9545      	str	r5, [sp, #276]	; 0x114
200040f7:	2a25      	cmp	r2, #37	; 0x25
200040f9:	5044      	str	r4, [r0, r1]
200040fb:	fd97 0029 	ldc2	0, cr0, [r7, #164]	; 0xa4
200040ff:	0080      	lsls	r0, r0, #2
20004101:	1202      	asrs	r2, r0, #8
20004103:	7755      	strb	r5, [r2, #29]
20004105:	eeb6 48a8 	cdp	8, 11, cr4, cr6, cr8, {5}
20004109:	8908      	ldrh	r0, [r1, #8]
2000410b:	f5ff ffff 	bl	1fe0410d <__etext+0x1fde34ad>
2000410f:	eeff edad 	cdp	13, 15, cr14, cr15, cr13, {5}
20004113:	bf52      	itee	pl
20004115:	a052      	addpl	r0, pc, #328	; (adr r0, 20004260 <screen+0x15ff>)
20004117:	5412      	strbmi	r2, [r2, r0]
20004119:	852a      	strhmi	r2, [r5, #40]	; 0x28
2000411b:	b655      			; <UNDEFINED> instruction: 0xb655
2000411d:	4a95      	ldr	r2, [pc, #596]	; (20004374 <screen+0x1713>)
2000411f:	4105      	asrs	r5, r0
20004121:	8200      	strh	r0, [r0, #16]
20004123:	2b02      	cmp	r3, #2
20004125:	a944      	add	r1, sp, #272	; 0x110
20004127:	5212      	strh	r2, [r2, r0]
20004129:	8092      	strh	r2, [r2, #4]
2000412b:	8482      	strh	r2, [r0, #36]	; 0x24
2000412d:	da4f      	bge.n	200041cf <screen+0x156e>
2000412f:	88ac      	ldrh	r4, [r5, #4]
20004131:	0412      	lsls	r2, r2, #16
20004133:	0000      	movs	r0, r0
20004135:	ba2b      	rev	r3, r5
20004137:	bdff      	pop	{r0, r1, r2, r3, r4, r5, r6, r7, pc}
20004139:	0151      	lsls	r1, r2, #5
2000413b:	5220      	strh	r0, [r4, r0]
2000413d:	dfff      	svc	255	; 0xff
2000413f:	ffbf bb7f 			; <UNDEFINED> instruction: 0xffbfbb7f
20004143:	d2d6      	bcs.n	200040f3 <screen+0x1492>
20004145:	af4a      	add	r7, sp, #296	; 0x128
20004147:	1288      	asrs	r0, r1, #10
20004149:	0000      	movs	r0, r0
2000414b:	2000      	movs	r0, #0
2000414d:	ed2e a15a 	stfd	f2, [lr, #-360]!	; 0xfffffe98
20004151:	0850      	lsrs	r0, r2, #1
20004153:	1008      	asrs	r0, r1, #32
20004155:	0a50      	lsrs	r0, r2, #9
20004157:	5491      	strb	r1, [r2, r2]
20004159:	a94a      	add	r1, sp, #296	; 0x128
2000415b:	544a      	strb	r2, [r1, r1]
2000415d:	2929      	cmp	r1, #41	; 0x29
2000415f:	f527 0057 			; <UNDEFINED> instruction: 0xf5270057
20004163:	2000      	movs	r0, #0
20004165:	1108      	asrs	r0, r1, #4
20004167:	df0a      	svc	10
20004169:	faaa 20a4 			; <UNDEFINED> instruction: 0xfaaa20a4
2000416d:	0505      	lsls	r5, r0, #20
2000416f:	fe7f 7fff 	mrc2	15, 3, r7, cr15, cr15, {7}
20004173:	fded 2977 	stc2l	9, cr2, [sp, #476]!	; 0x1dc
20004177:	7525      	strb	r5, [r4, #20]
20004179:	8852      	ldrh	r2, [r2, #2]
2000417b:	4192      	sbcs	r2, r2
2000417d:	1249      	asrs	r1, r1, #9
2000417f:	5497      	strb	r7, [r2, r2]
20004181:	1495      	asrs	r5, r2, #18
20004183:	2002      	movs	r0, #2
20004185:	0080      	lsls	r0, r0, #2
20004187:	5202      	strh	r2, [r0, r0]
20004189:	52a0      	strh	r0, [r4, r2]
2000418b:	94aa      	str	r4, [sp, #680]	; 0x2a8
2000418d:	42a9      	cmp	r1, r5
2000418f:	5084      	str	r4, [r0, r2]
20004191:	fa93 d2a1 			; <UNDEFINED> instruction: 0xfa93d2a1
20004195:	0040      	lsls	r0, r0, #1
20004197:	8080      	strh	r0, [r0, #4]
20004199:	b54a      	push	{r1, r3, r6, lr}
2000419b:	6dff      	ldr	r7, [r7, #92]	; 0x5c
2000419d:	0449      	lsls	r1, r1, #17
2000419f:	2010      	movs	r0, #16
200041a1:	ffbf fdff 			; <UNDEFINED> instruction: 0xffbffdff
200041a5:	6aff      	ldr	r7, [r7, #44]	; 0x2c
200041a7:	84aa      	strh	r2, [r5, #36]	; 0x24
200041a9:	af10      	add	r7, sp, #64	; 0x40
200041ab:	4244      	negs	r4, r0
200041ad:	0800      	lsrs	r0, r0, #32
200041af:	4000      	ands	r0, r0
200041b1:	ba15      	rev	r5, r2
200041b3:	4255      	negs	r5, r2
200041b5:	82a8      	strh	r0, [r5, #20]
200041b7:	0202      	lsls	r2, r0, #8
200041b9:	0908      	lsrs	r0, r1, #4
200041bb:	2a45      	cmp	r2, #69	; 0x45
200041bd:	4525      	cmp	r5, r4
200041bf:	2855      	cmp	r0, #85	; 0x55
200041c1:	8a52      	ldrh	r2, [r2, #18]
200041c3:	ea0b a088 			; <UNDEFINED> instruction: 0xea0ba088
200041c7:	8004      	strh	r4, [r0, #0]
200041c9:	0400      	lsls	r0, r0, #16
200041cb:	7e25      	ldrb	r5, [r4, #24]
200041cd:	f5aa 40a0 	sub.w	r0, sl, #20480	; 0x5000
200041d1:	1481      	asrs	r1, r0, #18
200041d3:	f75f f7fd 	bl	1fb641d1 <__etext+0x1fb43571>
200041d7:	fdd5 50ac 	ldc2l	0, cr5, [r5, #688]	; 0x2b0
200041db:	ae8b      	add	r6, sp, #556	; 0x22c
200041dd:	1021      	asrs	r1, r4, #32
200041df:	2052      	movs	r0, #82	; 0x52
200041e1:	0949      	lsrs	r1, r1, #5
200041e3:	d50a      	bpl.n	200041fb <screen+0x159a>
200041e5:	a82a      	add	r0, sp, #168	; 0xa8
200041e7:	0800      	lsrs	r0, r0, #32
200041e9:	4820      	ldr	r0, [pc, #128]	; (2000426c <screen+0x160b>)
200041eb:	2541      	movs	r5, #65	; 0x41
200041ed:	5420      	strb	r0, [r4, r0]
200041ef:	2a91      	cmp	r2, #145	; 0x91
200041f1:	05a2      	lsls	r2, r4, #22
200041f3:	2008      	movs	r0, #8
200041f5:	f5a1 5824 	sub.w	r8, r1, #10496	; 0x2900
200041f9:	0400      	lsls	r0, r0, #16
200041fb:	1104      	asrs	r4, r0, #4
200041fd:	d702      	bvc.n	20004205 <screen+0x15a4>
200041ff:	5a7f      	ldrh	r7, [r7, r1]
20004201:	104a      	asrs	r2, r1, #1
20004203:	422a      	tst	r2, r5
20004205:	ff1f ffff 	vmaxnm.f<illegal width 64>	<illegal reg q7.5>, <illegal reg q15.5>, <illegal reg q15.5>
20004209:	aafb      	add	r2, sp, #1004	; 0x3ec
2000420b:	02b1      	lsls	r1, r6, #10
2000420d:	ae24      	add	r6, sp, #144	; 0x90
2000420f:	458a      	cmp	sl, r1
20004211:	8200      	strh	r0, [r0, #16]
20004213:	2000      	movs	r0, #0
20004215:	5145      	str	r5, [r0, r5]
20004217:	0555      	lsls	r5, r2, #21
20004219:	2055      	movs	r0, #85	; 0x55
2000421b:	0000      	movs	r0, r0
2000421d:	0104      	lsls	r4, r0, #4
2000421f:	2252      	movs	r2, #82	; 0x52
20004221:	924a      	str	r2, [sp, #296]	; 0x128
20004223:	a8a8      	add	r0, sp, #672	; 0x2a0
20004225:	2942      	cmp	r1, #66	; 0x42
20004227:	ea0b 2d92 	and.w	sp, fp, r2, lsr #10
2000422b:	0020      	movs	r0, r4
2000422d:	4010      	ands	r0, r2
2000422f:	5d29      	ldrb	r1, [r5, r4]
20004231:	ebd5 8420 			; <UNDEFINED> instruction: 0xebd58420
20004235:	9080      	str	r0, [sp, #512]	; 0x200
20004237:	ff8f 5fff 			; <UNDEFINED> instruction: 0xff8f5fff
2000423b:	ea6e 48c8 	orn	r8, lr, r8, lsl #19
2000423f:	9d16      	ldr	r5, [sp, #88]	; 0x58
20004241:	1020      	asrs	r0, r4, #32
20004243:	0854      	lsrs	r4, r2, #1
20004245:	0492      	lsls	r2, r2, #18
20004247:	5613      	ldrsb	r3, [r2, r0]
20004249:	50aa      	str	r2, [r5, r2]
2000424b:	0100      	lsls	r0, r0, #4
2000424d:	0004      	movs	r4, r0
2000424f:	9420      	str	r4, [sp, #128]	; 0x80
20004251:	28a1      	cmp	r0, #161	; 0xa1
20004253:	4a24      	ldr	r2, [pc, #144]	; (200042e4 <screen+0x1683>)
20004255:	05a0      	lsls	r0, r4, #22
20004257:	8010      	strh	r0, [r2, #0]
20004259:	d548      	bpl.n	200042ed <screen+0x168c>
2000425b:	4455      	add	r5, sl
2000425d:	2004      	movs	r0, #4
2000425f:	0240      	lsls	r0, r0, #9
20004261:	ef02 b47e 	vqshl.s8	<illegal reg q5.5>, q15, q1
20004265:	1094      	asrs	r4, r2, #2
20004267:	0a2a      	lsrs	r2, r5, #8
20004269:	df07      	svc	7
2000426b:	fffd 6dd5 			; <UNDEFINED> instruction: 0xfffd6dd5
2000426f:	0152      	lsls	r2, r2, #5
20004271:	5851      	ldr	r1, [r2, r1]
20004273:	4215      	tst	r5, r2
20004275:	a002      	add	r0, pc, #8	; (adr r0, 20004280 <screen+0x161f>)
20004277:	9000      	str	r0, [sp, #0]
20004279:	5685      	ldrsb	r5, [r0, r2]
2000427b:	2595      	movs	r5, #149	; 0x95
2000427d:	8424      	strh	r4, [r4, #32]
2000427f:	0900      	lsrs	r0, r0, #4
20004281:	0202      	lsls	r2, r0, #8
20004283:	9594      	str	r5, [sp, #592]	; 0x250
20004285:	2212      	movs	r2, #18
20004287:	2242      	movs	r2, #66	; 0x42
20004289:	5444      	strb	r4, [r0, r1]
2000428b:	ea22 aabf 			; <UNDEFINED> instruction: 0xea22aabf
2000428f:	8190      	strh	r0, [r2, #12]
20004291:	0800      	lsrs	r0, r0, #32
20004293:	5591      	strb	r1, [r2, r6]
20004295:	6bab      	ldr	r3, [r5, #56]	; 0x38
20004297:	0241      	lsls	r1, r0, #9
20004299:	5081      	str	r1, [r0, r2]
2000429b:	ff43 fdff 	vmul.f32	<illegal reg q15.5>, <illegal reg q9.5>, <illegal reg q15.5>
2000429f:	aab7      	add	r2, sp, #732	; 0x2dc
200042a1:	9088      	str	r0, [sp, #544]	; 0x220
200042a3:	3a4d      	subs	r2, #77	; 0x4d
200042a5:	1140      	asrs	r0, r0, #5
200042a7:	0554      	lsls	r4, r2, #21
200042a9:	0224      	lsls	r4, r4, #8
200042ab:	aa01      	add	r2, sp, #4
200042ad:	88b4      	ldrh	r4, [r6, #4]
200042af:	2040      	movs	r0, #64	; 0x40
200042b1:	8020      	strh	r0, [r4, #0]
200042b3:	4908      	ldr	r1, [pc, #32]	; (200042d4 <screen+0x1673>)
200042b5:	4250      	negs	r0, r2
200042b7:	0a41      	lsrs	r1, r0, #9
200042b9:	1090      	asrs	r0, r2, #2
200042bb:	0181      	lsls	r1, r0, #6
200042bd:	d409      	bmi.n	200042d3 <screen+0x1672>
200042bf:	f0f6 0440 			; <UNDEFINED> instruction: 0xf0f60440
200042c3:	2001      	movs	r0, #1
200042c5:	6f05      	ldr	r5, [r0, #112]	; 0x70
200042c7:	51db      	str	r3, [r3, r7]
200042c9:	4854      	ldr	r0, [pc, #336]	; (2000441c <screen+0x17bb>)
200042cb:	252a      	movs	r5, #42	; 0x2a
200042cd:	ef11 fffd 	vrecps.f<illegal width 64>	<illegal reg q7.5>, <illegal reg q8.5>, <illegal reg q14.5>
200042d1:	d36a      	bcc.n	200043a9 <screen+0x1748>
200042d3:	0250      	lsls	r0, r2, #9
200042d5:	7192      	strb	r2, [r2, #6]
200042d7:	482a      	ldr	r0, [pc, #168]	; (20004380 <screen+0x171f>)
200042d9:	1091      	asrs	r1, r2, #2
200042db:	8800      	ldrh	r0, [r0, #0]
200042dd:	b524      	push	{r2, r5, lr}
200042df:	5155      	str	r5, [r2, r5]
200042e1:	0012      	movs	r2, r2
200042e3:	0000      	movs	r0, r0
200042e5:	0220      	lsls	r0, r4, #8
200042e7:	2845      	cmp	r0, #69	; 0x45
200042e9:	4908      	ldr	r1, [pc, #32]	; (2000430c <screen+0x16ab>)
200042eb:	8440      	strh	r0, [r0, #34]	; 0x22
200042ed:	4412      	add	r2, r2
200042ef:	a944      	add	r1, sp, #272	; 0x110
200042f1:	bb71      	cbnz	r1, 20004351 <screen+0x16f0>
200042f3:	0100      	lsls	r0, r0, #4
200042f5:	41bd      	sbcs	r5, r7
200042f7:	ba20      	rev	r0, r4
200042f9:	eaed 0280 			; <UNDEFINED> instruction: 0xeaed0280
200042fd:	5491      	strb	r1, [r2, r2]
200042ff:	ffa0 fbff 			; <UNDEFINED> instruction: 0xffa0fbff
20004303:	aeaa      	add	r6, sp, #680	; 0x2a8
20004305:	2802      	cmp	r0, #2
20004307:	e450      	b.n	20003bab <screen+0xf4a>
20004309:	8440      	strh	r0, [r0, #34]	; 0x22
2000430b:	4124      	asrs	r4, r4
2000430d:	2028      	movs	r0, #40	; 0x28
2000430f:	5501      	strb	r1, [r0, r4]
20004311:	8454      	strh	r4, [r2, #34]	; 0x22
20004313:	9240      	str	r2, [sp, #256]	; 0x100
20004315:	0204      	lsls	r4, r0, #8
20004317:	4902      	ldr	r1, [pc, #8]	; (20004320 <screen+0x16bf>)
20004319:	9230      	str	r2, [sp, #192]	; 0xc0
2000431b:	0a82      	lsrs	r2, r0, #10
2000431d:	1154      	asrs	r4, r2, #5
2000431f:	9040      	str	r0, [sp, #256]	; 0x100
20004321:	d210      	bcs.n	20004345 <screen+0x16e4>
20004323:	4caa      	ldr	r4, [pc, #680]	; (200045cc <screen+0x196b>)
20004325:	2692      	movs	r6, #146	; 0x92
20004327:	a8a2      	add	r0, sp, #648	; 0x288
20004329:	df02      	svc	2
2000432b:	a576      	add	r5, pc, #472	; (adr r5, 20004504 <screen+0x18a3>)
2000432d:	4852      	ldr	r0, [pc, #328]	; (20004478 <screen+0x1817>)
2000432f:	ab44      	add	r3, sp, #272	; 0x110
20004331:	bf04      	itt	eq
20004333:	fef5 a9eb 	cdp2eq	9, 15, cr10, cr5, cr11, {7}
20004337:	8248      	strheq	r0, [r1, #18]
20004339:	c88b      	ldmia	r0, {r0, r1, r3, r7}
2000433b:	2212      	movs	r2, #18
2000433d:	0880      	lsrs	r0, r0, #2
2000433f:	0142      	lsls	r2, r0, #5
20004341:	ae08      	add	r6, sp, #32
20004343:	51aa      	str	r2, [r5, r6]
20004345:	0008      	movs	r0, r1
20004347:	2020      	movs	r0, #32
20004349:	0008      	movs	r0, r1
2000434b:	24a5      	movs	r4, #165	; 0xa5
2000434d:	4920      	ldr	r1, [pc, #128]	; (200043d0 <screen+0x176f>)
2000434f:	0420      	lsls	r0, r4, #16
20004351:	010a      	lsls	r2, r1, #4
20004353:	5205      	strh	r5, [r0, r0]
20004355:	5559      	strb	r1, [r3, r5]
20004357:	0040      	lsls	r0, r0, #1
20004359:	1400      	asrs	r0, r0, #16
2000435b:	7690      	strb	r0, [r2, #26]
2000435d:	55db      	strb	r3, [r3, r7]
2000435f:	1208      	asrs	r0, r1, #8
20004361:	ac12      	add	r4, sp, #72	; 0x48
20004363:	ff90 ffff 			; <UNDEFINED> instruction: 0xff90ffff
20004367:	54a9      	strb	r1, [r5, r2]
20004369:	1502      	asrs	r2, r0, #20
2000436b:	8223      	strh	r3, [r4, #16]
2000436d:	9044      	str	r0, [sp, #272]	; 0x110
2000436f:	2521      	movs	r5, #33	; 0x21
20004371:	a000      	add	r0, pc, #0	; (adr r0, 20004374 <screen+0x1713>)
20004373:	7320      	strb	r0, [r4, #12]
20004375:	2469      	movs	r4, #105	; 0x69
20004377:	4042      	eors	r2, r0
20004379:	8080      	strh	r0, [r0, #4]
2000437b:	9240      	str	r2, [sp, #256]	; 0x100
2000437d:	8850      	ldrh	r0, [r2, #2]
2000437f:	0589      	lsls	r1, r1, #22
20004381:	2149      	movs	r1, #73	; 0x49
20004383:	8040      	strh	r0, [r0, #2]
20004385:	6450      	str	r0, [r2, #68]	; 0x44
20004387:	528b      	strh	r3, [r1, r2]
20004389:	1288      	asrs	r0, r1, #10
2000438b:	05a4      	lsls	r4, r4, #22
2000438d:	5f05      	ldrsh	r5, [r0, r4]
2000438f:	c2ea      	stmia	r2!, {r1, r3, r5, r6, r7}
20004391:	21a1      	movs	r1, #161	; 0xa1
20004393:	214d      	movs	r1, #77	; 0x4d
20004395:	1f04      	subs	r4, r0, #4
20004397:	fdef 4955 	stc2l	9, cr4, [pc, #340]!	; 200044ec <screen+0x188b>
2000439b:	4828      	ldr	r0, [pc, #160]	; (2000443c <screen+0x17db>)
2000439d:	200f      	movs	r0, #15
2000439f:	4510      	cmp	r0, r2
200043a1:	4914      	ldr	r1, [pc, #80]	; (200043f4 <screen+0x1793>)
200043a3:	0454      	lsls	r4, r2, #17
200043a5:	1d82      	adds	r2, r0, #6
200043a7:	89aa      	ldrh	r2, [r5, #12]
200043a9:	0810      	lsrs	r0, r2, #32
200043ab:	0200      	lsls	r0, r0, #8
200043ad:	0102      	lsls	r2, r0, #4
200043af:	a24a      	add	r2, pc, #296	; (adr r2, 200044d8 <screen+0x1877>)
200043b1:	2400      	movs	r4, #0
200043b3:	08a0      	lsrs	r0, r4, #2
200043b5:	1214      	asrs	r4, r2, #8
200043b7:	4105      	asrs	r5, r0
200043b9:	4221      	tst	r1, r4
200043bb:	8440      	strh	r0, [r0, #34]	; 0x22
200043bd:	0248      	lsls	r0, r1, #9
200043bf:	b740      			; <UNDEFINED> instruction: 0xb740
200043c1:	59bd      	ldr	r5, [r7, r6]
200043c3:	0a04      	lsrs	r4, r0, #8
200043c5:	9428      	str	r4, [sp, #160]	; 0xa0
200043c7:	5f51      	ldrsh	r1, [r2, r5]
200043c9:	ffff a0aa 	vaddl.u<illegal width 64>	q13, d31, d26
200043cd:	2041      	movs	r0, #65	; 0x41
200043cf:	09ac      	lsrs	r4, r5, #6
200043d1:	1245      	asrs	r5, r0, #9
200043d3:	2542      	movs	r5, #66	; 0x42
200043d5:	4021      	ands	r1, r4
200043d7:	ae00      	add	r6, sp, #0
200043d9:	50aa      	str	r2, [r5, r2]
200043db:	8044      	strh	r4, [r0, #2]
200043dd:	0004      	movs	r4, r0
200043df:	4810      	ldr	r0, [pc, #64]	; (20004420 <screen+0x17bf>)
200043e1:	1051      	asrs	r1, r2, #1
200043e3:	0a90      	lsrs	r0, r2, #10
200043e5:	a594      	add	r5, pc, #592	; (adr r5, 20004638 <screen+0x19d7>)
200043e7:	0041      	lsls	r1, r0, #1
200043e9:	a820      	add	r0, sp, #128	; 0x80
200043eb:	1548      	asrs	r0, r1, #21
200043ed:	1140      	asrs	r0, r0, #5
200043ef:	20b5      	movs	r0, #181	; 0xb5
200043f1:	7d92      	ldrb	r2, [r2, #22]
200043f3:	c4d6      	stmia	r4!, {r1, r2, r4, r6, r7}
200043f5:	a1a0      	add	r1, pc, #640	; (adr r1, 20004678 <screen+0x1a17>)
200043f7:	02a2      	lsls	r2, r4, #10
200043f9:	2784      	movs	r7, #132	; 0x84
200043fb:	fdff 15a5 	ldc2l	5, cr1, [pc, #660]!	; 20004690 <screen+0x1a2f>
200043ff:	8404      	strh	r4, [r0, #32]
20004401:	201a      	movs	r0, #26
20004403:	a910      	add	r1, sp, #64	; 0x40
20004405:	aa29      	add	r2, sp, #164	; 0xa4
20004407:	11ac      	asrs	r4, r5, #6
20004409:	1e08      	subs	r0, r1, #0
2000440b:	05d5      	lsls	r5, r2, #23
2000440d:	1210      	asrs	r0, r2, #8
2000440f:	0820      	lsrs	r0, r4, #32
20004411:	0241      	lsls	r1, r0, #9
20004413:	aa94      	add	r2, sp, #592	; 0x250
20004415:	8204      	strh	r4, [r0, #16]
20004417:	0050      	lsls	r0, r2, #1
20004419:	0410      	lsls	r0, r2, #16
2000441b:	458a      	cmp	sl, r1
2000441d:	4205      	tst	r5, r0
2000441f:	4590      	cmp	r8, r2
20004421:	845a      	strh	r2, [r3, #34]	; 0x22
20004423:	9f40      	ldr	r7, [sp, #256]	; 0x100
20004425:	52fb      	strh	r3, [r7, r3]
20004427:	0d08      	lsrs	r0, r1, #20
20004429:	5448      	strb	r0, [r1, r1]
2000442b:	8f50      	ldrh	r0, [r2, #58]	; 0x3a
2000442d:	ffff 8054 	vshr.u32	q12, q2, #1
20004431:	1122      	asrs	r2, r4, #4
20004433:	8470      	strh	r0, [r6, #34]	; 0x22
20004435:	0a45      	lsrs	r5, r0, #9
20004437:	aa94      	add	r2, sp, #592	; 0x250
20004439:	8452      	strh	r2, [r2, #34]	; 0x22
2000443b:	0a01      	lsrs	r1, r0, #8
2000443d:	a868      	add	r0, sp, #416	; 0x1a0
2000443f:	0041      	lsls	r1, r0, #1
20004441:	4000      	ands	r0, r0
20004443:	0804      	lsrs	r4, r0, #32
20004445:	0849      	lsrs	r1, r1, #1
20004447:	2940      	cmp	r1, #64	; 0x40
20004449:	154a      	asrs	r2, r1, #21
2000444b:	4004      	ands	r4, r0
2000444d:	a000      	add	r0, pc, #0	; (adr r0, 20004450 <screen+0x17ef>)
2000444f:	0150      	lsls	r0, r2, #5
20004451:	1242      	asrs	r2, r0, #9
20004453:	41f7      	rors	r7, r6
20004455:	6e12      	ldr	r2, [r2, #96]	; 0x60
20004457:	4aed      	ldr	r2, [pc, #948]	; (2000480c <screen+0x1bab>)
20004459:	2a81      	cmp	r2, #129	; 0x81
2000445b:	1301      	asrs	r1, r0, #12
2000445d:	2302      	movs	r3, #2
2000445f:	fdff 54aa 	ldc2l	4, cr5, [pc, #680]!	; 20004708 <screen+0x1aa7>
20004463:	0080      	lsls	r0, r0, #2
20004465:	01a0      	lsls	r0, r4, #6
20004467:	a910      	add	r1, sp, #64	; 0x40
20004469:	1156      	asrs	r6, r2, #5
2000446b:	4000      	ands	r0, r0
2000446d:	5540      	strb	r0, [r0, r5]
2000446f:	12a5      	asrs	r5, r4, #10
20004471:	2008      	movs	r0, #8
20004473:	0181      	lsls	r1, r0, #6
20004475:	4100      	asrs	r0, r0
20004477:	5225      	strh	r5, [r4, r0]
20004479:	0024      	movs	r4, r4
2000447b:	80a0      	strh	r0, [r4, #4]
2000447d:	1190      	asrs	r0, r2, #6
2000447f:	542a      	strb	r2, [r5, r0]
20004481:	4a02      	ldr	r2, [pc, #8]	; (2000448c <screen+0x182b>)
20004483:	4500      	cmp	r0, r0
20004485:	680b      	ldr	r3, [r1, #0]
20004487:	3b00      	subs	r3, #0
20004489:	a4fa      	add	r4, pc, #1000	; (adr r4, 20004874 <screen+0x1c13>)
2000448b:	6820      	ldr	r0, [r4, #0]
2000448d:	4924      	ldr	r1, [pc, #144]	; (20004520 <screen+0x18bf>)
2000448f:	0950      	lsrs	r0, r2, #5
20004491:	feff 80a4 	cdp2	0, 15, cr8, cr15, cr4, {5}
20004495:	8510      	strh	r0, [r2, #40]	; 0x28
20004497:	2444      	movs	r4, #68	; 0x44
20004499:	5605      	ldrsb	r5, [r0, r0]
2000449b:	48a9      	ldr	r0, [pc, #676]	; (20004740 <screen+0x1adf>)
2000449d:	1092      	asrs	r2, r2, #2
2000449f:	0a12      	lsrs	r2, r2, #8
200044a1:	a0d4      	add	r0, pc, #848	; (adr r0, 200047f4 <screen+0x1b93>)
200044a3:	04a1      	lsls	r1, r4, #18
200044a5:	0008      	movs	r0, r1
200044a7:	0411      	lsls	r1, r2, #16
200044a9:	49a9      	ldr	r1, [pc, #676]	; (20004750 <screen+0x1aef>)
200044ab:	0509      	lsls	r1, r1, #20
200044ad:	2414      	movs	r4, #20
200044af:	0401      	lsls	r1, r0, #16
200044b1:	8100      	strh	r0, [r0, #8]
200044b3:	0120      	lsls	r0, r4, #4
200044b5:	0a41      	lsrs	r1, r0, #9
200044b7:	a529      	add	r5, pc, #164	; (adr r5, 2000455c <screen+0x18fb>)
200044b9:	2f49      	cmp	r7, #73	; 0x49
200044bb:	52df      	strh	r7, [r3, r3]
200044bd:	900a      	str	r0, [sp, #40]	; 0x28
200044bf:	2081      	movs	r0, #129	; 0x81
200044c1:	8084      	strh	r4, [r0, #4]
200044c3:	feff 1591 	mrc2	5, 7, r1, cr15, cr1, {4}
200044c7:	2204      	movs	r2, #4
200044c9:	0101      	lsls	r1, r0, #4
200044cb:	6a51      	ldr	r1, [r2, #36]	; 0x24
200044cd:	0222      	lsls	r2, r4, #8
200044cf:	4204      	tst	r4, r0
200044d1:	2b40      	cmp	r3, #64	; 0x40
200044d3:	8aaa      	ldrh	r2, [r5, #20]
200044d5:	0004      	movs	r4, r0
200044d7:	0000      	movs	r0, r0
200044d9:	1004      	asrs	r4, r0, #32
200044db:	2825      	cmp	r0, #37	; 0x25
200044dd:	40a0      	lsls	r0, r4
200044df:	09a9      	lsrs	r1, r5, #6
200044e1:	0044      	lsls	r4, r0, #1
200044e3:	5424      	strb	r4, [r4, r0]
200044e5:	9508      	str	r5, [sp, #32]
200044e7:	2108      	movs	r1, #8
200044e9:	f816 3f00 	ldrb.w	r3, [r6]!
200044ed:	88fa      	ldrh	r2, [r7, #6]
200044ef:	4281      	cmp	r1, r0
200044f1:	842a      	strh	r2, [r5, #32]
200044f3:	2540      	movs	r5, #64	; 0x40
200044f5:	fb7f 4054 			; <UNDEFINED> instruction: 0xfb7f4054
200044f9:	0840      	lsrs	r0, r0, #1
200044fb:	1088      	asrs	r0, r1, #2
200044fd:	9506      	str	r5, [sp, #24]
200044ff:	4848      	ldr	r0, [pc, #288]	; (20004620 <screen+0x19bf>)
20004501:	8850      	ldrh	r0, [r2, #2]
20004503:	0d01      	lsrs	r1, r0, #20
20004505:	20d1      	movs	r0, #209	; 0xd1
20004507:	4890      	ldr	r0, [pc, #576]	; (20004748 <screen+0x1ae7>)
20004509:	2480      	movs	r4, #128	; 0x80
2000450b:	4180      	sbcs	r0, r0
2000450d:	a452      	add	r4, pc, #328	; (adr r4, 20004658 <screen+0x19f7>)
2000450f:	0809      	lsrs	r1, r1, #32
20004511:	1084      	asrs	r4, r0, #2
20004513:	4910      	ldr	r1, [pc, #64]	; (20004554 <screen+0x18f3>)
20004515:	8002      	strh	r2, [r0, #0]
20004517:	0480      	lsls	r0, r0, #18
20004519:	0021      	movs	r1, r4
2000451b:	aaaa      	add	r2, sp, #680	; 0x2a8
2000451d:	1fa9      	subs	r1, r5, #6
2000451f:	a4ee      	add	r4, pc, #952	; (adr r4, 200048d8 <screen+0x1c77>)
20004521:	2415      	movs	r4, #21
20004523:	0141      	lsls	r1, r0, #5
20004525:	0029      	movs	r1, r5
20004527:	fdff 1152 	ldc2l	1, cr1, [pc, #328]!	; 20004670 <screen+0x1a0f>
2000452b:	0201      	lsls	r1, r0, #8
2000452d:	0400      	lsls	r0, r0, #16
2000452f:	4022      	ands	r2, r4
20004531:	0102      	lsls	r2, r0, #4
20004533:	0004      	movs	r4, r0
20004535:	2610      	movs	r6, #16
20004537:	8aaa      	ldrh	r2, [r5, #20]
20004539:	0001      	movs	r1, r0
2000453b:	0011      	movs	r1, r2
2000453d:	0410      	lsls	r0, r2, #16
2000453f:	9224      	str	r2, [sp, #144]	; 0x90
20004541:	20a0      	movs	r0, #160	; 0xa0
20004543:	8550      	strh	r0, [r2, #42]	; 0x2a
20004545:	0040      	lsls	r0, r0, #1
20004547:	a828      	add	r0, sp, #160	; 0xa0
20004549:	2a11      	cmp	r2, #17
2000454b:	4480      	add	r8, r0
2000454d:	ba02      	rev	r2, r0
2000454f:	5700      	ldrsb	r0, [r0, r4]
20004551:	52bb      	strh	r3, [r7, r2]
20004553:	0900      	lsrs	r0, r0, #4
20004555:	200a      	movs	r0, #10
20004557:	1580      	asrs	r0, r0, #22
20004559:	f53f ea49 			; <UNDEFINED> instruction: 0xf53fea49
2000455d:	4810      	ldr	r0, [pc, #64]	; (200045a0 <screen+0x193f>)
2000455f:	9100      	str	r1, [sp, #0]
20004561:	2a08      	cmp	r2, #8
20004563:	a4a8      	add	r4, pc, #672	; (adr r4, 20004804 <screen+0x1ba3>)
20004565:	2249      	movs	r2, #73	; 0x49
20004567:	0b44      	lsrs	r4, r0, #13
20004569:	b5a4      	push	{r2, r5, r7, lr}
2000456b:	1250      	asrs	r0, r2, #9
2000456d:	0000      	movs	r0, r0
2000456f:	0002      	movs	r2, r0
20004571:	a492      	add	r4, pc, #584	; (adr r4, 200047bc <screen+0x1b5b>)
20004573:	020a      	lsls	r2, r1, #8
20004575:	104a      	asrs	r2, r1, #1
20004577:	4802      	ldr	r0, [pc, #8]	; (20004580 <screen+0x191f>)
20004579:	4282      	cmp	r2, r0
2000457b:	1240      	asrs	r0, r0, #9
2000457d:	010a      	lsls	r2, r1, #4
2000457f:	2828      	cmp	r0, #40	; 0x28
20004581:	2f49      	cmp	r7, #73	; 0x49
20004583:	88fd      	ldrh	r5, [r7, #6]
20004585:	8048      	strh	r0, [r1, #2]
20004587:	0048      	lsls	r0, r1, #1
20004589:	8048      	strh	r0, [r1, #2]
2000458b:	f57f 5d2f 	sbcs.w	sp, pc, #11200	; 0x2bc0
2000458f:	0040      	lsls	r0, r0, #1
20004591:	0022      	movs	r2, r4
20004593:	0045      	lsls	r5, r0, #1
20004595:	0902      	lsrs	r2, r0, #4
20004597:	0810      	lsrs	r0, r2, #32
20004599:	2201      	movs	r2, #1
2000459b:	55d3      	strb	r3, [r2, r7]
2000459d:	40aa      	lsls	r2, r5
2000459f:	0840      	lsrs	r0, r0, #1
200045a1:	aa40      	add	r2, sp, #256	; 0x100
200045a3:	914a      	str	r1, [sp, #296]	; 0x128
200045a5:	8840      	ldrh	r0, [r0, #2]
200045a7:	0524      	lsls	r4, r4, #20
200045a9:	0008      	movs	r0, r1
200045ab:	9008      	str	r0, [sp, #32]
200045ad:	4802      	ldr	r0, [pc, #8]	; (200045b8 <screen+0x1957>)
200045af:	8420      	strh	r0, [r4, #32]
200045b1:	8100      	strh	r0, [r0, #8]
200045b3:	3f00      	subs	r7, #0
200045b5:	a5ee      	add	r5, pc, #952	; (adr r5, 20004970 <screen+0x1d0f>)
200045b7:	2900      	cmp	r1, #0
200045b9:	4229      	tst	r1, r5
200045bb:	1220      	asrs	r0, r4, #8
200045bd:	edbf 0354 	ldc	3, cr0, [pc, #336]!	; 20004710 <screen+0x1aaf>
200045c1:	81a4      	strh	r4, [r4, #12]
200045c3:	0a00      	lsrs	r0, r0, #8
200045c5:	aa10      	add	r2, sp, #64	; 0x40
200045c7:	20a9      	movs	r0, #169	; 0xa9
200045c9:	4042      	eors	r2, r0
200045cb:	0590      	lsls	r0, r2, #22
200045cd:	0089      	lsls	r1, r1, #2
200045cf:	0455      	lsls	r5, r2, #17
200045d1:	8104      	strh	r4, [r0, #8]
200045d3:	5515      	strb	r5, [r2, r4]
200045d5:	5425      	strb	r5, [r4, r0]
200045d7:	2112      	movs	r1, #18
200045d9:	4848      	ldr	r0, [pc, #288]	; (200046fc <screen+0x1a9b>)
200045db:	8940      	ldrh	r0, [r0, #10]
200045dd:	8422      	strh	r2, [r4, #32]
200045df:	2a08      	cmp	r2, #8
200045e1:	1002      	asrs	r2, r0, #32
200045e3:	0842      	lsrs	r2, r0, #1
200045e5:	9728      	str	r7, [sp, #160]	; 0xa0
200045e7:	90e2      	str	r0, [sp, #904]	; 0x388
200045e9:	802a      	strh	r2, [r5, #0]
200045eb:	1010      	asrs	r0, r2, #32
200045ed:	8084      	strh	r4, [r0, #4]
200045ef:	f51f 8058 	bmi.w	1ff236a3 <__etext+0x1ff02a43>
200045f3:	10f8      	asrs	r0, r7, #3
200045f5:	ed02 0142 	stfs	f0, [r2, #-264]	; 0xfffffef8
200045f9:	0a04      	lsrs	r4, r0, #8
200045fb:	2208      	movs	r2, #8
200045fd:	9204      	str	r2, [sp, #16]
200045ff:	a4a4      	add	r4, pc, #656	; (adr r4, 20004890 <screen+0x1c2f>)
20004601:	d02a      	beq.n	20004659 <screen+0x19f8>
20004603:	1080      	asrs	r0, r0, #2
20004605:	2255      	movs	r2, #85	; 0x55
20004607:	a1aa      	add	r1, pc, #680	; (adr r1, 200048b0 <screen+0x1c4f>)
20004609:	0040      	lsls	r0, r0, #1
2000460b:	0212      	lsls	r2, r2, #8
2000460d:	0002      	movs	r2, r0
2000460f:	a100      	add	r1, pc, #0	; (adr r1, 20004610 <screen+0x19af>)
20004611:	9020      	str	r0, [sp, #128]	; 0x80
20004613:	4090      	lsls	r0, r2
20004615:	2008      	movs	r0, #8
20004617:	3f82      	subs	r7, #130	; 0x82
20004619:	8548      	strh	r0, [r1, #42]	; 0x2a
2000461b:	1200      	asrs	r0, r0, #8
2000461d:	80a2      	strh	r2, [r4, #4]
2000461f:	0950      	lsrs	r0, r2, #5
20004621:	da5f      	bge.n	200046e3 <screen+0x1a82>
20004623:	2aa2      	cmp	r2, #162	; 0xa2
20004625:	0215      	lsls	r5, r2, #8
20004627:	b70b      			; <UNDEFINED> instruction: 0xb70b
20004629:	ac14      	add	r4, sp, #80	; 0x50
2000462b:	91b2      	str	r1, [sp, #712]	; 0x2c8
2000462d:	0841      	lsrs	r1, r0, #1
2000462f:	0110      	lsls	r0, r2, #4
20004631:	09aa      	lsrs	r2, r5, #6
20004633:	2205      	movs	r2, #5
20004635:	4510      	cmp	r0, r2
20004637:	0052      	lsls	r2, r2, #1
20004639:	a892      	add	r0, sp, #584	; 0x248
2000463b:	8914      	ldrh	r4, [r2, #8]
2000463d:	2848      	cmp	r0, #72	; 0x48
2000463f:	2448      	movs	r4, #72	; 0x48
20004641:	8888      	ldrh	r0, [r1, #4]
20004643:	2800      	cmp	r0, #0
20004645:	0004      	movs	r4, r0
20004647:	0220      	lsls	r0, r4, #8
20004649:	5710      	ldrsb	r0, [r2, r4]
2000464b:	5080      	str	r0, [r0, r2]
2000464d:	8048      	strh	r0, [r1, #2]
2000464f:	2408      	movs	r4, #8
20004651:	4022      	ands	r2, r4
20004653:	ea1f 9054 			; <UNDEFINED> instruction: 0xea1f9054
20004657:	0088      	lsls	r0, r1, #2
20004659:	0825      	lsrs	r5, r4, #32
2000465b:	1201      	asrs	r1, r0, #8
2000465d:	0490      	lsls	r0, r2, #18
2000465f:	8010      	strh	r0, [r2, #0]
20004661:	9540      	str	r5, [sp, #256]	; 0x100
20004663:	5245      	strh	r5, [r0, r1]
20004665:	8850      	ldrh	r0, [r2, #2]
20004667:	0202      	lsls	r2, r0, #8
20004669:	4880      	ldr	r0, [pc, #512]	; (2000486c <screen+0x1c0b>)
2000466b:	a24a      	add	r2, pc, #296	; (adr r2, 20004794 <screen+0x1b33>)
2000466d:	2081      	movs	r0, #129	; 0x81
2000466f:	0204      	lsls	r4, r0, #8
20004671:	8000      	strh	r0, [r0, #0]
20004673:	4002      	ands	r2, r0
20004675:	9102      	str	r1, [sp, #8]
20004677:	0211      	lsls	r1, r2, #8
20004679:	8000      	strh	r0, [r0, #0]
2000467b:	5d44      	ldrb	r4, [r0, r5]
2000467d:	0555      	lsls	r5, r2, #21
2000467f:	2002      	movs	r0, #2
20004681:	00a1      	lsls	r1, r4, #2
20004683:	0a88      	lsrs	r0, r1, #10
20004685:	ea9f d5d2 			; <UNDEFINED> instruction: 0xea9fd5d2
20004689:	4852      	ldr	r0, [pc, #328]	; (200047d4 <screen+0x1b73>)
2000468b:	4104      	asrs	r4, r0
2000468d:	4954      	ldr	r1, [pc, #336]	; (200047e0 <screen+0x1b7f>)
2000468f:	a94a      	add	r1, sp, #296	; 0x128
20004691:	0044      	lsls	r4, r0, #1
20004693:	0102      	lsls	r2, r0, #4
20004695:	aa90      	add	r2, sp, #576	; 0x240
20004697:	51aa      	str	r2, [r5, r6]
20004699:	1040      	asrs	r0, r0, #1
2000469b:	822a      	strh	r2, [r5, #16]
2000469d:	942a      	str	r4, [sp, #168]	; 0xa8
2000469f:	0454      	lsls	r4, r2, #17
200046a1:	10a1      	asrs	r1, r4, #2
200046a3:	1292      	asrs	r2, r2, #10
200046a5:	9250      	str	r2, [sp, #320]	; 0x140
200046a7:	4448      	add	r0, r9
200046a9:	4800      	ldr	r0, [pc, #0]	; (200046ac <screen+0x1a4b>)
200046ab:	0942      	lsrs	r2, r0, #5
200046ad:	2f01      	cmp	r7, #1
200046af:	a400      	add	r4, pc, #0	; (adr r4, 200046b0 <screen+0x1a4f>)
200046b1:	08a8      	lsrs	r0, r5, #2
200046b3:	a848      	add	r0, sp, #288	; 0x120
200046b5:	8022      	strh	r2, [r4, #0]
200046b7:	b52f      	push	{r0, r1, r2, r3, r5, lr}
200046b9:	fe55 0040 	cdp2	0, 5, cr0, cr5, cr0, {2}
200046bd:	2a91      	cmp	r2, #145	; 0x91
200046bf:	8500      	strh	r0, [r0, #40]	; 0x28
200046c1:	4440      	add	r0, r8
200046c3:	2201      	movs	r2, #1
200046c5:	4a08      	ldr	r2, [pc, #32]	; (200046e8 <screen+0x1a87>)
200046c7:	97aa      	str	r7, [sp, #680]	; 0x2a8
200046c9:	44d5      	add	sp, sl
200046cb:	4509      	cmp	r1, r1
200046cd:	5455      	strb	r5, [r2, r1]
200046cf:	c992      	ldmia	r1, {r1, r4, r7}
200046d1:	9000      	str	r0, [sp, #0]
200046d3:	0a14      	lsrs	r4, r2, #8
200046d5:	0000      	movs	r0, r0
200046d7:	8004      	strh	r4, [r0, #0]
200046d9:	a002      	add	r0, pc, #8	; (adr r0, 200046e4 <screen+0x1a83>)
200046db:	0014      	movs	r4, r2
200046dd:	0008      	movs	r0, r1
200046df:	3628      	adds	r6, #40	; 0x28
200046e1:	1124      	asrs	r4, r4, #4
200046e3:	8200      	strh	r0, [r0, #16]
200046e5:	0222      	lsls	r2, r4, #8
200046e7:	2514      	movs	r5, #20
200046e9:	d507      	bpl.n	200046fb <screen+0x1a9a>
200046eb:	fb2b 80ba 			; <UNDEFINED> instruction: 0xfb2b80ba
200046ef:	aa0a      	add	r2, sp, #40	; 0x28
200046f1:	2a12      	cmp	r2, #18
200046f3:	10a0      	asrs	r0, r4, #2
200046f5:	0088      	lsls	r0, r1, #2
200046f7:	0140      	lsls	r0, r0, #5
200046f9:	7f42      	ldrb	r2, [r0, #29]
200046fb:	527d      	strh	r5, [r7, r1]
200046fd:	0140      	lsls	r0, r0, #5
200046ff:	e92e a52a 	stmdb	lr!, {r1, r3, r5, r8, sl, sp, pc}
20004703:	0254      	lsls	r4, r2, #9
20004705:	8048      	strh	r0, [r1, #2]
20004707:	9254      	str	r2, [sp, #336]	; 0x150
20004709:	a440      	add	r4, pc, #256	; (adr r4, 2000480c <screen+0x1bab>)
2000470b:	2092      	movs	r0, #146	; 0x92
2000470d:	0101      	lsls	r1, r0, #4
2000470f:	1200      	asrs	r0, r0, #8
20004711:	9942      	ldr	r1, [sp, #264]	; 0x108
20004713:	a402      	add	r4, pc, #8	; (adr r4, 2000471c <screen+0x1abb>)
20004715:	2044      	movs	r0, #68	; 0x44
20004717:	a890      	add	r0, sp, #576	; 0x240
20004719:	0020      	movs	r0, r4
2000471b:	ea57 ad97 			; <UNDEFINED> instruction: 0xea57ad97
2000471f:	22c4      	movs	r2, #196	; 0xc4
20004721:	2b55      	cmp	r3, #85	; 0x55
20004723:	1040      	asrs	r0, r0, #1
20004725:	0289      	lsls	r1, r1, #10
20004727:	0820      	lsrs	r0, r4, #32
20004729:	4902      	ldr	r1, [pc, #8]	; (20004734 <screen+0x1ad3>)
2000472b:	2c94      	cmp	r4, #148	; 0x94
2000472d:	94b6      	str	r4, [sp, #728]	; 0x2d8
2000472f:	2a00      	cmp	r2, #0
20004731:	f4fb 5495 			; <UNDEFINED> instruction: 0xf4fb5495
20004735:	d0aa      	beq.n	2000468d <screen+0x1a2c>
20004737:	1522      	asrs	r2, r4, #20
20004739:	2101      	movs	r1, #1
2000473b:	4012      	ands	r2, r2
2000473d:	8802      	ldrh	r2, [r0, #0]
2000473f:	9048      	str	r0, [sp, #288]	; 0x120
20004741:	0000      	movs	r0, r0
20004743:	2408      	movs	r4, #8
20004745:	8910      	ldrh	r0, [r2, #8]
20004747:	0810      	lsrs	r0, r2, #32
20004749:	0004      	movs	r4, r0
2000474b:	4a15      	ldr	r2, [pc, #84]	; (200047a0 <screen+0x1b3f>)
2000474d:	5587      	strb	r7, [r0, r6]
2000474f:	b54b      	push	{r0, r1, r3, r6, lr}
20004751:	0031      	movs	r1, r6
20004753:	ae24      	add	r6, sp, #144	; 0x90
20004755:	8a04      	ldrh	r4, [r0, #16]
20004757:	4820      	ldr	r0, [pc, #128]	; (200047d8 <screen+0x1b77>)
20004759:	8082      	strh	r2, [r0, #4]
2000475b:	0290      	lsls	r0, r2, #10
2000475d:	9aa2      	ldr	r2, [sp, #648]	; 0x288
2000475f:	a2a4      	add	r2, pc, #656	; (adr r2, 200049f0 <screen+0x1d8f>)
20004761:	4192      	sbcs	r2, r2
20004763:	3e15      	subs	r6, #21
20004765:	4b25      	ldr	r3, [pc, #148]	; (200047fc <screen+0x1b9b>)
20004767:	0b53      	lsrs	r3, r2, #13
20004769:	00a8      	lsls	r0, r5, #2
2000476b:	9454      	str	r4, [sp, #336]	; 0x150
2000476d:	9240      	str	r2, [sp, #256]	; 0x100
2000476f:	5024      	str	r4, [r4, r0]
20004771:	0204      	lsls	r4, r0, #8
20004773:	4420      	add	r0, r4
20004775:	92a0      	str	r2, [sp, #640]	; 0x280
20004777:	5005      	str	r5, [r0, r0]
20004779:	0241      	lsls	r1, r0, #9
2000477b:	5211      	strh	r1, [r2, r0]
2000477d:	0040      	lsls	r0, r0, #1
2000477f:	ea53 5a21 	orrs.w	sl, r3, r1, asr #20
20004783:	8114      	strh	r4, [r2, #8]
20004785:	fb2b 2010 	smladx	r0, fp, r0, r2
20004789:	0280      	lsls	r0, r0, #10
2000478b:	0000      	movs	r0, r0
2000478d:	4802      	ldr	r0, [pc, #8]	; (20004798 <screen+0x1b37>)
2000478f:	4a94      	ldr	r2, [pc, #592]	; (200049e0 <screen+0x1d7f>)
20004791:	1458      	asrs	r0, r3, #17
20004793:	1400      	asrs	r0, r0, #16
20004795:	502d      	str	r5, [r5, r0]
20004797:	9195      	str	r1, [sp, #596]	; 0x254
20004799:	c0ad      	stmia	r0!, {r0, r2, r3, r5, r7}
2000479b:	9550      	str	r5, [sp, #320]	; 0x140
2000479d:	5523      	strb	r3, [r4, r4]
2000479f:	4012      	ands	r2, r2
200047a1:	8282      	strh	r2, [r0, #20]
200047a3:	2011      	movs	r0, #17
200047a5:	0001      	movs	r1, r0
200047a7:	4404      	add	r4, r0
200047a9:	2542      	movs	r5, #66	; 0x42
200047ab:	0004      	movs	r4, r0
200047ad:	0040      	lsls	r0, r0, #1
200047af:	aa14      	add	r2, sp, #80	; 0x50
200047b1:	a9a3      	add	r1, sp, #652	; 0x28c
200047b3:	ab48      	add	r3, sp, #288	; 0x120
200047b5:	204a      	movs	r0, #74	; 0x4a
200047b7:	df85      	svc	133	; 0x85
200047b9:	1440      	asrs	r0, r0, #17
200047bb:	a952      	add	r1, sp, #328	; 0x148
200047bd:	2424      	movs	r4, #36	; 0x24
200047bf:	0248      	lsls	r0, r1, #9
200047c1:	12d1      	asrs	r1, r2, #11
200047c3:	42d4      	cmn	r4, r2
200047c5:	8040      	strh	r0, [r0, #2]
200047c7:	a4aa      	add	r4, pc, #680	; (adr r4, 20004a70 <screen+0x1e0f>)
200047c9:	ad0a      	add	r5, sp, #40	; 0x28
200047cb:	4567      	cmp	r7, ip
200047cd:	0044      	lsls	r4, r0, #1
200047cf:	e291      	b.n	20004cf5 <screen+0x2094>
200047d1:	9280      	str	r2, [sp, #512]	; 0x200
200047d3:	5009      	str	r1, [r1, r0]
200047d5:	0880      	lsrs	r0, r0, #2
200047d7:	1200      	asrs	r0, r0, #8
200047d9:	1141      	asrs	r1, r0, #5
200047db:	4815      	ldr	r0, [pc, #84]	; (20004830 <screen+0x1bcf>)
200047dd:	4820      	ldr	r0, [pc, #128]	; (20004860 <screen+0x1bff>)
200047df:	4902      	ldr	r1, [pc, #8]	; (200047e8 <screen+0x1b87>)
200047e1:	0100      	lsls	r0, r0, #4
200047e3:	d555      	bpl.n	20004891 <screen+0x1c30>
200047e5:	1004      	asrs	r4, r0, #32
200047e7:	44a1      	add	r9, r4
200047e9:	b75a      			; <UNDEFINED> instruction: 0xb75a
200047eb:	4902      	ldr	r1, [pc, #8]	; (200047f4 <screen+0x1b93>)
200047ed:	0400      	lsls	r0, r0, #16
200047ef:	0100      	lsls	r0, r0, #4
200047f1:	2801      	cmp	r0, #1
200047f3:	408a      	lsls	r2, r1
200047f5:	9122      	str	r1, [sp, #136]	; 0x88
200047f7:	2500      	movs	r5, #0
200047f9:	1029      	asrs	r1, r5, #32
200047fb:	452b      	cmp	r3, r5
200047fd:	6a7d      	ldr	r5, [r7, #36]	; 0x24
200047ff:	12a8      	asrs	r0, r5, #10
20004801:	a946      	add	r1, sp, #280	; 0x118
20004803:	4054      	eors	r4, r2
20004805:	2a22      	cmp	r2, #34	; 0x22
20004807:	4422      	add	r2, r4
20004809:	0088      	lsls	r0, r1, #2
2000480b:	4210      	tst	r0, r2
2000480d:	220d      	movs	r2, #13
2000480f:	0082      	lsls	r2, r0, #2
20004811:	1000      	asrs	r0, r0, #32
20004813:	5515      	strb	r5, [r2, r4]
20004815:	b459      	push	{r0, r3, r4, r6}
20004817:	84a2      	strh	r2, [r4, #36]	; 0x24
20004819:	110a      	asrs	r2, r1, #4
2000481b:	5b0b      	ldrh	r3, [r1, r4]
2000481d:	1210      	asrs	r0, r2, #8
2000481f:	a154      	add	r1, pc, #336	; (adr r1, 20004970 <screen+0x1d0f>)
20004821:	2049      	movs	r0, #73	; 0x49
20004823:	0124      	lsls	r4, r4, #4
20004825:	0961      	lsrs	r1, r4, #5
20004827:	0410      	lsls	r0, r2, #16
20004829:	8004      	strh	r4, [r0, #0]
2000482b:	0004      	movs	r4, r0
2000482d:	b285      	uxth	r5, r0
2000482f:	b597      	push	{r0, r1, r2, r4, r7, lr}
20004831:	4102      	asrs	r2, r0
20004833:	3335      	adds	r3, #53	; 0x35
20004835:	1101      	asrs	r1, r0, #4
20004837:	9004      	str	r0, [sp, #16]
20004839:	0088      	lsls	r0, r1, #2
2000483b:	2400      	movs	r4, #0
2000483d:	0085      	lsls	r5, r0, #2
2000483f:	4815      	ldr	r0, [pc, #84]	; (20004894 <screen+0x1c33>)
20004841:	0210      	lsls	r0, r2, #8
20004843:	2449      	movs	r4, #73	; 0x49
20004845:	0c40      	lsrs	r0, r0, #17
20004847:	d535      	bpl.n	200048b5 <screen+0x1c54>
20004849:	2128      	movs	r1, #40	; 0x28
2000484b:	8000      	strh	r0, [r0, #0]
2000484d:	af44      	add	r7, sp, #272	; 0x110
2000484f:	4940      	ldr	r1, [pc, #256]	; (20004950 <screen+0x1cef>)
20004851:	1440      	asrs	r0, r0, #17
20004853:	0800      	lsrs	r0, r0, #32
20004855:	a480      	add	r4, pc, #512	; (adr r4, 20004a58 <screen+0x1df7>)
20004857:	2094      	movs	r0, #148	; 0x94
20004859:	0240      	lsls	r0, r0, #9
2000485b:	0040      	lsls	r0, r0, #1
2000485d:	2040      	movs	r0, #64	; 0x40
2000485f:	540b      	strb	r3, [r1, r0]
20004861:	54db      	strb	r3, [r3, r3]
20004863:	08a8      	lsrs	r0, r5, #2
20004865:	f597 4450 			; <UNDEFINED> instruction: 0xf5974450
20004869:	4a12      	ldr	r2, [pc, #72]	; (200048b4 <screen+0x1c53>)
2000486b:	0555      	lsls	r5, r2, #21
2000486d:	8000      	strh	r0, [r0, #0]
2000486f:	4920      	ldr	r1, [pc, #128]	; (200048f0 <screen+0x1c8f>)
20004871:	251d      	movs	r5, #29
20004873:	4844      	ldr	r0, [pc, #272]	; (20004984 <screen+0x1d23>)
20004875:	0100      	lsls	r0, r0, #4
20004877:	6a09      	ldr	r1, [r1, #32]
20004879:	ea74 0482 	orns	r4, r4, r2, lsl #2
2000487d:	4925      	ldr	r1, [pc, #148]	; (20004914 <screen+0x1cb3>)
2000487f:	1100      	asrs	r0, r0, #4
20004881:	0504      	lsls	r4, r0, #20
20004883:	802a      	strh	r2, [r5, #0]
20004885:	82a4      	strh	r4, [r4, #20]
20004887:	0114      	lsls	r4, r2, #4
20004889:	0251      	lsls	r1, r2, #9
2000488b:	8804      	ldrh	r4, [r0, #0]
2000488d:	2201      	movs	r2, #1
2000488f:	8200      	strh	r0, [r0, #16]
20004891:	ea26 a22a 			; <UNDEFINED> instruction: 0xea26a22a
20004895:	0200      	lsls	r0, r0, #8
20004897:	aa55      	add	r2, sp, #340	; 0x154
20004899:	808a      	strh	r2, [r1, #4]
2000489b:	2189      	movs	r1, #137	; 0x89
2000489d:	1000      	asrs	r0, r0, #32
2000489f:	0442      	lsls	r2, r0, #17
200048a1:	0089      	lsls	r1, r1, #2
200048a3:	905a      	str	r0, [sp, #360]	; 0x168
200048a5:	0010      	movs	r0, r2
200048a7:	9404      	str	r4, [sp, #16]
200048a9:	5a05      	ldrh	r5, [r0, r0]
200048ab:	b46a      	push	{r1, r3, r5, r6}
200048ad:	9050      	str	r0, [sp, #320]	; 0x140
200048af:	2000      	movs	r0, #0
200048b1:	4491      	add	r9, r2
200048b3:	2410      	movs	r4, #16
200048b5:	2aa0      	cmp	r2, #160	; 0xa0
200048b7:	2000      	movs	r0, #0
200048b9:	5401      	strb	r1, [r0, r0]
200048bb:	08a4      	lsrs	r4, r4, #2
200048bd:	0210      	lsls	r0, r2, #8
200048bf:	0090      	lsls	r0, r2, #2
200048c1:	0004      	movs	r4, r0
200048c3:	7a07      	ldrb	r7, [r0, #8]
200048c5:	59a1      	ldr	r1, [r4, r6]
200048c7:	4852      	ldr	r0, [pc, #328]	; (20004a10 <screen+0x1daf>)
200048c9:	540a      	strb	r2, [r1, r0]
200048cb:	2241      	movs	r2, #65	; 0x41
200048cd:	8424      	strh	r4, [r4, #32]
200048cf:	4100      	asrs	r0, r0
200048d1:	1010      	asrs	r0, r2, #32
200048d3:	4800      	ldr	r0, [pc, #0]	; (200048d4 <screen+0x1c73>)
200048d5:	a53a      	add	r5, pc, #232	; (adr r5, 200049c0 <screen+0x1d5f>)
200048d7:	2142      	movs	r1, #66	; 0x42
200048d9:	0020      	movs	r0, r4
200048db:	7701      	strb	r1, [r0, #28]
200048dd:	d5d2      	bpl.n	20004885 <screen+0x1c24>
200048df:	0004      	movs	r4, r0
200048e1:	0415      	lsls	r5, r2, #16
200048e3:	0040      	lsls	r0, r0, #1
200048e5:	0241      	lsls	r1, r0, #9
200048e7:	0095      	lsls	r5, r2, #2
200048e9:	8994      	ldrh	r4, [r2, #12]
200048eb:	0152      	lsls	r2, r2, #5
200048ed:	4049      	eors	r1, r1
200048ef:	4840      	ldr	r0, [pc, #256]	; (200049f0 <screen+0x1d8f>)
200048f1:	8800      	ldrh	r0, [r0, #0]
200048f3:	0110      	lsls	r0, r2, #4
200048f5:	7f25      	ldrb	r5, [r4, #28]
200048f7:	ed5f 0100 	ldfe	f0, [pc, #-0]	; 200048f8 <screen+0x1c97>
200048fb:	2251      	movs	r2, #81	; 0x51
200048fd:	482c      	ldr	r0, [pc, #176]	; (200049b0 <screen+0x1d4f>)
200048ff:	401a      	ands	r2, r3
20004901:	0001      	movs	r1, r0
20004903:	4240      	negs	r0, r0
20004905:	0255      	lsls	r5, r2, #9
20004907:	5075      	str	r5, [r6, r1]
20004909:	8410      	strh	r0, [r2, #32]
2000490b:	5502      	strb	r2, [r0, r4]
2000490d:	bf0a      	itet	eq
2000490f:	6a25      	ldreq	r5, [r4, #32]
20004911:	44a1      	addne	r9, r4
20004913:	a180      	addeq	r1, pc, #512	; (adr r1, 20004b14 <screen+0x1eb3>)
20004915:	9204      	str	r2, [sp, #16]
20004917:	2904      	cmp	r1, #4
20004919:	5450      	strb	r0, [r2, r1]
2000491b:	1020      	asrs	r0, r4, #32
2000491d:	2008      	movs	r0, #8
2000491f:	01a0      	lsls	r0, r4, #6
20004921:	0101      	lsls	r1, r0, #4
20004923:	0022      	movs	r2, r4
20004925:	0840      	lsrs	r0, r0, #1
20004927:	5d0b      	ldrb	r3, [r1, r4]
20004929:	76f5      	strb	r5, [r6, #27]
2000492b:	04a0      	lsls	r0, r4, #18
2000492d:	11ad      	asrs	r5, r5, #6
2000492f:	804a      	strh	r2, [r1, #2]
20004931:	206b      	movs	r0, #107	; 0x6b
20004933:	0144      	lsls	r4, r0, #5
20004935:	0009      	movs	r1, r1
20004937:	4000      	ands	r0, r0
20004939:	4afd      	ldr	r2, [pc, #1012]	; (20004d30 <screen+0x20cf>)
2000493b:	0044      	lsls	r4, r0, #1
2000493d:	0048      	lsls	r0, r1, #1
2000493f:	9100      	str	r1, [sp, #0]
20004941:	ba57      	rev16	r7, r2
20004943:	1014      	asrs	r4, r2, #32
20004945:	120a      	asrs	r2, r1, #8
20004947:	0050      	lsls	r0, r2, #1
20004949:	0220      	lsls	r0, r4, #8
2000494b:	024a      	lsls	r2, r1, #9
2000494d:	8584      	strh	r4, [r0, #44]	; 0x2c
2000494f:	8a42      	ldrh	r2, [r0, #18]
20004951:	2095      	movs	r0, #149	; 0x95
20004953:	1204      	asrs	r4, r0, #8
20004955:	4200      	tst	r0, r0
20004957:	0000      	movs	r0, r0
20004959:	bf86      	itte	hi
2000495b:	d9df      	bls.n	2000491d <screen+0x1cbc>	; unpredictable <IT:hi>
2000495d:	8004      	strhhi	r4, [r0, #0]
2000495f:	eaaf 51b4 			; <UNDEFINED> instruction: 0xeaaf51b4
20004963:	a92d      	add	r1, sp, #180	; 0xb4
20004965:	0000      	movs	r0, r0
20004967:	1240      	asrs	r0, r0, #9
20004969:	0942      	lsrs	r2, r0, #5
2000496b:	2055      	movs	r0, #85	; 0x55
2000496d:	2200      	movs	r2, #0
2000496f:	9502      	str	r5, [sp, #8]
20004971:	6f02      	ldr	r2, [r0, #112]	; 0x70
20004973:	d4fd      	bmi.n	20004971 <screen+0x1d10>
20004975:	00a0      	lsls	r0, r4, #2
20004977:	4021      	ands	r1, r4
20004979:	2480      	movs	r4, #128	; 0x80
2000497b:	4809      	ldr	r0, [pc, #36]	; (200049a0 <screen+0x1d3f>)
2000497d:	10a0      	asrs	r0, r4, #2
2000497f:	2041      	movs	r0, #65	; 0x41
20004981:	0028      	movs	r0, r5
20004983:	04a4      	lsls	r4, r4, #18
20004985:	0400      	lsls	r0, r0, #16
20004987:	1081      	asrs	r1, r0, #2
20004989:	4200      	tst	r0, r0
2000498b:	572b      	ldrsb	r3, [r5, r4]
2000498d:	546b      	strb	r3, [r5, r1]
2000498f:	1000      	asrs	r0, r0, #32
20004991:	dfab      	svc	171	; 0xab
20004993:	20fd      	movs	r0, #253	; 0xfd
20004995:	aa1c      	add	r2, sp, #112	; 0x70
20004997:	0810      	lsrs	r0, r2, #32
20004999:	8024      	strh	r4, [r4, #0]
2000499b:	8110      	strh	r0, [r2, #8]
2000499d:	aa7a      	add	r2, sp, #488	; 0x1e8
2000499f:	8092      	strh	r2, [r2, #4]
200049a1:	48a8      	ldr	r0, [pc, #672]	; (20004c44 <screen+0x1fe3>)
200049a3:	bd20      	pop	{r5, pc}
200049a5:	b5b6      	push	{r1, r2, r4, r5, r7, lr}
200049a7:	0009      	movs	r1, r1
200049a9:	9208      	str	r2, [sp, #32]
200049ab:	8024      	strh	r4, [r4, #0]
200049ad:	0240      	lsls	r0, r0, #9
200049af:	4555      	cmp	r5, sl
200049b1:	1514      	asrs	r4, r2, #20
200049b3:	2495      	movs	r4, #149	; 0x95
200049b5:	10a9      	asrs	r1, r5, #2
200049b7:	4020      	ands	r0, r4
200049b9:	0024      	movs	r4, r4
200049bb:	0000      	movs	r0, r0
200049bd:	ab06      	add	r3, sp, #24
200049bf:	20b5      	movs	r0, #181	; 0xb5
200049c1:	0040      	lsls	r0, r0, #1
200049c3:	7d2d      	ldrb	r5, [r5, #20]
200049c5:	80e8      	strh	r0, [r5, #6]
200049c7:	2956      	cmp	r1, #86	; 0x56
200049c9:	a14a      	add	r1, pc, #296	; (adr r1, 20004af4 <screen+0x1e93>)
200049cb:	1210      	asrs	r0, r2, #8
200049cd:	0444      	lsls	r4, r0, #17
200049cf:	902a      	str	r0, [sp, #168]	; 0xa8
200049d1:	0a00      	lsrs	r0, r0, #8
200049d3:	1205      	asrs	r5, r0, #8
200049d5:	0284      	lsls	r4, r0, #10
200049d7:	14a9      	asrs	r1, r5, #18
200049d9:	41a0      	sbcs	r0, r4
200049db:	0405      	lsls	r5, r0, #16
200049dd:	0990      	lsrs	r0, r2, #6
200049df:	482a      	ldr	r0, [pc, #168]	; (20004a88 <screen+0x1e27>)
200049e1:	02a8      	lsls	r0, r5, #10
200049e3:	aa42      	add	r2, sp, #264	; 0x108
200049e5:	8170      	strh	r0, [r6, #10]
200049e7:	4044      	eors	r4, r0
200049e9:	0a81      	lsrs	r1, r0, #10
200049eb:	4080      	lsls	r0, r0
200049ed:	0802      	lsrs	r2, r0, #32
200049ef:	54ad      	strb	r5, [r5, r2]
200049f1:	82a8      	strh	r0, [r5, #20]
200049f3:	0209      	lsls	r1, r1, #8
200049f5:	db13      	blt.n	20004a1f <screen+0x1dbe>
200049f7:	6974      	ldr	r4, [r6, #20]
200049f9:	0515      	lsls	r5, r2, #20
200049fb:	a86a      	add	r0, sp, #424	; 0x1a8
200049fd:	4042      	eors	r2, r0
200049ff:	2502      	movs	r5, #2
20004a01:	556d      	strb	r5, [r5, r5]
20004a03:	2052      	movs	r0, #82	; 0x52
20004a05:	4451      	add	r1, sl
20004a07:	0000      	movs	r0, r0
20004a09:	aa04      	add	r2, sp, #16
20004a0b:	0444      	lsls	r4, r0, #17
20004a0d:	5012      	str	r2, [r2, r0]
20004a0f:	2040      	movs	r0, #64	; 0x40
20004a11:	0200      	lsls	r0, r0, #8
20004a13:	9124      	str	r1, [sp, #144]	; 0x90
20004a15:	bf10      	yield
20004a17:	282a      	cmp	r0, #42	; 0x2a
20004a19:	00a9      	lsls	r1, r5, #2
20004a1b:	0000      	movs	r0, r0
20004a1d:	0901      	lsrs	r1, r0, #4
20004a1f:	0010      	movs	r0, r2
20004a21:	d506      	bpl.n	20004a31 <screen+0x1dd0>
20004a23:	1044      	asrs	r4, r0, #1
20004a25:	2000      	movs	r0, #0
20004a27:	5740      	ldrsb	r0, [r0, r5]
20004a29:	90a2      	str	r0, [sp, #648]	; 0x288
20004a2b:	002a      	movs	r2, r5
20004a2d:	ae04      	add	r6, sp, #16
20004a2f:	0990      	lsrs	r0, r2, #6
20004a31:	8820      	ldrh	r0, [r4, #0]
20004a33:	48b4      	ldr	r0, [pc, #720]	; (20004d04 <screen+0x20a3>)
20004a35:	8a00      	ldrh	r0, [r0, #16]
20004a37:	52e1      	strh	r1, [r4, r3]
20004a39:	9290      	str	r2, [sp, #576]	; 0x240
20004a3b:	1540      	asrs	r0, r0, #21
20004a3d:	0010      	movs	r0, r2
20004a3f:	4209      	tst	r1, r1
20004a41:	8004      	strh	r4, [r0, #0]
20004a43:	2855      	cmp	r0, #85	; 0x55
20004a45:	0498      	lsls	r0, r3, #18
20004a47:	538a      	strh	r2, [r1, r6]
20004a49:	82c8      	strh	r0, [r1, #22]
20004a4b:	0852      	lsrs	r2, r2, #1
20004a4d:	2a04      	cmp	r2, #4
20004a4f:	00a4      	lsls	r4, r4, #2
20004a51:	0200      	lsls	r0, r0, #8
20004a53:	555f      	strb	r7, [r3, r5]
20004a55:	8022      	strh	r2, [r4, #0]
20004a57:	0080      	lsls	r0, r0, #2
20004a59:	2802      	cmp	r0, #2
20004a5b:	6490      	str	r0, [r2, #72]	; 0x48
20004a5d:	c08a      	stmia	r0!, {r1, r3, r7}
20004a5f:	2700      	movs	r7, #0
20004a61:	2001      	movs	r0, #1
20004a63:	020a      	lsls	r2, r1, #8
20004a65:	a516      	add	r5, pc, #88	; (adr r5, 20004ac0 <screen+0x1e5f>)
20004a67:	2324      	movs	r3, #36	; 0x24
20004a69:	8a52      	ldrh	r2, [r2, #18]
20004a6b:	0042      	lsls	r2, r0, #1
20004a6d:	aa12      	add	r2, sp, #72	; 0x48
20004a6f:	2082      	movs	r0, #130	; 0x82
20004a71:	082a      	lsrs	r2, r5, #32
20004a73:	04a0      	lsls	r0, r4, #18
20004a75:	4220      	tst	r0, r4
20004a77:	2255      	movs	r2, #85	; 0x55
20004a79:	3d27      	subs	r5, #39	; 0x27
20004a7b:	2825      	cmp	r0, #37	; 0x25
20004a7d:	80a8      	strh	r0, [r5, #4]
20004a7f:	8210      	strh	r0, [r2, #16]
20004a81:	4400      	add	r0, r0
20004a83:	2000      	movs	r0, #0
20004a85:	540d      	strb	r5, [r1, r0]
20004a87:	2490      	movs	r4, #144	; 0x90
20004a89:	0911      	lsrs	r1, r2, #4
20004a8b:	0408      	lsls	r0, r1, #16
20004a8d:	a20a      	add	r2, pc, #40	; (adr r2, 20004ab8 <screen+0x1e57>)
20004a8f:	a82a      	add	r0, sp, #168	; 0xa8
20004a91:	1821      	adds	r1, r4, r0
20004a93:	0048      	lsls	r0, r1, #1
20004a95:	3980      	subs	r1, #128	; 0x80
20004a97:	905a      	str	r0, [sp, #360]	; 0x168
20004a99:	9580      	str	r5, [sp, #512]	; 0x200
20004a9b:	2a95      	cmp	r2, #149	; 0x95
20004a9d:	0800      	lsrs	r0, r0, #32
20004a9f:	0a00      	lsrs	r0, r0, #8
20004aa1:	0150      	lsls	r0, r2, #5
20004aa3:	4011      	ands	r1, r2
20004aa5:	0010      	movs	r0, r2
20004aa7:	1145      	asrs	r5, r0, #5
20004aa9:	092a      	lsrs	r2, r5, #4
20004aab:	ea08 0250 	and.w	r2, r8, r0, lsr #1
20004aaf:	2244      	movs	r2, #68	; 0x44
20004ab1:	1440      	asrs	r0, r0, #17
20004ab3:	1081      	asrs	r1, r0, #2
20004ab5:	8240      	strh	r0, [r0, #18]
20004ab7:	aa4f      	add	r2, sp, #316	; 0x13c
20004ab9:	8044      	strh	r4, [r0, #2]
20004abb:	2000      	movs	r0, #0
20004abd:	9100      	str	r1, [sp, #0]
20004abf:	7451      	strb	r1, [r2, #17]
20004ac1:	920a      	str	r2, [sp, #40]	; 0x28
20004ac3:	c194      	stmia	r1!, {r2, r4, r7}
20004ac5:	8400      	strh	r0, [r0, #32]
20004ac7:	4829      	ldr	r0, [pc, #164]	; (20004b6c <screen+0x1f0b>)
20004ac9:	2a15      	cmp	r2, #21
20004acb:	5a02      	ldrh	r2, [r0, r0]
20004acd:	5efc      	ldrsh	r4, [r7, r3]
20004acf:	2080      	movs	r0, #128	; 0x80
20004ad1:	4a92      	ldr	r2, [pc, #584]	; (20004d1c <screen+0x20bb>)
20004ad3:	8884      	ldrh	r4, [r0, #4]
20004ad5:	8024      	strh	r4, [r4, #0]
20004ad7:	02a2      	lsls	r2, r4, #10
20004ad9:	4410      	add	r0, r2
20004adb:	80ac      	strh	r4, [r5, #4]
20004add:	24a5      	movs	r4, #165	; 0xa5
20004adf:	a88a      	add	r0, sp, #552	; 0x228
20004ae1:	80aa      	strh	r2, [r5, #4]
20004ae3:	4205      	tst	r5, r0
20004ae5:	4244      	negs	r4, r0
20004ae7:	0004      	movs	r4, r0
20004ae9:	d52e      	bpl.n	20004b49 <screen+0x1ee8>
20004aeb:	1211      	asrs	r1, r2, #8
20004aed:	0044      	lsls	r4, r0, #1
20004aef:	0020      	movs	r0, r4
20004af1:	b104      	cbz	r4, 20004af5 <screen+0x1e94>
20004af3:	a452      	add	r4, pc, #328	; (adr r4, 20004c3c <screen+0x1fdb>)
20004af5:	2855      	cmp	r0, #85	; 0x55
20004af7:	0022      	movs	r2, r4
20004af9:	2980      	cmp	r1, #128	; 0x80
20004afb:	844a      	strh	r2, [r1, #34]	; 0x22
20004afd:	2f90      	cmp	r7, #144	; 0x90
20004aff:	74d1      	strb	r1, [r2, #19]
20004b01:	0004      	movs	r4, r0
20004b03:	2500      	movs	r5, #0
20004b05:	0020      	movs	r0, r4
20004b07:	2212      	movs	r2, #18
20004b09:	2008      	movs	r0, #8
20004b0b:	2249      	movs	r2, #73	; 0x49
20004b0d:	2254      	movs	r2, #84	; 0x54
20004b0f:	5215      	strh	r5, [r2, r0]
20004b11:	4220      	tst	r0, r4
20004b13:	1024      	asrs	r4, r4, #32
20004b15:	5510      	strb	r0, [r2, r4]
20004b17:	0801      	lsrs	r1, r0, #32
20004b19:	0990      	lsrs	r0, r2, #6
20004b1b:	b41f      	push	{r0, r1, r2, r3, r4}
20004b1d:	4084      	lsls	r4, r0
20004b1f:	8400      	strh	r0, [r0, #32]
20004b21:	a584      	add	r5, pc, #528	; (adr r5, 20004d34 <screen+0x20d3>)
20004b23:	fc52 920a 	mrrc2	2, 0, r9, r2, cr10
20004b27:	4009      	ands	r1, r1
20004b29:	1200      	asrs	r0, r0, #8
20004b2b:	5114      	str	r4, [r2, r4]
20004b2d:	5115      	str	r5, [r2, r4]
20004b2f:	0201      	lsls	r1, r0, #8
20004b31:	d822      	bhi.n	20004b79 <screen+0x1f18>
20004b33:	0400      	lsls	r0, r0, #16
20004b35:	8a94      	ldrh	r4, [r2, #20]
20004b37:	2492      	movs	r4, #146	; 0x92
20004b39:	8895      	ldrh	r5, [r2, #4]
20004b3b:	00a1      	lsls	r1, r4, #2
20004b3d:	5925      	ldr	r5, [r4, r4]
20004b3f:	086d      	lsrs	r5, r5, #1
20004b41:	28a1      	cmp	r0, #161	; 0xa1
20004b43:	988a      	ldr	r0, [sp, #552]	; 0x228
20004b45:	42a9      	cmp	r1, r5
20004b47:	2089      	movs	r0, #137	; 0x89
20004b49:	2080      	movs	r0, #128	; 0x80
20004b4b:	2040      	movs	r0, #64	; 0x40
20004b4d:	d25f      	bcs.n	20004c0f <screen+0x1fae>
20004b4f:	0950      	lsrs	r0, r2, #5
20004b51:	0010      	movs	r0, r2
20004b53:	0000      	movs	r0, r0
20004b55:	7509      	strb	r1, [r1, #20]
20004b57:	4821      	ldr	r0, [pc, #132]	; (20004bdc <screen+0x1f7b>)
20004b59:	01a5      	lsls	r5, r4, #6
20004b5b:	4008      	ands	r0, r1
20004b5d:	294a      	cmp	r1, #74	; 0x4a
20004b5f:	9496      	str	r4, [sp, #600]	; 0x258
20004b61:	a848      	add	r0, sp, #288	; 0x120
20004b63:	e08f      	b.n	20004c85 <screen+0x2024>
20004b65:	8010      	strh	r0, [r2, #0]
20004b67:	2601      	movs	r6, #1
20004b69:	80a0      	strh	r0, [r4, #4]
20004b6b:	a204      	add	r2, pc, #16	; (adr r2, 20004b7c <screen+0x1f1b>)
20004b6d:	0988      	lsrs	r0, r1, #6
20004b6f:	ac4a      	add	r4, sp, #296	; 0x128
20004b71:	8094      	strh	r4, [r2, #4]
20004b73:	020a      	lsls	r2, r1, #8
20004b75:	5222      	strh	r2, [r4, r0]
20004b77:	0824      	lsrs	r4, r4, #32
20004b79:	8520      	strh	r0, [r4, #40]	; 0x28
20004b7b:	0409      	lsls	r1, r1, #16
20004b7d:	8224      	strh	r4, [r4, #16]
20004b7f:	6a1f      	ldr	r7, [r3, #32]
20004b81:	2005      	movs	r0, #5
20004b83:	2000      	movs	r0, #0
20004b85:	1211      	asrs	r1, r2, #8
20004b87:	fa55 5414 			; <UNDEFINED> instruction: 0xfa555414
20004b8b:	0428      	lsls	r0, r5, #16
20004b8d:	0100      	lsls	r0, r0, #4
20004b8f:	921c      	str	r2, [sp, #112]	; 0x70
20004b91:	a20a      	add	r2, pc, #40	; (adr r2, 20004bbc <screen+0x1f5b>)
20004b93:	0202      	lsls	r2, r0, #8
20004b95:	4155      	adcs	r5, r2
20004b97:	1100      	asrs	r0, r0, #4
20004b99:	0324      	lsls	r4, r4, #12
20004b9b:	124a      	asrs	r2, r1, #9
20004b9d:	5450      	strb	r0, [r2, r1]
20004b9f:	4041      	eors	r1, r0
20004ba1:	f62a 04ae 			; <UNDEFINED> instruction: 0xf62a04ae
20004ba5:	a0a0      	add	r0, pc, #640	; (adr r0, 20004e28 <screen+0x21c7>)
20004ba7:	a80a      	add	r0, sp, #40	; 0x28
20004ba9:	41a9      	sbcs	r1, r5
20004bab:	5012      	str	r2, [r2, r0]
20004bad:	1120      	asrs	r0, r4, #4
20004baf:	0000      	movs	r0, r0
20004bb1:	d5bf      	bpl.n	20004b33 <screen+0x1ed2>
20004bb3:	4450      	add	r0, sl
20004bb5:	8484      	strh	r4, [r0, #36]	; 0x24
20004bb7:	4040      	eors	r0, r0
20004bb9:	7c05      	ldrb	r5, [r0, #16]
20004bbb:	1342      	asrs	r2, r0, #13
20004bbd:	4044      	eors	r4, r0
20004bbf:	0421      	lsls	r1, r4, #16
20004bc1:	414a      	adcs	r2, r1
20004bc3:	94aa      	str	r4, [sp, #680]	; 0x2a8
20004bc5:	a9a0      	add	r1, sp, #640	; 0x280
20004bc7:	886e      	ldrh	r6, [r5, #2]
20004bc9:	0002      	movs	r2, r0
20004bcb:	5101      	str	r1, [r0, r4]
20004bcd:	8090      	strh	r0, [r2, #4]
20004bcf:	1205      	asrs	r5, r0, #8
20004bd1:	0024      	movs	r4, r4
20004bd3:	ed5c 5022 	ldcl	0, cr5, [ip, #-136]	; 0xffffff78
20004bd7:	0915      	lsrs	r5, r2, #4
20004bd9:	6255      	str	r5, [r2, #36]	; 0x24
20004bdb:	2814      	cmp	r0, #20
20004bdd:	4a84      	ldr	r2, [pc, #528]	; (20004df0 <screen+0x218f>)
20004bdf:	4081      	lsls	r1, r0
20004be1:	242a      	movs	r4, #42	; 0x2a
20004be3:	b23d      	sxth	r5, r7
20004be5:	1005      	asrs	r5, r0, #32
20004be7:	0010      	movs	r0, r2
20004be9:	0902      	lsrs	r2, r0, #4
20004beb:	fc55 8008 	mrrc2	0, 0, r8, r5, cr8
20004bef:	0010      	movs	r0, r2
20004bf1:	1104      	asrs	r4, r0, #4
20004bf3:	9235      	str	r2, [sp, #212]	; 0xd4
20004bf5:	484b      	ldr	r0, [pc, #300]	; (20004d24 <screen+0x20c3>)
20004bf7:	1215      	asrs	r5, r2, #8
20004bf9:	00b4      	lsls	r4, r6, #2
20004bfb:	4408      	add	r0, r1
20004bfd:	0a94      	lsrs	r4, r2, #10
20004bff:	2ac5      	cmp	r2, #197	; 0xc5
20004c01:	4490      	add	r8, r2
20004c03:	aa80      	add	r2, sp, #512	; 0x200
20004c05:	b427      	push	{r0, r1, r2, r5}
20004c07:	019a      	lsls	r2, r3, #6
20004c09:	b554      	push	{r2, r4, r6, lr}
20004c0b:	906d      	str	r0, [sp, #436]	; 0x1b4
20004c0d:	84a2      	strh	r2, [r4, #36]	; 0x24
20004c0f:	2a51      	cmp	r2, #81	; 0x51
20004c11:	0800      	lsrs	r0, r0, #32
20004c13:	8280      	strh	r0, [r0, #20]
20004c15:	d8bf      	bhi.n	20004b97 <screen+0x1f36>
20004c17:	01a0      	lsls	r0, r4, #6
20004c19:	0000      	movs	r0, r0
20004c1b:	2008      	movs	r0, #8
20004c1d:	fd17 2012 	ldc2	0, cr2, [r7, #-72]	; 0xffffffb8
20004c21:	1181      	asrs	r1, r0, #6
20004c23:	0400      	lsls	r0, r0, #16
20004c25:	4077      	eors	r7, r6
20004c27:	a58b      	add	r5, pc, #556	; (adr r5, 20004e54 <screen+0x21f3>)
20004c29:	4a42      	ldr	r2, [pc, #264]	; (20004d34 <screen+0x20d3>)
20004c2b:	4092      	lsls	r2, r2
20004c2d:	0020      	movs	r0, r4
20004c2f:	4501      	cmp	r1, r0
20004c31:	40a2      	lsls	r2, r4
20004c33:	0001      	movs	r1, r0
20004c35:	002a      	movs	r2, r5
20004c37:	4a51      	ldr	r2, [pc, #324]	; (20004d7c <screen+0x211b>)
20004c39:	0049      	lsls	r1, r1, #1
20004c3b:	6e2b      	ldr	r3, [r5, #96]	; 0x60
20004c3d:	44b6      	add	lr, r6
20004c3f:	2219      	movs	r2, #25
20004c41:	8900      	ldrh	r0, [r0, #8]
20004c43:	a242      	add	r2, pc, #264	; (adr r2, 20004d4c <screen+0x20eb>)
20004c45:	1014      	asrs	r4, r2, #32
20004c47:	657f      	str	r7, [r7, #84]	; 0x54
20004c49:	a414      	add	r4, pc, #80	; (adr r4, 20004c9c <screen+0x203b>)
20004c4b:	2422      	movs	r4, #34	; 0x22
20004c4d:	8540      	strh	r0, [r0, #42]	; 0x2a
20004c4f:	fc4a 8400 	mcrr2	4, 0, r8, sl, cr0
20004c53:	0004      	movs	r4, r0
20004c55:	4920      	ldr	r1, [pc, #128]	; (20004cd8 <screen+0x2077>)
20004c57:	047f      	lsls	r7, r7, #17
20004c59:	a86f      	add	r0, sp, #444	; 0x1bc
20004c5b:	3729      	adds	r7, #41	; 0x29
20004c5d:	0468      	lsls	r0, r5, #17
20004c5f:	1281      	asrs	r1, r0, #10
20004c61:	1050      	asrs	r0, r2, #1
20004c63:	95c8      	str	r5, [sp, #800]	; 0x320
20004c65:	1154      	asrs	r4, r2, #5
20004c67:	5100      	str	r0, [r0, r4]
20004c69:	212d      	movs	r1, #45	; 0x2d
20004c6b:	492c      	ldr	r1, [pc, #176]	; (20004d1c <screen+0x20bb>)
20004c6d:	dd5d      	ble.n	20004d2b <screen+0x20ca>
20004c6f:	91d8      	str	r1, [sp, #864]	; 0x360
20004c71:	494a      	ldr	r1, [pc, #296]	; (20004d9c <screen+0x213b>)
20004c73:	254a      	movs	r5, #74	; 0x4a
20004c75:	0008      	movs	r0, r1
20004c77:	850a      	strh	r2, [r1, #40]	; 0x28
20004c79:	d87f      	bhi.n	20004d7b <screen+0x211a>
20004c7b:	0080      	lsls	r0, r0, #2
20004c7d:	0000      	movs	r0, r0
20004c7f:	1002      	asrs	r2, r0, #32
20004c81:	fd17 0028 	ldc2	0, cr0, [r7, #-160]	; 0xffffff60
20004c85:	0020      	movs	r0, r4
20004c87:	2104      	movs	r1, #4
20004c89:	a1ef      	add	r1, pc, #956	; (adr r1, 20005048 <screen+0x23e7>)
20004c8b:	d253      	bcs.n	20004d35 <screen+0x20d4>
20004c8d:	a884      	add	r0, sp, #528	; 0x210
20004c8f:	1000      	asrs	r0, r0, #32
20004c91:	0000      	movs	r0, r0
20004c93:	4505      	cmp	r5, r0
20004c95:	aa40      	add	r2, sp, #256	; 0x100
20004c97:	00a9      	lsls	r1, r5, #2
20004c99:	0854      	lsrs	r4, r2, #1
20004c9b:	944a      	str	r4, [sp, #296]	; 0x128
20004c9d:	00b5      	lsls	r5, r6, #2
20004c9f:	750b      	strb	r3, [r1, #20]
20004ca1:	0424      	lsls	r4, r4, #16
20004ca3:	1014      	asrs	r4, r2, #32
20004ca5:	9210      	str	r2, [sp, #64]	; 0x40
20004ca7:	88a2      	ldrh	r2, [r4, #4]
20004ca9:	20a0      	movs	r0, #160	; 0xa0
20004cab:	65ff      	str	r7, [r7, #92]	; 0x5c
20004cad:	912a      	str	r1, [sp, #168]	; 0xa8
20004caf:	8010      	strh	r0, [r2, #0]
20004cb1:	4108      	asrs	r0, r1
20004cb3:	fe25 1002 	cdp2	0, 2, cr1, cr5, cr2, {0}
20004cb7:	4180      	sbcs	r0, r0
20004cb9:	0a11      	lsrs	r1, r2, #8
20004cbb:	04f7      	lsls	r7, r6, #19
20004cbd:	6aaf      	ldr	r7, [r5, #40]	; 0x28
20004cbf:	2251      	movs	r2, #81	; 0x51
20004cc1:	4092      	lsls	r2, r2
20004cc3:	4408      	add	r0, r1
20004cc5:	12a0      	asrs	r0, r4, #10
20004cc7:	6dc4      	ldr	r4, [r0, #92]	; 0x5c
20004cc9:	4a55      	ldr	r2, [pc, #340]	; (20004e20 <screen+0x21bf>)
20004ccb:	44a1      	add	r9, r4
20004ccd:	4220      	tst	r0, r4
20004ccf:	02da      	lsls	r2, r3, #11
20004cd1:	9255      	str	r2, [sp, #340]	; 0x154
20004cd3:	a148      	add	r1, pc, #288	; (adr r1, 20004df4 <screen+0x2193>)
20004cd5:	822a      	strh	r2, [r5, #16]
20004cd7:	4995      	ldr	r1, [pc, #596]	; (20004f2c <screen+0x22cb>)
20004cd9:	2254      	movs	r2, #84	; 0x54
20004cdb:	4a05      	ldr	r2, [pc, #20]	; (20004cf0 <screen+0x208f>)
20004cdd:	d8fd      	bhi.n	20004cdb <screen+0x207a>
20004cdf:	0480      	lsls	r0, r0, #18
20004ce1:	1202      	asrs	r2, r0, #8
20004ce3:	0820      	lsrs	r0, r4, #32
20004ce5:	fd17 4028 	ldc2	0, cr4, [r7, #-160]	; 0xffffff60
20004ce9:	0404      	lsls	r4, r0, #16
20004ceb:	a500      	add	r5, pc, #0	; (adr r5, 20004cec <screen+0x208b>)
20004ced:	41df      	rors	r7, r3
20004cef:	f457 8884 	bne.w	1ff9bdfb <__etext+0x1ff7b19b>
20004cf3:	0000      	movs	r0, r0
20004cf5:	0001      	movs	r1, r0
20004cf7:	0809      	lsrs	r1, r1, #32
20004cf9:	29a0      	cmp	r1, #160	; 0xa0
20004cfb:	5515      	strb	r5, [r2, r4]
20004cfd:	115a      	asrs	r2, r3, #5
20004cff:	974a      	str	r7, [sp, #296]	; 0x128
20004d01:	0074      	lsls	r4, r6, #1
20004d03:	0000      	movs	r0, r0
20004d05:	0811      	lsrs	r1, r2, #32
20004d07:	480a      	ldr	r0, [pc, #40]	; (20004d30 <screen+0x20cf>)
20004d09:	aa1e      	add	r2, sp, #120	; 0x78
20004d0b:	0000      	movs	r0, r0
20004d0d:	0128      	lsls	r0, r5, #4
20004d0f:	d5f7      	bpl.n	20004d01 <screen+0x20a0>
20004d11:	502a      	str	r2, [r5, r0]
20004d13:	0048      	lsls	r0, r1, #1
20004d15:	2201      	movs	r2, #1
20004d17:	fe95 0000 	cdp2	0, 9, cr0, cr5, cr0, {0}
20004d1b:	0000      	movs	r0, r0
20004d1d:	124a      	asrs	r2, r1, #9
20004d1f:	50fe      	str	r6, [r7, r3]
20004d21:	b4a7      	push	{r0, r1, r2, r5, r7}
20004d23:	2251      	movs	r2, #81	; 0x51
20004d25:	0944      	lsrs	r4, r0, #5
20004d27:	1120      	asrs	r0, r4, #4
20004d29:	4520      	cmp	r0, r4
20004d2b:	2a51      	cmp	r2, #81	; 0x51
20004d2d:	aa00      	add	r2, sp, #0
20004d2f:	a4ab      	add	r4, pc, #684	; (adr r4, 20004fdc <screen+0x237b>)
20004d31:	2d24      	cmp	r5, #36	; 0x24
20004d33:	91d0      	str	r1, [sp, #832]	; 0x340
20004d35:	4904      	ldr	r1, [pc, #16]	; (20004d48 <screen+0x20e7>)
20004d37:	2140      	movs	r1, #64	; 0x40
20004d39:	2056      	movs	r0, #86	; 0x56
20004d3b:	5587      	strb	r7, [r0, r6]
20004d3d:	0951      	lsrs	r1, r2, #5
20004d3f:	5551      	strb	r1, [r2, r5]
20004d41:	6aff      	ldr	r7, [r7, #44]	; 0x2c
20004d43:	0140      	lsls	r0, r0, #5
20004d45:	0800      	lsrs	r0, r0, #32
20004d47:	0080      	lsls	r0, r0, #2
20004d49:	ef4b 0251 	vqsub.s8	q8, <illegal reg q5.5>, <illegal reg q0.5>
20004d4d:	2220      	movs	r2, #32
20004d4f:	4b11      	ldr	r3, [pc, #68]	; (20004d94 <screen+0x2133>)
20004d51:	24d7      	movs	r4, #215	; 0xd7
20004d53:	fa55 4884 			; <UNDEFINED> instruction: 0xfa554884
20004d57:	8010      	strh	r0, [r2, #0]
20004d59:	0000      	movs	r0, r0
20004d5b:	200a      	movs	r0, #10
20004d5d:	14a0      	asrs	r0, r4, #18
20004d5f:	0080      	lsls	r0, r0, #2
20004d61:	0005      	movs	r5, r0
20004d63:	bbb5      	cbnz	r5, 20004dd3 <screen+0x2172>
20004d65:	006a      	lsls	r2, r5, #1
20004d67:	0020      	movs	r0, r4
20004d69:	8404      	strh	r4, [r0, #32]
20004d6b:	422b      	tst	r3, r5
20004d6d:	aa05      	add	r2, sp, #20
20004d6f:	5584      	strb	r4, [r0, r6]
20004d71:	0340      	lsls	r0, r0, #13
20004d73:	d5b7      	bpl.n	20004ce5 <screen+0x2084>
20004d75:	842a      	strh	r2, [r5, #32]
20004d77:	8020      	strh	r0, [r4, #0]
20004d79:	4a12      	ldr	r2, [pc, #72]	; (20004dc4 <screen+0x2163>)
20004d7b:	be17      	bkpt	0x0017
20004d7d:	0884      	lsrs	r4, r0, #2
20004d7f:	0002      	movs	r2, r0
20004d81:	2188      	movs	r1, #136	; 0x88
20004d83:	417e      	adcs	r6, r7
20004d85:	7527      	strb	r7, [r4, #20]
20004d87:	0229      	lsls	r1, r5, #8
20004d89:	2282      	movs	r2, #130	; 0x82
20004d8b:	8404      	strh	r4, [r0, #32]
20004d8d:	95a0      	str	r5, [sp, #640]	; 0x280
20004d8f:	9664      	str	r6, [sp, #400]	; 0x190
20004d91:	0080      	lsls	r0, r0, #2
20004d93:	4805      	ldr	r0, [pc, #20]	; (20004da8 <screen+0x2147>)
20004d95:	fe56 0280 	cdp2	2, 5, cr0, cr6, cr0, {4}
20004d99:	0000      	movs	r0, r0
20004d9b:	1110      	asrs	r0, r2, #4
20004d9d:	1017      	asrs	r7, r2, #32
20004d9f:	aa22      	add	r2, sp, #136	; 0x88
20004da1:	aaaa      	add	r2, sp, #680	; 0x2a8
20004da3:	2b82      	cmp	r3, #130	; 0x82
20004da5:	fafe 2090 			; <UNDEFINED> instruction: 0xfafe2090
20004da9:	1104      	asrs	r4, r0, #4
20004dab:	0000      	movs	r0, r0
20004dad:	ff97 2040 	vmla.i16	q1, <illegal reg q3.5>, d0[0]
20004db1:	1408      	asrs	r0, r1, #16
20004db3:	8b52      	ldrh	r2, [r2, #26]
20004db5:	28eb      	cmp	r0, #235	; 0xeb
20004db7:	dc8f      	bgt.n	20004cd9 <screen+0x2078>
20004db9:	5084      	str	r4, [r0, r2]
20004dbb:	0010      	movs	r0, r2
20004dbd:	1040      	asrs	r0, r0, #1
20004dbf:	0209      	lsls	r1, r1, #8
20004dc1:	2550      	movs	r5, #80	; 0x50
20004dc3:	0028      	movs	r0, r5
20004dc5:	0215      	lsls	r5, r2, #8
20004dc7:	d2bf      	bcs.n	20004d49 <screen+0x20e8>
20004dc9:	2040      	movs	r0, #64	; 0x40
20004dcb:	1202      	asrs	r2, r0, #8
20004dcd:	8442      	strh	r2, [r0, #34]	; 0x22
20004dcf:	a4ab      	add	r4, pc, #684	; (adr r4, 2000507c <screen+0x241b>)
20004dd1:	a212      	add	r2, pc, #72	; (adr r2, 20004e1c <screen+0x21bb>)
20004dd3:	5555      	strb	r5, [r2, r5]
20004dd5:	0f08      	lsrs	r0, r1, #28
20004dd7:	aabb      	add	r2, sp, #748	; 0x2ec
20004dd9:	81a4      	strh	r4, [r4, #12]
20004ddb:	4020      	ands	r0, r4
20004ddd:	9424      	str	r4, [sp, #144]	; 0x90
20004ddf:	ff4b 00a4 	vhadd.u8	d16, d27, d20
20004de3:	4240      	negs	r0, r0
20004de5:	2580      	movs	r5, #128	; 0x80
20004de7:	927e      	str	r2, [sp, #504]	; 0x1f8
20004de9:	f6a6 0552 	subw	r5, r6, #2130	; 0x852
20004ded:	2441      	movs	r4, #65	; 0x41
20004def:	0200      	lsls	r0, r0, #8
20004df1:	5044      	str	r4, [r0, r1]
20004df3:	0ab1      	lsrs	r1, r6, #10
20004df5:	00d5      	lsls	r5, r2, #3
20004df7:	0094      	lsls	r4, r2, #2
20004df9:	50d5      	str	r5, [r2, r3]
20004dfb:	0012      	movs	r2, r2
20004dfd:	4088      	lsls	r0, r1
20004dff:	2000      	movs	r0, #0
20004e01:	a115      	add	r1, pc, #84	; (adr r1, 20004e58 <screen+0x21f7>)
20004e03:	5a09      	ldrh	r1, [r1, r0]
20004e05:	a810      	add	r0, sp, #64	; 0x40
20004e07:	af00      	add	r7, sp, #0
20004e09:	faff 1490 			; <UNDEFINED> instruction: 0xfaff1490
20004e0d:	0402      	lsls	r2, r0, #16
20004e0f:	0180      	lsls	r0, r0, #6
20004e11:	7b17      	ldrb	r7, [r2, #12]
20004e13:	80c8      	strh	r0, [r1, #6]
20004e15:	1000      	asrs	r0, r0, #32
20004e17:	9224      	str	r2, [sp, #144]	; 0x90
20004e19:	08eb      	lsrs	r3, r5, #3
20004e1b:	db8f      	blt.n	20004d3d <screen+0x20dc>
20004e1d:	a024      	add	r0, pc, #144	; (adr r0, 20004eb0 <screen+0x224f>)
20004e1f:	0104      	lsls	r4, r0, #4
20004e21:	4012      	ands	r2, r2
20004e23:	0a91      	lsrs	r1, r2, #10
20004e25:	4274      	negs	r4, r6
20004e27:	ab54      	add	r3, sp, #336	; 0x150
20004e29:	4950      	ldr	r1, [pc, #320]	; (20004f6c <screen+0x230b>)
20004e2b:	aa5a      	add	r2, sp, #360	; 0x168
20004e2d:	0840      	lsrs	r0, r0, #1
20004e2f:	0100      	lsls	r0, r0, #4
20004e31:	0a29      	lsrs	r1, r5, #8
20004e33:	d4a7      	bmi.n	20004d85 <screen+0x2124>
20004e35:	a544      	add	r5, pc, #272	; (adr r5, 20004f48 <screen+0x22e7>)
20004e37:	a602      	add	r6, pc, #8	; (adr r6, 20004e40 <screen+0x21df>)
20004e39:	1d44      	adds	r4, r0, #5
20004e3b:	6edd      	ldr	r5, [r3, #108]	; 0x6c
20004e3d:	80ca      	strh	r2, [r1, #6]
20004e3f:	1090      	asrs	r0, r2, #2
20004e41:	2409      	movs	r4, #9
20004e43:	df4f      	svc	79	; 0x4f
20004e45:	22d0      	movs	r2, #208	; 0xd0
20004e47:	4a02      	ldr	r2, [pc, #8]	; (20004e50 <screen+0x21ef>)
20004e49:	0980      	lsrs	r0, r0, #6
20004e4b:	24ed      	movs	r4, #237	; 0xed
20004e4d:	fd8d 1548 	stc2	5, cr1, [sp, #288]	; 0x120
20004e51:	4020      	ands	r0, r4
20004e53:	1400      	asrs	r0, r0, #16
20004e55:	4104      	asrs	r4, r0
20004e57:	2938      	cmp	r1, #56	; 0x38
20004e59:	5452      	strb	r2, [r2, r1]
20004e5b:	02aa      	lsls	r2, r5, #10
20004e5d:	8026      	strh	r6, [r4, #0]
20004e5f:	2101      	movs	r1, #1
20004e61:	0400      	lsls	r0, r0, #16
20004e63:	4000      	ands	r0, r0
20004e65:	e94a a812 	strd	sl, r8, [sl, #-72]	; 0x48
20004e69:	50aa      	str	r2, [r5, r2]
20004e6b:	5f11      	ldrsh	r1, [r2, r4]
20004e6d:	fbff 2260 			; <UNDEFINED> instruction: 0xfbff2260
20004e71:	0201      	lsls	r1, r0, #8
20004e73:	1120      	asrs	r0, r4, #4
20004e75:	f52b 88ea 	bmi.w	1ffb004d <__etext+0x1ff8f3ed>
20004e79:	0021      	movs	r1, r4
20004e7b:	5309      	strh	r1, [r1, r4]
20004e7d:	0af7      	lsrs	r7, r6, #11
20004e7f:	6e2f      	ldr	r7, [r5, #96]	; 0x60
20004e81:	8092      	strh	r2, [r2, #4]
20004e83:	0941      	lsrs	r1, r0, #5
20004e85:	8120      	strh	r0, [r4, #8]
20004e87:	2a51      	cmp	r2, #81	; 0x51
20004e89:	045d      	lsls	r5, r3, #17
20004e8b:	05a9      	lsls	r1, r5, #22
20004e8d:	8040      	strh	r0, [r0, #2]
20004e8f:	2991      	cmp	r1, #145	; 0x91
20004e91:	0024      	movs	r4, r4
20004e93:	2012      	movs	r0, #18
20004e95:	1522      	asrs	r2, r4, #20
20004e97:	f425 5548 	bic.w	r5, r5, #12800	; 0x3200
20004e9b:	9500      	str	r5, [sp, #0]
20004e9d:	3f00      	subs	r7, #0
20004e9f:	adf7      	add	r5, sp, #988	; 0x3dc
20004ea1:	08bd      	lsrs	r5, r7, #2
20004ea3:	2024      	movs	r0, #36	; 0x24
20004ea5:	4482      	add	sl, r0
20004ea7:	5f97      	ldrsh	r7, [r2, r6]
20004ea9:	20f5      	movs	r0, #245	; 0xf5
20004eab:	5088      	str	r0, [r1, r2]
20004ead:	0520      	lsls	r0, r4, #20
20004eaf:	c5ba      	stmia	r5!, {r1, r3, r4, r5, r7}
20004eb1:	bb1b      	cbnz	r3, 20004efb <screen+0x229a>
20004eb3:	5548      	strb	r0, [r1, r5]
20004eb5:	0008      	movs	r0, r1
20004eb7:	0804      	lsrs	r4, r0, #32
20004eb9:	0104      	lsls	r4, r0, #4
20004ebb:	a23a      	add	r2, pc, #232	; (adr r2, 20004fa4 <screen+0x2343>)
20004ebd:	520a      	strh	r2, [r1, r0]
20004ebf:	1592      	asrs	r2, r2, #22
20004ec1:	4224      	tst	r4, r4
20004ec3:	4000      	ands	r0, r0
20004ec5:	0040      	lsls	r0, r0, #1
20004ec7:	8080      	strh	r0, [r0, #4]
20004ec9:	5a95      	ldrh	r5, [r2, r2]
20004ecb:	5485      	strb	r5, [r0, r2]
20004ecd:	a894      	add	r0, sp, #592	; 0x250
20004ecf:	ff4a f7bf 	vaba.u8	d31, d26, d31
20004ed3:	40d5      	lsrs	r5, r2
20004ed5:	0480      	lsls	r0, r0, #18
20004ed7:	1208      	asrs	r0, r1, #8
20004ed9:	fb5d 8aaa 			; <UNDEFINED> instruction: 0xfb5d8aaa
20004edd:	0412      	lsls	r2, r2, #16
20004edf:	5182      	str	r2, [r0, r6]
20004ee1:	92df      	str	r2, [sp, #892]	; 0x37c
20004ee3:	ef5e 0065 	vhadd.s16	q8, q7, <illegal reg q10.5>
20004ee7:	2441      	movs	r4, #65	; 0x41
20004ee9:	a190      	add	r1, pc, #576	; (adr r1, 2000512c <screen+0x24cb>)
20004eeb:	a822      	add	r0, sp, #136	; 0x88
20004eed:	14bd      	asrs	r5, r7, #18
20004eef:	08a1      	lsrs	r1, r4, #2
20004ef1:	0040      	lsls	r0, r0, #1
20004ef3:	1049      	asrs	r1, r1, #1
20004ef5:	0992      	lsrs	r2, r2, #6
20004ef7:	8200      	strh	r0, [r0, #16]
20004ef9:	2408      	movs	r4, #8
20004efb:	fd4b 9524 	stc2l	5, cr9, [fp, #-144]	; 0xffffff70
20004eff:	a042      	add	r0, pc, #264	; (adr r0, 20005008 <screen+0x23a7>)
20004f01:	fb00 5eff 			; <UNDEFINED> instruction: 0xfb005eff
20004f05:	54fd      	strb	r5, [r7, r3]
20004f07:	8008      	strh	r0, [r1, #0]
20004f09:	4941      	ldr	r1, [pc, #260]	; (20005010 <screen+0x23af>)
20004f0b:	7f57      	ldrb	r7, [r2, #29]
20004f0d:	64ed      	str	r5, [r5, #76]	; 0x4c
20004f0f:	20a1      	movs	r0, #161	; 0xa1
20004f11:	0900      	lsrs	r0, r0, #4
20004f13:	c9ea      	ldmia	r1, {r1, r3, r5, r6, r7}
20004f15:	bf3f      	itttt	cc
20004f17:	a9b4      	addcc	r1, sp, #720	; 0x2d0
20004f19:	0010      	movcc	r0, r2
20004f1b:	0402      	lslcc	r2, r0, #16
20004f1d:	0510      	lslcc	r0, r2, #20
20004f1f:	a15a      	add	r1, pc, #360	; (adr r1, 20005088 <screen+0x2427>)
20004f21:	0204      	lsls	r4, r0, #8
20004f23:	9514      	str	r5, [sp, #80]	; 0x50
20004f25:	4402      	add	r2, r0
20004f27:	0040      	lsls	r0, r0, #1
20004f29:	0800      	lsrs	r0, r0, #32
20004f2b:	1102      	asrs	r2, r0, #4
20004f2d:	6e15      	ldr	r5, [r2, #96]	; 0x60
20004f2f:	4aa2      	ldr	r2, [pc, #648]	; (200051b8 <screen+0x2557>)
20004f31:	02ad      	lsls	r5, r5, #10
20004f33:	ff4b fbf5 	vqrdmlah.s<illegal width 8>	<illegal reg q15.5>, <illegal reg q13.5>, <illegal reg q10.5>
20004f37:	aaef      	add	r2, sp, #956	; 0x3bc
20004f39:	22a2      	movs	r2, #162	; 0xa2
20004f3b:	250a      	movs	r5, #10
20004f3d:	ee5b 92b2 	mrc	2, 2, r9, cr11, cr2, {5}
20004f41:	0008      	movs	r0, r1
20004f43:	5212      	strh	r2, [r2, r0]
20004f45:	74f5      	strb	r5, [r6, #19]
20004f47:	febd 04d5 	mrc2	4, 5, r0, cr13, cr5, {6}
20004f4b:	9244      	str	r2, [sp, #272]	; 0x110
20004f4d:	1040      	asrs	r0, r0, #1
20004f4f:	a08a      	add	r0, pc, #552	; (adr r0, 20005178 <screen+0x2517>)
20004f51:	485f      	ldr	r0, [pc, #380]	; (200050d0 <screen+0x246f>)
20004f53:	4820      	ldr	r0, [pc, #128]	; (20004fd4 <screen+0x2373>)
20004f55:	0080      	lsls	r0, r0, #2
20004f57:	1254      	asrs	r4, r2, #9
20004f59:	9012      	str	r0, [sp, #72]	; 0x48
20004f5b:	0004      	movs	r4, r0
20004f5d:	8448      	strh	r0, [r1, #34]	; 0x22
20004f5f:	ff4b 24a9 	vshl.u8	d18, d25, d27
20004f63:	4890      	ldr	r0, [pc, #576]	; (200051a4 <screen+0x2543>)
20004f65:	fe01 5fdf 	mcr2	15, 0, r5, cr1, cr15, {6}
20004f69:	d5ba      	bpl.n	20004ee1 <screen+0x2280>
20004f6b:	1115      	asrs	r5, r2, #4
20004f6d:	b651      			; <UNDEFINED> instruction: 0xb651
20004f6f:	ffee 54d5 	vsri.64	<illegal reg q10.5>, <illegal reg q2.5>, #18
20004f73:	09a2      	lsrs	r2, r4, #6
20004f75:	2100      	movs	r1, #0
20004f77:	baef      	revsh	r7, r5
20004f79:	ffff a1ea 	vmla.f<illegal width 64>	q13, <illegal reg q15.5>, d26[0]
20004f7d:	0000      	movs	r0, r0
20004f7f:	8014      	strh	r4, [r2, #0]
20004f81:	1520      	asrs	r0, r4, #20
20004f83:	5275      	strh	r5, [r6, r1]
20004f85:	0081      	lsls	r1, r0, #2
20004f87:	a854      	add	r0, sp, #336	; 0x150
20004f89:	4101      	asrs	r1, r0
20004f8b:	0240      	lsls	r0, r0, #9
20004f8d:	0010      	movs	r0, r2
20004f8f:	2100      	movs	r1, #0
20004f91:	bf2a      	itet	cs
20004f93:	92d4      	strcs	r2, [sp, #848]	; 0x350
20004f95:	0124      	lslcc	r4, r4, #4
20004f97:	ef2f eefb 			; <UNDEFINED> instruction: 0xef2feefb
20004f9b:	b5ff      	push	{r0, r1, r2, r3, r4, r5, r6, r7, lr}
20004f9d:	aa6a      	add	r2, sp, #424	; 0x1a8
20004f9f:	ab4e      	add	r3, sp, #312	; 0x138
20004fa1:	fe7b 4ad5 	vselgt.f32	s9, s23, s10
20004fa5:	4008      	ands	r0, r1
20004fa7:	8922      	ldrh	r2, [r4, #8]
20004fa9:	79b9      	ldrb	r1, [r7, #6]
20004fab:	ffff 54ba 	vsri.64	d21, d26, #1
20004faf:	2122      	movs	r1, #34	; 0x22
20004fb1:	2500      	movs	r5, #0
20004fb3:	800a      	strh	r2, [r1, #0]
20004fb5:	a42f      	add	r4, pc, #188	; (adr r4, 20005074 <screen+0x2413>)
20004fb7:	0528      	lsls	r0, r5, #20
20004fb9:	0000      	movs	r0, r0
20004fbb:	1454      	asrs	r4, r2, #17
20004fbd:	8808      	ldrh	r0, [r1, #0]
20004fbf:	8200      	strh	r0, [r0, #16]
20004fc1:	884a      	ldrh	r2, [r1, #2]
20004fc3:	ee4b 08e9 	cdp	8, 4, cr0, cr11, cr9, {7}
20004fc7:	4881      	ldr	r0, [pc, #516]	; (200051cc <screen+0x256b>)
20004fc9:	ff07 7fef 	vpmax.f32	<illegal reg q3.5>, <illegal reg q11.5>, <illegal reg q15.5>
20004fcd:	faff 55ab 			; <UNDEFINED> instruction: 0xfaff55ab
20004fd1:	fd55 ffaf 	ldc2l	15, cr15, [r5, #-700]	; 0xfffffd44
20004fd5:	51aa      	str	r2, [r5, r6]
20004fd7:	0040      	lsls	r0, r0, #1
20004fd9:	2200      	movs	r2, #0
20004fdb:	dbfe      	blt.n	20004fdb <screen+0x237a>
20004fdd:	7bff      	ldrb	r7, [r7, #15]
20004fdf:	81ea      	strh	r2, [r5, #14]
20004fe1:	8408      	strh	r0, [r1, #32]
20004fe3:	8024      	strh	r4, [r4, #0]
20004fe5:	2a40      	cmp	r2, #64	; 0x40
20004fe7:	d1bd      	bne.n	20004f65 <screen+0x2304>
20004fe9:	2002      	movs	r0, #2
20004feb:	5025      	str	r5, [r4, r0]
20004fed:	8122      	strh	r2, [r4, #8]
20004fef:	0022      	movs	r2, r4
20004ff1:	1040      	asrs	r0, r0, #1
20004ff3:	2200      	movs	r2, #0
20004ff5:	ff2a 40b4 	vqadd.u32	d4, d26, d20
20004ff9:	0010      	movs	r0, r2
20004ffb:	bfaf      	iteee	ge
20004ffd:	bb7b      	cbnz	r3, 2000505f <screen+0x23fe>	; unpredictable <IT:ge>
20004fff:	dfee      	svclt	238	; 0xee
20005001:	aa75      	addlt	r2, sp, #468	; 0x1d4
20005003:	57af      	ldrsblt	r7, [r5, r6]
20005005:	fd76 4aa9 	ldc2l	10, cr4, [r6, #-676]!	; 0xfffffd5c
20005009:	1112      	asrs	r2, r2, #4
2000500b:	0811      	lsrs	r1, r2, #32
2000500d:	75fb      	strb	r3, [r7, #23]
2000500f:	feff 54fd 	mrc2	4, 7, r5, cr15, cr13, {7}
20005013:	0040      	lsls	r0, r0, #1
20005015:	0900      	lsrs	r0, r0, #4
20005017:	0115      	lsls	r5, r2, #4
20005019:	a45f      	add	r4, pc, #380	; (adr r4, 20005198 <screen+0x2537>)
2000501b:	08a0      	lsrs	r0, r4, #2
2000501d:	0080      	lsls	r0, r0, #2
2000501f:	5448      	strb	r0, [r1, r1]
20005021:	2240      	movs	r2, #64	; 0x40
20005023:	0000      	movs	r0, r0
20005025:	0892      	lsrs	r2, r2, #2
20005027:	bb95      	cbnz	r5, 2000508f <screen+0x242e>
20005029:	127a      	asrs	r2, r7, #9
2000502b:	0200      	lsls	r0, r0, #8
2000502d:	ff1e fffe 	vmaxnm.f<illegal width 64>	<illegal reg q7.5>, q15, q15
20005031:	ebbf 5abb 	subs.w	sl, pc, fp, ror #22
20005035:	fef5 f7dd 	mrc2	7, 7, pc, cr5, cr13, {6}
20005039:	2855      	cmp	r0, #85	; 0x55
2000503b:	8080      	strh	r0, [r0, #4]
2000503d:	4504      	cmp	r4, r0
2000503f:	bbed      	cbnz	r5, 200050bd <screen+0x245c>
20005041:	dfff      	svc	255	; 0xff
20005043:	49d5      	ldr	r1, [pc, #852]	; (20005398 <screen+0x2737>)
20005045:	9224      	str	r2, [sp, #144]	; 0x90
20005047:	4052      	eors	r2, r2
20005049:	aa40      	add	r2, sp, #256	; 0x100
2000504b:	e977 8208 	ldrd	r8, r2, [r7, #-32]!
2000504f:	4015      	ands	r5, r2
20005051:	0125      	lsls	r5, r4, #4
20005053:	8014      	strh	r4, [r2, #0]
20005055:	0202      	lsls	r2, r0, #8
20005057:	a200      	add	r2, pc, #0	; (adr r2, 20005058 <screen+0x23f7>)
20005059:	ff4b 80fa 	vqadd.u8	q12, <illegal reg q13.5>, q13
2000505d:	4842      	ldr	r0, [pc, #264]	; (20005168 <screen+0x2507>)
2000505f:	fd7b fedb 	ldc2l	14, cr15, [fp, #-876]!	; 0xfffffc94
20005063:	beff      	bkpt	0x00ff
20005065:	edef ffaf 	stcl	15, cr15, [pc, #700]!	; 20005324 <screen+0x26c3>
20005069:	bff7      	itett	<und>
2000506b:	a5aa      	add<und>	r5, pc, #680	; (adr r5, 20005314 <screen+0x26b3>)
2000506d:	0424      	lslal	r4, r4, #16
2000506f:	1040      	asr<und>	r0, r0, #1
20005071:	dfbe      	svc<und>	190	; 0xbe
20005073:	f7fd 50fd 			; <UNDEFINED> instruction: 0xf7fd50fd
20005077:	0080      	lsls	r0, r0, #2
20005079:	0900      	lsrs	r0, r0, #4
2000507b:	0114      	lsls	r4, r2, #4
2000507d:	e85f 1040 			; <UNDEFINED> instruction: 0xe85f1040
20005081:	0082      	lsls	r2, r0, #2
20005083:	5490      	strb	r0, [r2, r2]
20005085:	0840      	lsrs	r0, r0, #1
20005087:	1088      	asrs	r0, r1, #2
20005089:	0828      	lsrs	r0, r5, #32
2000508b:	f796 24fd 			; <UNDEFINED> instruction: 0xf79624fd
2000508f:	0100      	lsls	r0, r0, #4
20005091:	ff6f effe 	vminnm.f32	q15, <illegal reg q15.5>, q15
20005095:	fffe 6ebd 			; <UNDEFINED> instruction: 0xfffe6ebd
20005099:	f7ff fdbd 	bl	20004c17 <screen+0x1fb6>
2000509d:	a852      	add	r0, sp, #328	; 0x148
2000509f:	2000      	movs	r0, #0
200050a1:	2501      	movs	r5, #1
200050a3:	6b7b      	ldr	r3, [r7, #52]	; 0x34
200050a5:	bdef      	pop	{r0, r1, r2, r3, r5, r6, r7, pc}
200050a7:	8ab6      	ldrh	r6, [r6, #20]
200050a9:	8924      	ldrh	r4, [r4, #8]
200050ab:	2025      	movs	r0, #37	; 0x25
200050ad:	5501      	strb	r1, [r0, r4]
200050af:	f5ff 0202 			; <UNDEFINED> instruction: 0xf5ff0202
200050b3:	4029      	ands	r1, r5
200050b5:	014a      	lsls	r2, r1, #5
200050b7:	0209      	lsls	r1, r1, #8
200050b9:	4000      	ands	r0, r0
200050bb:	8282      	strh	r2, [r0, #20]
200050bd:	de2b      	udf	#43	; 0x2b
200050bf:	80fe      	strh	r6, [r7, #6]
200050c1:	0000      	movs	r0, r0
200050c3:	efbf fdff 			; <UNDEFINED> instruction: 0xefbffdff
200050c7:	fbff dbff 			; <UNDEFINED> instruction: 0xfbffdbff
200050cb:	7feb      	ldrb	r3, [r5, #31]
200050cd:	eff7 2555 	vshl.s32	q9, <illegal reg q2.5>, #23
200050d1:	0052      	lsls	r2, r2, #1
200050d3:	0214      	lsls	r4, r2, #8
200050d5:	bedd      	bkpt	0x00dd
200050d7:	ffff 51ed 	vmla.f<illegal width 64>	<illegal reg q10.5>, <illegal reg q15.5>, d29[0]
200050db:	2002      	movs	r0, #2
200050dd:	0400      	lsls	r0, r0, #16
200050df:	0ab4      	lsrs	r4, r6, #10
200050e1:	fabb 0048 			; <UNDEFINED> instruction: 0xfabb0048
200050e5:	8044      	strh	r4, [r0, #2]
200050e7:	5421      	strb	r1, [r4, r0]
200050e9:	2020      	movs	r0, #32
200050eb:	0400      	lsls	r0, r0, #16
200050ed:	2808      	cmp	r0, #8
200050ef:	ff96 52fe 	vrshr.u64	<illegal reg q2.5>, q15, #42
200050f3:	9524      	str	r5, [sp, #144]	; 0x90
200050f5:	fff7 fff6 			; <UNDEFINED> instruction: 0xfff7fff6
200050f9:	fff7 7d6d 	vqrdmulh.s<illegal width 64>	<illegal reg q11.5>, <illegal reg q3.5>, d29[0]
200050fd:	ffbf fdfd 			; <UNDEFINED> instruction: 0xffbffdfd
20005101:	90aa      	str	r0, [sp, #680]	; 0x2a8
20005103:	8400      	strh	r0, [r0, #32]
20005105:	1080      	asrs	r0, r0, #2
20005107:	dbff      	blt.n	20005109 <screen+0x24a8>
20005109:	6eff      	ldr	r7, [r7, #108]	; 0x6c
2000510b:	a4fa      	add	r4, pc, #1000	; (adr r4, 200054f4 <screen+0x2893>)
2000510d:	0290      	lsls	r0, r2, #10
2000510f:	9148      	str	r1, [sp, #288]	; 0x120
20005111:	bf42      	ittt	mi
20005113:	bdef      	popmi	{r0, r1, r2, r3, r5, r6, r7, pc}
20005115:	9220      	strmi	r2, [sp, #128]	; 0x80
20005117:	0012      	movmi	r2, r2
20005119:	00a8      	lsls	r0, r5, #2
2000511b:	8884      	ldrh	r4, [r0, #4]
2000511d:	1182      	asrs	r2, r0, #6
2000511f:	0421      	lsls	r1, r4, #16
20005121:	df57      	svc	87	; 0x57
20005123:	80fb      	strh	r3, [r7, #6]
20005125:	0100      	lsls	r0, r0, #4
20005127:	7fdf      	ldrb	r7, [r3, #31]
20005129:	b5ff      	push	{r0, r1, r2, r3, r4, r5, r6, r7, lr}
2000512b:	ff7f efff 	vminnm.f<illegal width 64>	q15, <illegal reg q15.5>, <illegal reg q15.5>
2000512f:	fdff fedf 	ldc2l	14, cr15, [pc, #892]!	; 200054ac <screen+0x284b>
20005133:	4aa9      	ldr	r2, [pc, #676]	; (200053d8 <screen+0x2777>)
20005135:	1092      	asrs	r2, r2, #2
20005137:	8500      	strh	r0, [r0, #40]	; 0x28
20005139:	6f79      	ldr	r1, [r7, #116]	; 0x74
2000513b:	fffd 42db 	vrshr.u64	q10, <illegal reg q5.5>, #3
2000513f:	8824      	ldrh	r4, [r4, #0]
20005141:	0a02      	lsrs	r2, r0, #8
20005143:	6d55      	ldr	r5, [r2, #84]	; 0x54
20005145:	febf 0088 	cdp2	0, 11, cr0, cr15, cr8, {4}
20005149:	80a4      	strh	r4, [r4, #4]
2000514b:	5245      	strh	r5, [r0, r1]
2000514d:	0210      	lsls	r0, r2, #8
2000514f:	4010      	ands	r0, r2
20005151:	5208      	strh	r0, [r1, r0]
20005153:	ff96 54ff 	vsri.64	<illegal reg q2.5>, <illegal reg q15.5>, #42
20005157:	2680      	movs	r6, #128	; 0x80
20005159:	f7f7 fffd 	bl	1fffd157 <__etext+0x1ffdc4f7>
2000515d:	f7fe bdbd 	b.w	20003cdb <screen+0x107a>
20005161:	efdf fbfd 			; <UNDEFINED> instruction: 0xefdffbfd
20005165:	2055      	movs	r0, #85	; 0x55
20005167:	0000      	movs	r0, r0
20005169:	0024      	movs	r4, r4
2000516b:	ba6e      	rev16	r6, r5
2000516d:	fbf7 54fd 			; <UNDEFINED> instruction: 0xfbf754fd
20005171:	2180      	movs	r1, #128	; 0x80
20005173:	5220      	strh	r0, [r4, r0]
20005175:	bfdb      	ittet	le
20005177:	fdfd 54a5 	ldc2lle	4, cr5, [sp, #660]!	; 0x294
2000517b:	a042      	addle	r0, pc, #264	; (adr r0, 20005284 <screen+0x2623>)
2000517d:	04a8      	lslgt	r0, r5, #18
2000517f:	4042      	eorle	r2, r0
20005181:	0401      	lsls	r1, r0, #16
20005183:	00a2      	lsls	r2, r4, #2
20005185:	ff5f d0fe 	vqadd.u16	<illegal reg q14.5>, <illegal reg q15.5>, q15
20005189:	1512      	asrs	r2, r2, #20
2000518b:	ffbf ffff 			; <UNDEFINED> instruction: 0xffbfffff
2000518f:	ffff 77ef 	vcvt.u<illegal width 64>.f<illegal width 64>	<illegal reg q11.5>, <illegal reg q15.5>
20005193:	fffd 7dff 			; <UNDEFINED> instruction: 0xfffd7dff
20005197:	954a      	str	r5, [sp, #296]	; 0x128
20005199:	8150      	strh	r0, [r2, #10]
2000519b:	1200      	asrs	r0, r0, #8
2000519d:	dfba      	svc	186	; 0xba
2000519f:	beff      	bkpt	0x00ff
200051a1:	88ee      	ldrh	r6, [r5, #6]
200051a3:	002a      	movs	r2, r5
200051a5:	9b08      	ldr	r3, [sp, #32]
200051a7:	ffed beff 			; <UNDEFINED> instruction: 0xffedbeff
200051ab:	0252      	lsls	r2, r2, #9
200051ad:	0091      	lsls	r1, r2, #2
200051af:	a152      	add	r1, pc, #328	; (adr r1, 200052f8 <screen+0x2697>)
200051b1:	1208      	asrs	r0, r1, #8
200051b3:	1044      	asrs	r4, r0, #1
200051b5:	aa08      	add	r2, sp, #32
200051b7:	f7ad 55fb 			; <UNDEFINED> instruction: 0xf7ad55fb
200051bb:	ab20      	add	r3, sp, #128	; 0x80
200051bd:	fb7f bafd 			; <UNDEFINED> instruction: 0xfb7fbafd
200051c1:	fbef ff7f 			; <UNDEFINED> instruction: 0xfbefff7f
200051c5:	ffbf f6ff 	vqshlu.s64	<illegal reg q7.5>, <illegal reg q15.5>, #63	; 0x3f
200051c9:	48aa      	ldr	r0, [pc, #680]	; (20005474 <screen+0x2813>)
200051cb:	1004      	asrs	r4, r0, #32
200051cd:	4000      	ands	r0, r0
200051cf:	7569      	strb	r1, [r5, #21]
200051d1:	f7fe 52bb 			; <UNDEFINED> instruction: 0xf7fe52bb
200051d5:	8980      	ldrh	r0, [r0, #12]
200051d7:	6e22      	ldr	r2, [r4, #96]	; 0x60
200051d9:	7fdf      	ldrb	r7, [r3, #31]
200051db:	ebff 54a9 			; <UNDEFINED> instruction: 0xebff54a9
200051df:	b00a      	add	sp, #40	; 0x28
200051e1:	1428      	asrs	r0, r5, #16
200051e3:	4042      	eors	r2, r0
200051e5:	0200      	lsls	r0, r0, #8
200051e7:	0282      	lsls	r2, r0, #10
200051e9:	ffbf 547f 	vsri.32	<illegal reg q2.5>, <illegal reg q15.5>, #1
200051ed:	5595      	strb	r5, [r2, r6]
200051ef:	fdab ffff 	stc2	15, cr15, [fp, #1020]!	; 0x3fc
200051f3:	ffbe 6fed 	vqrdmlsh.s<illegal width 64>	q3, q15, d29[0]
200051f7:	bfef      	iteee	al
200051f9:	bdff      	popal	{r0, r1, r2, r3, r4, r5, r6, r7, pc}
200051fb:	2255      	mov<und>	r2, #85	; 0x55
200051fd:	4090      	lsl<und>	r0, r2
200051ff:	0224      	lsl<und>	r4, r4, #8
20005201:	9f3a      	ldr	r7, [sp, #232]	; 0xe8
20005203:	de7f      	udf	#127	; 0x7f
20005205:	48dd      	ldr	r0, [pc, #884]	; (2000557c <screen+0x291b>)
20005207:	2052      	movs	r0, #82	; 0x52
20005209:	bf01      	itttt	eq
2000520b:	fbfb f4de 			; <UNDEFINED> instruction: 0xfbfbf4de
2000520f:	208a      	moveq	r0, #138	; 0x8a
20005211:	92a0      	streq	r2, [sp, #640]	; 0x280
20005213:	812a      	strheq	r2, [r5, #8]
20005215:	0910      	lsrs	r0, r2, #4
20005217:	2421      	movs	r4, #33	; 0x21
20005219:	a928      	add	r1, sp, #160	; 0xa0
2000521b:	df6f      	svc	111	; 0x6f
2000521d:	bbf5      	cbnz	r5, 2000529d <screen+0x263c>
2000521f:	a66b      	add	r6, pc, #428	; (adr r6, 200053cc <screen+0x276b>)
20005221:	bbff      	cbnz	r7, 200052a3 <screen+0x2642>
20005223:	eebf f5fb 	mrc	5, 5, APSR_nzcv, cr15, cr11, {7}
20005227:	ffb7 fdbf 			; <UNDEFINED> instruction: 0xffb7fdbf
2000522b:	f5fe 905a 	b.w	1f2032e3 <__etext+0x1f1e2683>
2000522f:	0202      	lsls	r2, r0, #8
20005231:	0800      	lsrs	r0, r0, #32
20005233:	7b9a      	ldrb	r2, [r3, #14]
20005235:	ffff a26e 	vmlal.u<illegal width 64>	q13, d15, d30[0]
20005239:	0480      	lsls	r0, r0, #18
2000523b:	fbaa ffff 			; <UNDEFINED> instruction: 0xfbaaffff
2000523f:	defb      	udf	#251	; 0xfb
20005241:	8850      	ldrh	r0, [r2, #2]
20005243:	4805      	ldr	r0, [pc, #20]	; (20005258 <screen+0x25f7>)
20005245:	5412      	strb	r2, [r2, r0]
20005247:	2045      	movs	r0, #69	; 0x45
20005249:	0008      	movs	r0, r1
2000524b:	1582      	asrs	r2, r0, #22
2000524d:	ffbf 55dd 	vsli.64	<illegal reg q2.5>, <illegal reg q6.5>, #63	; 0x3f
20005251:	5555      	strb	r5, [r2, r5]
20005253:	ffef 7fff 			; <UNDEFINED> instruction: 0xffef7fff
20005257:	feff efee 	cdp2	15, 15, cr14, cr15, cr14, {7}
2000525b:	ff7f d5f7 	vqrshl.u64	<illegal reg q14.5>, <illegal reg q11.5>, <illegal reg q15.5>
2000525f:	456a      	cmp	r2, sp
20005261:	0850      	lsrs	r0, r2, #1
20005263:	8000      	strh	r0, [r0, #0]
20005265:	ad5d      	add	r5, sp, #372	; 0x174
20005267:	ff7f b4f5 	vqshl.u64	<illegal reg q13.5>, <illegal reg q10.5>, <illegal reg q15.5>
2000526b:	412a      	asrs	r2, r5
2000526d:	ff2b fdff 			; <UNDEFINED> instruction: 0xff2bfdff
20005271:	faef 228a 			; <UNDEFINED> instruction: 0xfaef228a
20005275:	2a49      	cmp	r2, #73	; 0x49
20005277:	2219      	movs	r2, #25
20005279:	0510      	lsls	r0, r2, #20
2000527b:	9440      	str	r4, [sp, #256]	; 0x100
2000527d:	5611      	ldrsb	r1, [r2, r0]
2000527f:	7ffb      	ldrb	r3, [r7, #31]
20005281:	aaed      	add	r2, sp, #948	; 0x3b4
20005283:	4bd5      	ldr	r3, [pc, #852]	; (200055d8 <screen+0x2977>)
20005285:	fdfb ffff 	ldc2l	15, cr15, [fp, #1020]!	; 0x3fc
20005289:	fbee dfff 			; <UNDEFINED> instruction: 0xfbeedfff
2000528d:	ffdf 55ff 	vsli.64	<illegal reg q10.5>, <illegal reg q15.5>, #31
20005291:	1055      	asrs	r5, r2, #1
20005293:	4002      	ands	r2, r0
20005295:	0142      	lsls	r2, r0, #5
20005297:	5f0d      	ldrsh	r5, [r1, r4]
20005299:	ddbf      	ble.n	2000521b <screen+0x25ba>
2000529b:	d2de      	bcs.n	2000525b <screen+0x25fa>
2000529d:	1581      	asrs	r1, r0, #22
2000529f:	dfad      	svc	173	; 0xad
200052a1:	dfbf      	svc	191	; 0xbf
200052a3:	ed7d 8850 	ldcl	8, cr8, [sp, #-320]!	; 0xfffffec0
200052a7:	9204      	str	r2, [sp, #16]
200052a9:	940c      	str	r4, [sp, #48]	; 0x30
200052ab:	a884      	add	r0, sp, #528	; 0x210
200052ad:	0224      	lsls	r4, r4, #8
200052af:	adaa      	add	r5, sp, #680	; 0x2a8
200052b1:	ffaf d75a 	vqshl.u32	<illegal reg q6.5>, q5, #15
200052b5:	6f77      	ldr	r7, [r6, #116]	; 0x74
200052b7:	ffbf feef 	vqrdmlah.s<illegal width 64>	<illegal reg q7.5>, <illegal reg q15.5>, d31[0]
200052bb:	bdfd      	pop	{r0, r2, r3, r4, r5, r6, r7, pc}
200052bd:	fead 7ff7 	mcr2	15, 5, r7, cr13, cr7, {7}
200052c1:	55ff      	strb	r7, [r7, r7]
200052c3:	4458      	add	r0, fp
200052c5:	0090      	lsls	r0, r2, #2
200052c7:	0808      	lsrs	r0, r1, #32
200052c9:	b526      	push	{r1, r2, r5, lr}
200052cb:	ff7f f9fb 	vmul.p<illegal width 64>	<illegal reg q15.5>, <illegal reg q15.5>, <illegal reg q13.5>
200052cf:	552a      	strb	r2, [r5, r4]
200052d1:	fedb 7ef7 	mrc2	14, 6, r7, cr11, cr7, {7}
200052d5:	55ff      	strb	r7, [r7, r7]
200052d7:	2004      	movs	r0, #4
200052d9:	49a2      	ldr	r1, [pc, #648]	; (20005564 <screen+0x2903>)
200052db:	5116      	str	r6, [r2, r4]
200052dd:	5322      	strh	r2, [r4, r4]
200052df:	a952      	add	r1, sp, #328	; 0x148
200052e1:	bb2a      	cbnz	r2, 2000532f <screen+0x26ce>
200052e3:	ffff 59ed 	vtbx.8	d21, {d31-<overflow reg d32}, d29
200052e7:	9655      	str	r6, [sp, #340]	; 0x154
200052e9:	fefd f7ff 	mrc2	7, 7, pc, cr13, cr15, {7}
200052ed:	feff 7ffd 	mrc2	15, 7, r7, cr15, cr13, {7}
200052f1:	ff5f 52fd 	vqsub.u16	<illegal reg q10.5>, <illegal reg q15.5>, <illegal reg q14.5>
200052f5:	10b5      	asrs	r5, r6, #2
200052f7:	1204      	asrs	r4, r0, #8
200052f9:	2000      	movs	r0, #0
200052fb:	5e0f      	ldrsh	r7, [r1, r0]
200052fd:	ffff aafe 			; <UNDEFINED> instruction: 0xffffaafe
20005301:	5651      	ldrsb	r1, [r2, r1]
20005303:	ffff ffff 			; <UNDEFINED> instruction: 0xffffffff
20005307:	76bf      	strb	r7, [r7, #26]
20005309:	00a2      	lsls	r2, r4, #2
2000530b:	0409      	lsls	r1, r1, #16
2000530d:	4a0d      	ldr	r2, [pc, #52]	; (20005344 <screen+0x26e3>)
2000530f:	5555      	strb	r5, [r2, r5]
20005311:	2d55      	cmp	r5, #85	; 0x55
20005313:	d655      	bvs.n	200053c1 <screen+0x2760>
20005315:	fffd ad56 			; <UNDEFINED> instruction: 0xfffdad56
20005319:	4feb      	ldr	r7, [pc, #940]	; (200056c8 <screen+0x2a67>)
2000531b:	ffdf dfff 			; <UNDEFINED> instruction: 0xffdfdfff
2000531f:	adee      	add	r5, sp, #952	; 0x3b8
20005321:	bddb      	pop	{r0, r1, r3, r4, r6, r7, pc}
20005323:	f7ff 29fd 			; <UNDEFINED> instruction: 0xf7ff29fd
20005327:	4268      	negs	r0, r5
20005329:	80a0      	strh	r0, [r4, #4]
2000532b:	0000      	movs	r0, r0
2000532d:	ab93      	add	r3, sp, #588	; 0x24c
2000532f:	ff5f f5ff 	vqrshl.u16	<illegal reg q15.5>, <illegal reg q15.5>, <illegal reg q15.5>
20005333:	7f4d      	ldrb	r5, [r1, #29]
20005335:	fded ffef 	stc2l	15, cr15, [sp, #956]!	; 0x3bc
20005339:	a9fd      	add	r1, sp, #1012	; 0x3f4
2000533b:	8910      	ldrh	r0, [r2, #8]
2000533d:	5224      	strh	r4, [r4, r0]
2000533f:	6a1f      	ldr	r7, [r3, #32]
20005341:	adab      	add	r5, sp, #684	; 0x2ac
20005343:	abda      	add	r3, sp, #872	; 0x368
20005345:	7d6f      	ldrb	r7, [r5, #21]
20005347:	ffbf b7da 	vqshl.u64	<illegal reg q5.5>, q5, #63	; 0x3f
2000534b:	bd6d      	pop	{r0, r2, r3, r5, r6, pc}
2000534d:	df7f      	svc	127	; 0x7f
2000534f:	7fdf      	ldrb	r7, [r3, #31]
20005351:	feff fbee 	vcvtm.s32.f64	s31, d30
20005355:	7f5b      	ldrb	r3, [r3, #29]
20005357:	05e9      	lsls	r1, r5, #23
20005359:	0865      	lsrs	r5, r4, #1
2000535b:	0002      	movs	r2, r0
2000535d:	0241      	lsls	r1, r0, #9
2000535f:	b503      	push	{r0, r1, lr}
20005361:	ffbf dd7f 			; <UNDEFINED> instruction: 0xffbfdd7f
20005365:	df56      	svc	86	; 0x56
20005367:	dfbf      	svc	191	; 0xbf
20005369:	6f7b      	ldr	r3, [r7, #116]	; 0x74
2000536b:	b4bf      	push	{r0, r1, r2, r3, r4, r5, r7}
2000536d:	2044      	movs	r0, #68	; 0x44
2000536f:	0401      	lsls	r1, r0, #16
20005371:	ad0b      	add	r5, sp, #44	; 0x2c
20005373:	f6bd b7ef 	b.w	1fac3355 <__etext+0x1faa26f5>
20005377:	efbb bdf7 			; <UNDEFINED> instruction: 0xefbbbdf7
2000537b:	d5aa      	bpl.n	200052d3 <screen+0x2672>
2000537d:	9bae      	ldr	r3, [sp, #696]	; 0x2b8
2000537f:	fff7 ffff 			; <UNDEFINED> instruction: 0xfff7ffff
20005383:	affb      	add	r7, sp, #1004	; 0x3ec
20005385:	de7b      	udf	#123	; 0x7b
20005387:	ffff aafc 			; <UNDEFINED> instruction: 0xffffaafc
2000538b:	42d0      	cmn	r0, r2
2000538d:	1148      	asrs	r0, r1, #5
2000538f:	0004      	movs	r4, r0
20005391:	de13      	udf	#19
20005393:	fddf 7efb 	ldc2l	14, cr7, [pc, #1004]	; 20005780 <screen+0x2b1f>
20005397:	fbb5 feff 	udiv	lr, r5, pc
2000539b:	feff d1fe 	mrc2	1, 7, sp, cr15, cr14, {7}
2000539f:	0011      	movs	r1, r2
200053a1:	1194      	asrs	r4, r2, #6
200053a3:	f60e 7fef 	addw	pc, lr, #4079	; 0xfef
200053a7:	ddf5      	ble.n	20005395 <screen+0x2734>
200053a9:	fdde ffbf 	ldc2l	15, cr15, [lr, #764]	; 0x2fc
200053ad:	abf5      	add	r3, sp, #980	; 0x3d4
200053af:	376b      	adds	r7, #107	; 0x6b
200053b1:	7fdf      	ldrb	r7, [r3, #31]
200053b3:	fffd d6ff 	vqshlu.s64	<illegal reg q14.5>, <illegal reg q15.5>, #61	; 0x3d
200053b7:	f5de dffa 	bl	1f5e43af <__etext+0x1f5c374f>
200053bb:	13f2      	asrs	r2, r6, #15
200053bd:	288a      	cmp	r0, #138	; 0x8a
200053bf:	0000      	movs	r0, r0
200053c1:	2000      	movs	r0, #0
200053c3:	eb40 f77f 			; <UNDEFINED> instruction: 0xeb40f77f
200053c7:	f7ff efdf 			; <UNDEFINED> instruction: 0xf7ffefdf
200053cb:	dffb      	svc	251	; 0xfb
200053cd:	ab6d      	add	r3, sp, #436	; 0x1b4
200053cf:	a4f5      	add	r4, pc, #980	; (adr r4, 200057a4 <screen+0x2b43>)
200053d1:	0400      	lsls	r0, r0, #16
200053d3:	4420      	add	r0, r4
200053d5:	bb17      	cbnz	r7, 2000541d <screen+0x27bc>
200053d7:	d7bb      	bvc.n	20005351 <screen+0x26f0>
200053d9:	f75b ff77 	bl	1ff612cb <__etext+0x1ff4066b>
200053dd:	feee 5f4b 	cdp2	15, 14, cr5, cr14, cr11, {2}
200053e1:	bddd      	pop	{r0, r2, r3, r4, r6, r7, pc}
200053e3:	ffff ffbf 			; <UNDEFINED> instruction: 0xffffffbf
200053e7:	fff6 5ff7 			; <UNDEFINED> instruction: 0xfff65ff7
200053eb:	feef 8ac8 	cdp2	10, 14, cr8, cr15, cr8, {6}
200053ef:	02a1      	lsls	r1, r4, #10
200053f1:	8448      	strh	r0, [r1, #34]	; 0x22
200053f3:	8200      	strh	r0, [r0, #16]
200053f5:	fa0a ffaf 	sxtah	pc, sl, pc, ror #16
200053f9:	ddd7      	ble.n	200053ab <screen+0x274a>
200053fb:	bf7f      	itttt	vc
200053fd:	f7bf ff7e 	blvc	1ffc52fd <__etext+0x1ffa469d>	; unpredictable branch in IT block

20005401:	a0fa      	addvc	r0, pc, #1000	; (adr r0, 200057ec <screen+0x2b8b>)
20005403:	90a4      	strvc	r0, [sp, #656]	; 0x290
20005405:	0189      	lslvc	r1, r1, #6
20005407:	ef07 ffff 	vrecps.f32	<illegal reg q7.5>, <illegal reg q11.5>, <illegal reg q15.5>
2000540b:	7fff      	ldrb	r7, [r7, #31]
2000540d:	befb      	bkpt	0x00fb
2000540f:	f5ff ddac 	bl	1f604f6b <__etext+0x1f5e430b>
20005413:	3f6b      	subs	r7, #107	; 0x6b
20005415:	fd6d fbff 	stc2l	11, cr15, [sp, #-1020]!	; 0xfffffc04
20005419:	eaff f7bd 			; <UNDEFINED> instruction: 0xeafff7bd
2000541d:	ffff 56d2 	vqshlu.s64	<illegal reg q10.5>, q1, #63	; 0x3f
20005421:	4814      	ldr	r0, [pc, #80]	; (20005474 <screen+0x2813>)
20005423:	1000      	asrs	r0, r0, #32
20005425:	1012      	asrs	r2, r2, #32
20005427:	ff00 ff57 	vmaxnm.f32	<illegal reg q7.5>, q0, <illegal reg q3.5>
2000542b:	fffd fff6 			; <UNDEFINED> instruction: 0xfffdfff6
2000542f:	dbf7      	blt.n	20005421 <screen+0x27c0>
20005431:	dfaf      	svc	175	; 0xaf
20005433:	94bc      	str	r4, [sp, #752]	; 0x2f0
20005435:	0000      	movs	r0, r0
20005437:	1040      	asrs	r0, r0, #1
20005439:	7d13      	ldrb	r3, [r2, #20]
2000543b:	fdfd ff57 	ldc2l	15, cr15, [sp, #348]!	; 0x15c
2000543f:	fbbf dddf 			; <UNDEFINED> instruction: 0xfbbfdddf
20005443:	5d5b      	ldrb	r3, [r3, r5]
20005445:	6def      	ldr	r7, [r5, #92]	; 0x5c
20005447:	ffbf ffdf 			; <UNDEFINED> instruction: 0xffbfffdf
2000544b:	f7ff 7fef 			; <UNDEFINED> instruction: 0xf7ff7fef
2000544f:	bf7f      	itttt	vc
20005451:	2928      	cmpvc	r1, #40	; 0x28
20005453:	0141      	lslvc	r1, r0, #5
20005455:	0120      	lslvc	r0, r4, #4
20005457:	ef6d 7d49 	vsubvc.f32	<illegal reg q11.5>, <illegal reg q6.5>, <illegal reg q4.5>
2000545b:	fdb7 57b7 	ldc2	7, cr5, [r7, #732]!	; 0x2dc
2000545f:	ffdf ffdf 			; <UNDEFINED> instruction: 0xffdfffdf
20005463:	fb7e 22fe 			; <UNDEFINED> instruction: 0xfb7e22fe
20005467:	0249      	lsls	r1, r1, #9
20005469:	4414      	add	r4, r2
2000546b:	ef0f efb7 	vrecps.f32	d14, d31, d23
2000546f:	eefe effd 	mrc	15, 7, lr, cr14, cr13, {7}
20005473:	fef7 7bb5 	mrc2	11, 7, r7, cr7, cr5, {5}
20005477:	5edd      	ldrsh	r5, [r3, r3]
20005479:	dbef      	blt.n	2000545b <screen+0x27fa>
2000547b:	fffb ffbf 			; <UNDEFINED> instruction: 0xfffbffbf
2000547f:	d75f      	bvc.n	20005541 <screen+0x28e0>
20005481:	feff 94a2 	cdp2	4, 15, cr9, cr15, cr2, {5}
20005485:	5014      	str	r4, [r2, r0]
20005487:	bf02      	ittt	eq
20005489:	7fff      	ldrbeq	r7, [r7, #31]
2000548b:	bef4      	bkpt	0x00f4
2000548d:	ffdb fffb 			; <UNDEFINED> instruction: 0xffdbfffb
20005491:	efff fb7b 			; <UNDEFINED> instruction: 0xeffffb7b
20005495:	bfd7      	itett	le
20005497:	88f2      	ldrhle	r2, [r6, #6]
20005499:	2400      	movgt	r4, #0
2000549b:	0180      	lslle	r0, r0, #6
2000549d:	bf15      	itete	ne	; unpredictable <IT:le>
2000549f:	beff      	bkpt	0x00ff
200054a1:	fbbf ffff 	udiveq	pc, pc, pc
200054a5:	b5ff      	pushne	{r0, r1, r2, r3, r4, r5, r6, r7, lr}
200054a7:	bd5f      	popeq	{r0, r1, r2, r3, r4, r6, pc}
200054a9:	7277      	strb	r7, [r6, #9]
200054ab:	afbf      	add	r7, sp, #764	; 0x2fc
200054ad:	7f7f      	ldrb	r7, [r7, #29]
200054af:	fbff 7ff7 			; <UNDEFINED> instruction: 0xfbff7ff7
200054b3:	fffe 6948 	vtbx.8	d22, {d14-d15}, d8
200054b7:	0401      	lsls	r1, r0, #16
200054b9:	774b      	strb	r3, [r1, #29]
200054bb:	fe6d ffff 	mcr2	15, 3, pc, cr13, cr15, {7}	; <UNPREDICTABLE>
200054bf:	ff57 bdd6 	vmul.f<illegal width 64>	<illegal reg q13.5>, <illegal reg q11.5>, q3
200054c3:	bfb7      	itett	lt
200054c5:	ffef ddef 	vqrdmulhlt.s32	<illegal reg q14.5>, <illegal reg q15.5>, d15[1]
200054c9:	21dd      	movge	r1, #221	; 0xdd
200054cb:	0854      	lsrlt	r4, r2, #1
200054cd:	0821      	lsrlt	r1, r4, #32
200054cf:	fe17 fffe 	mrc2	15, 0, pc, cr7, cr14, {7}
200054d3:	fffe ffef 	vqrdmlsh.s<illegal width 64>	<illegal reg q15.5>, q15, d31[0]
200054d7:	fbdf d7ae 			; <UNDEFINED> instruction: 0xfbdfd7ae
200054db:	6a5d      	ldr	r5, [r3, #36]	; 0x24
200054dd:	f5fe ffdf 	bl	1fe0449f <__etext+0x1fde383f>
200054e1:	fffb fe5d 	vcvt.f32.u32	<illegal reg q15.5>, <illegal reg q6.5>, #5
200054e5:	f9ff 4425 	ldr??.w	r4, [pc, #1061]	; 2000590d <screen+0x2cac>
200054e9:	1154      	asrs	r4, r2, #5
200054eb:	fd7f ffff 	ldc2l	15, cr15, [pc, #-1020]!	; 200050f0 <screen+0x248f>
200054ef:	ffff fa5a 			; <UNDEFINED> instruction: 0xfffffa5a
200054f3:	f7fb feff 	bl	200012f5 <__etext+0x1ffe0695>
200054f7:	ffdb ffbe 			; <UNDEFINED> instruction: 0xffdbffbe
200054fb:	14e9      	asrs	r1, r5, #19
200054fd:	0000      	movs	r0, r0
200054ff:	2084      	movs	r0, #132	; 0x84
20005501:	bf2d      	iteet	cs
20005503:	eedd 7bbf 	vmovcs.u8	r7, d29[1]
20005507:	f7fe fcff 	blcc	20003f09 <screen+0x12a8>	; unpredictable branch in IT block

2000550b:	ffbd 4bf7 			; <UNDEFINED> instruction: 0xffbd4bf7
2000550f:	fb5f ffff 			; <UNDEFINED> instruction: 0xfb5fffff
20005513:	ffff fffe 			; <UNDEFINED> instruction: 0xfffffffe
20005517:	fef7 a992 	mrc2	9, 7, sl, cr7, cr2, {4}
2000551b:	8b00      	ldrh	r0, [r0, #24]
2000551d:	dfdd      	svc	221	; 0xdd
2000551f:	f7b7 ffbf 	bl	1ffbd4a1 <__etext+0x1ff9c841>
20005523:	ff6d bfdf 	vminnm.f32	<illegal reg q13.5>, <illegal reg q14.5>, <illegal reg q7.5>
20005527:	6bff      	ldr	r7, [r7, #60]	; 0x3c
20005529:	bf7f      	itttt	vc
2000552b:	b6ff      			; <UNDEFINED> instruction: 0xb6ff
2000552d:	81d2      	strhvc	r2, [r2, #14]
2000552f:	8224      	strhvc	r4, [r4, #16]
20005531:	0210      	lslvc	r0, r2, #8
20005533:	f717 fb7f 	bl	1ff1cc35 <__etext+0x1fefbfd5>
20005537:	fffd ffbf 			; <UNDEFINED> instruction: 0xfffdffbf
2000553b:	dbf6      	blt.n	2000552b <screen+0x28ca>
2000553d:	f55e 26ed 	adcs.w	r6, lr, #485376	; 0x76800
20005541:	bcde      	pop	{r1, r2, r3, r4, r6, r7}
20005543:	fff7 ffff 			; <UNDEFINED> instruction: 0xfff7ffff
20005547:	fd77 f4ff 	ldc2l	4, cr15, [r7, #-1020]!	; 0xfffffc04
2000554b:	0249      	lsls	r1, r1, #9
2000554d:	7f55      	ldrb	r5, [r2, #29]
2000554f:	f77f beff 	b.w	1ff85351 <__etext+0x1ff646f1>
20005553:	f7f7 ff56 	bl	1fffd403 <__etext+0x1ffdc7a3>
20005557:	eeff ffd7 	mrc	15, 7, APSR_nzcv, cr15, cr7, {6}
2000555b:	fbdb ffef 			; <UNDEFINED> instruction: 0xfbdbffef
2000555f:	2054      	movs	r0, #84	; 0x54
20005561:	1000      	asrs	r0, r0, #32
20005563:	4000      	ands	r0, r0
20005565:	df2e      	svc	46	; 0x2e
20005567:	5ff7      	ldrsh	r7, [r6, r7]
20005569:	777f      	strb	r7, [r7, #29]
2000556b:	fffb f57f 	vsli.32	<illegal reg q15.5>, <illegal reg q15.5>, #27
2000556f:	fefb 5df5 	mrc2	13, 7, r5, cr11, cr5, {7}
20005573:	dfeb      	svc	235	; 0xeb
20005575:	fd7d 7fff 	ldc2l	15, cr7, [sp, #-1020]!	; 0xfffffc04
20005579:	ffff ebff 			; <UNDEFINED> instruction: 0xffffebff
2000557d:	a954      	add	r1, sp, #336	; 0x150
2000557f:	ff2b bff6 	vminnm.f32	<illegal reg q5.5>, <illegal reg q13.5>, q11
20005583:	ffb6 bfff 			; <UNDEFINED> instruction: 0xffb6bfff
20005587:	5fab      	ldrsh	r3, [r5, r6]
20005589:	fffe f6ff 	vqshlu.s64	<illegal reg q15.5>, <illegal reg q15.5>, #62	; 0x3e
2000558d:	ffbf dafd 			; <UNDEFINED> instruction: 0xffbfdafd
20005591:	09a1      	lsrs	r1, r4, #6
20005593:	4010      	ands	r0, r2
20005595:	0882      	lsrs	r2, r0, #2
20005597:	fe35 f7fd 	mrc2	7, 1, pc, cr5, cr13, {7}
2000559b:	bfdf      	itttt	le
2000559d:	fb7f 5dfd 			; <UNDEFINED> instruction: 0xfb7f5dfd
200055a1:	ff77 2d55 			; <UNDEFINED> instruction: 0xff772d55
200055a5:	aff7      	addle	r7, sp, #988	; 0x3dc
200055a7:	f7af ffff 	blle	1ffb55a9 <__etext+0x1ff94949>
200055ab:	ffff d4ff 	vsri.64	<illegal reg q14.5>, <illegal reg q15.5>, #1
200055af:	5592      	strb	r2, [r2, r6]
200055b1:	bb7f      	cbnz	r7, 20005613 <screen+0x29b2>
200055b3:	fbff ddff 			; <UNDEFINED> instruction: 0xfbffddff
200055b7:	ffef ff6a 	vqrdmlsh.s32	<illegal reg q15.5>, <illegal reg q7.5>, d10[1]
200055bb:	bbff      	cbnz	r7, 2000563d <screen+0x29dc>
200055bd:	ffbd dfed 	vqrdmlsh.s<illegal width 64>	<illegal reg q6.5>, <illegal reg q14.5>, d29[0]
200055c1:	f7f7 4054 			; <UNDEFINED> instruction: 0xf7f74054
200055c5:	0242      	lsls	r2, r0, #9
200055c7:	0210      	lsls	r0, r2, #8
200055c9:	ff57 6eb7 	vacge.f<illegal width 64>	d22, d23, d23
200055cd:	f7fd ffff 	bl	200035cf <screen+0x96e>
200055d1:	fef5 bdfb 	mrc2	13, 7, fp, cr5, cr11, {7}
200055d5:	fb7e ffba 			; <UNDEFINED> instruction: 0xfb7effba
200055d9:	ff7f fdff 			; <UNDEFINED> instruction: 0xff7ffdff
200055dd:	ffff aaf6 			; <UNDEFINED> instruction: 0xffffaaf6
200055e1:	97aa      	str	r7, [sp, #680]	; 0x2a8
200055e3:	feee bfdb 	mcr2	15, 7, fp, cr14, cr11, {6}
200055e7:	f776 fffe 	bl	1ff7c5e7 <__etext+0x1ff5b987>
200055eb:	bfad      	iteet	ge
200055ed:	fffb beff 			; <UNDEFINED> instruction: 0xfffbbeff
200055f1:	ffbf ddee 	vqrdmulhlt.s<illegal width 64>	<illegal reg q6.5>, <illegal reg q15.5>, d30[0]
200055f5:	1222      	asrlt	r2, r4, #8
200055f7:	0800      	lsrge	r0, r0, #32
200055f9:	9000      	str	r0, [sp, #0]
200055fb:	bd7d      	pop	{r0, r2, r3, r4, r5, r6, pc}
200055fd:	bffd      	ittte	<und>
200055ff:	5d6f      	ldrb<und>	r7, [r5, r5]
20005601:	f777 affe 	ble.w	1fffd601 <__etext+0x1ffdc9a1>	; unpredictable <IT:<und>>
20005605:	fed7 75d5 	mrc2<und>	5, 6, r7, cr7, cr5, {6}
20005609:	2ebb      	cmpal	r6, #187	; 0xbb
2000560b:	bfbe      	ittt	lt
2000560d:	ff7f ffff 	vminnmlt.f<illegal width 64>	<illegal reg q15.5>, <illegal reg q15.5>, <illegal reg q15.5>	; <UNPREDICTABLE>
20005611:	55bb      	strblt	r3, [r7, r6]
20005613:	fe4a f7ff 	mcr2lt	7, 2, pc, cr10, cr15, {7}	; <UNPREDICTABLE>
20005617:	edff 5edb 	ldcl	14, cr5, [pc, #876]!	; 20005984 <screen+0x2d23>
2000561b:	fdb7 ffb6 	ldc2	15, cr15, [r7, #728]!	; 0x2d8
2000561f:	ffff fbfb 			; <UNDEFINED> instruction: 0xfffffbfb
20005623:	effa f5ff 	vshl.s64	<illegal reg q15.5>, <illegal reg q15.5>, #58	; 0x3a
20005627:	8048      	strh	r0, [r1, #2]
20005629:	2029      	movs	r0, #41	; 0x29
2000562b:	0044      	lsls	r4, r0, #1
2000562d:	ffd7 db6e 			; <UNDEFINED> instruction: 0xffd7db6e
20005631:	eefe fffe 	mrc	15, 7, APSR_nzcv, cr14, cr14, {7}
20005635:	d7d5      	bvc.n	200055e3 <screen+0x2982>
20005637:	f9ff 6bff 	ldr??.w	r6, [pc, #3071]	; 20006237 <screen+0x35d6>
2000563b:	7ddd      	ldrb	r5, [r3, #23]
2000563d:	eaf7 ffef 			; <UNDEFINED> instruction: 0xeaf7ffef
20005641:	fdff aada 	ldc2l	10, cr10, [pc, #872]!	; 200059ac <screen+0x2d4b>
20005645:	df5f      	svc	95	; 0x5f
20005647:	ffff bfda 			; <UNDEFINED> instruction: 0xffffbfda
2000564b:	f5ef ffff 	bl	1fdf564d <__etext+0x1fdd49ed>
2000564f:	abd5      	add	r3, sp, #852	; 0x354
20005651:	f7fe 7fbf 			; <UNDEFINED> instruction: 0xf7fe7fbf
20005655:	ffbf f4ff 	vsri.64	<illegal reg q7.5>, <illegal reg q15.5>, #1
20005659:	5484      	strb	r4, [r0, r2]
2000565b:	0080      	lsls	r0, r0, #2
2000565d:	4400      	add	r0, r0
2000565f:	fd2e def6 	stc2	14, cr13, [lr, #-984]!	; 0xfffffc28
20005663:	6bbf      	ldr	r7, [r7, #56]	; 0x38
20005665:	f7bf fb6f 	bl	1ffc4d47 <__etext+0x1ffa40e7>
20005669:	6f9f      	ldr	r7, [r3, #120]	; 0x78
2000566b:	aff5      	add	r7, sp, #980	; 0x3d4
2000566d:	f557 7fff 	adcs.w	pc, r7, #510	; 0x1fe
20005671:	ffff 6fff 			; <UNDEFINED> instruction: 0xffff6fff
20005675:	b56a      	push	{r1, r3, r5, r6, lr}
20005677:	7dfb      	ldrb	r3, [r7, #23]
20005679:	7bf7      	ldrb	r7, [r6, #15]
2000567b:	f677 bfba 	b.w	1fe7d5f3 <__etext+0x1fe5c993>
2000567f:	efae f7ab 	vabdl.s32	<illegal reg q7.5>, d30, d27
20005683:	ffff efff 			; <UNDEFINED> instruction: 0xffffefff
20005687:	fff7 eadf 			; <UNDEFINED> instruction: 0xfff7eadf
2000568b:	0029      	movs	r1, r5
2000568d:	0200      	lsls	r0, r0, #8
2000568f:	0111      	lsls	r1, r2, #4
20005691:	fe5b bfdd 	mrc2	15, 2, fp, cr11, cr13, {6}
20005695:	b5fd      	push	{r0, r2, r3, r4, r5, r6, r7, lr}
20005697:	fffd 7dbb 			; <UNDEFINED> instruction: 0xfffd7dbb
2000569b:	f37f d6fe 	bl	20f8549b <__stack+0xf7d49b>
2000569f:	eff5 bfff 			; <UNDEFINED> instruction: 0xeff5bfff
200056a3:	ffbf fbff 			; <UNDEFINED> instruction: 0xffbffbff
200056a7:	fff6 f7ff 	vqshl.u64	<illegal reg q15.5>, <illegal reg q15.5>, #54	; 0x36
200056ab:	dfdf      	svc	223	; 0xdf
200056ad:	dfdf      	svc	223	; 0xdf
200056af:	dbff      	blt.n	200056b1 <screen+0x2a50>
200056b1:	fefb 5ddd 	mrc2	13, 7, r5, cr11, cr13, {6}
200056b5:	bfff      	itttt	<und>
200056b7:	7eff      	ldrb<und>	r7, [r7, #27]
200056b9:	bfff      	itttt	<und>	; unpredictable <IT:<und>>
200056bb:	a9ff      	add<und>	r1, sp, #1020	; 0x3fc
200056bd:	4440      	add<und>	r0, r8
200056bf:	4892      	ldr<und>	r0, [pc, #584]	; (20005908 <screen+0x2ca7>)
200056c1:	1040      	asr<und>	r0, r0, #1
200056c3:	bb6f      	cbnz	r7, 20005721 <screen+0x2ac0>
200056c5:	f6f7 deff 	bl	1f6fd4c7 <__etext+0x1f6dc867>
200056c9:	fedf eddf 	mrc2	13, 6, lr, cr15, cr15, {6}
200056cd:	f7bf bf3f 	b.w	1ffc554f <__etext+0x1ffa48ef>
200056d1:	effe ff7f 	vcvt.s32.f32	<illegal reg q15.5>, <illegal reg q15.5>, #2
200056d5:	fbff ffff 			; <UNDEFINED> instruction: 0xfbffffff
200056d9:	df5f      	svc	95	; 0x5f
200056db:	ffef fefe 			; <UNDEFINED> instruction: 0xffeffefe
200056df:	7dff      	ldrb	r7, [r7, #23]
200056e1:	be56      	bkpt	0x0056
200056e3:	ffaf ebd7 			; <UNDEFINED> instruction: 0xffafebd7
200056e7:	fbff f7ff 			; <UNDEFINED> instruction: 0xfbfff7ff
200056eb:	ffff 52fd 	vrshr.u64	<illegal reg q10.5>, <illegal reg q14.5>, #1
200056ef:	1015      	asrs	r5, r2, #32
200056f1:	0000      	movs	r0, r0
200056f3:	0400      	lsls	r0, r0, #16
200056f5:	fd5d 5f6d 	ldc2l	15, cr5, [sp, #-436]	; 0xfffffe4c
200056f9:	b5fa      	push	{r1, r3, r4, r5, r6, r7, lr}
200056fb:	edfb fdae 	ldcl	13, cr15, [fp, #696]!	; 0x2b8
200056ff:	d7cb      	bvc.n	20005699 <screen+0x2a38>
20005701:	ddde      	ble.n	200056c1 <screen+0x2a60>
20005703:	5fbf      	ldrsh	r7, [r7, r6]
20005705:	5bdf      	ldrh	r7, [r3, r7]
20005707:	fffb efff 			; <UNDEFINED> instruction: 0xfffbefff
2000570b:	fffe bf7f 	vcvt.u32.f32	<illegal reg q13.5>, <illegal reg q15.5>, #2
2000570f:	fbfb feff 			; <UNDEFINED> instruction: 0xfbfbfeff
20005713:	efef 7ffd 			; <UNDEFINED> instruction: 0xefef7ffd
20005717:	6cd5      	ldr	r5, [r2, #76]	; 0x4c
20005719:	7ffb      	ldrb	r3, [r7, #31]
2000571b:	fddf efbf 	ldc2l	15, cr14, [pc, #764]	; 20005a18 <screen+0x2db7>
2000571f:	48ff      	ldr	r0, [pc, #1020]	; (20005b1c <screen+0x2ebb>)
20005721:	4280      	cmp	r0, r0
20005723:	0048      	lsls	r0, r1, #1
20005725:	9104      	str	r1, [sp, #16]
20005727:	f7f7 fefb 	bl	1fffd521 <__etext+0x1ffdc8c1>
2000572b:	dbef      	blt.n	2000570d <screen+0x2aac>
2000572d:	feff bbff 	mrc2	11, 7, fp, cr15, cr15, {7}
20005731:	deeb      	udf	#235	; 0xeb
20005733:	efab ebff 			; <UNDEFINED> instruction: 0xefabebff
20005737:	be7d      	bkpt	0x007d
20005739:	ffdf 7dff 			; <UNDEFINED> instruction: 0xffdf7dff
2000573d:	f7fb fffe 	bl	2000173d <__etext+0x1ffe0add>
20005741:	ff6f f7ff 	vaba.u32	<illegal reg q15.5>, <illegal reg q15.5>, <illegal reg q15.5>
20005745:	bdba      	pop	{r1, r3, r4, r5, r7, pc}
20005747:	ffdf d5ee 	vmls.f<illegal width 16>	<illegal reg q14.5>, <illegal reg q15.5>, d6[3]
2000574b:	ff5f d7ff 	vaba.u16	<illegal reg q14.5>, <illegal reg q15.5>, <illegal reg q15.5>
2000574f:	fffb a4f4 	vsri.64	q13, q10, #5
20005753:	0855      	lsrs	r5, r2, #1
20005755:	2401      	movs	r4, #1
20005757:	0440      	lsls	r0, r0, #17
20005759:	5b5d      	ldrh	r5, [r3, r5]
2000575b:	fbb6 effe 			; <UNDEFINED> instruction: 0xfbb6effe
2000575f:	b577      	push	{r0, r1, r2, r4, r5, r6, lr}
20005761:	f57b dd7a 	bl	1f581259 <__etext+0x1f5605f9>
20005765:	b7f7      			; <UNDEFINED> instruction: 0xb7f7
20005767:	57ef      	ldrsb	r7, [r5, r7]
20005769:	fffd ffff 			; <UNDEFINED> instruction: 0xfffdffff
2000576d:	ffff 7fef 	vqrdmlsh.s<illegal width 64>	<illegal reg q11.5>, <illegal reg q15.5>, d31[0]
20005771:	ffff ffff 			; <UNDEFINED> instruction: 0xffffffff
20005775:	ffff ffff 			; <UNDEFINED> instruction: 0xffffffff
20005779:	fff6 b6b5 	vqshlu.s64	d27, d21, #54	; 0x36
2000577d:	ffbf ffff 			; <UNDEFINED> instruction: 0xffbfffff
20005781:	bf7f      	itttt	vc
20005783:	115a      	asrvc	r2, r3, #5
20005785:	4100      	asrvc	r0, r0
20005787:	0020      	movvc	r0, r4
20005789:	4200      	tstvc	r0, r0
2000578b:	fdae bfff 	stc2	15, cr11, [lr, #1020]!	; 0x3fc
2000578f:	5dff      	ldrb	r7, [r7, r7]
20005791:	efff ebdf 			; <UNDEFINED> instruction: 0xefffebdf
20005795:	5d9d      	ldrb	r5, [r3, r6]
20005797:	7dbf      	ldrb	r7, [r7, #22]
20005799:	b9be      	cbnz	r6, 200057cb <screen+0x2b6a>
2000579b:	aefb      	add	r6, sp, #1004	; 0x3ec
2000579d:	ffbf bfbf 			; <UNDEFINED> instruction: 0xffbfbfbf
200057a1:	efff f7fb 	vqshl.s64	<illegal reg q15.5>, <illegal reg q13.5>, #63	; 0x3f
200057a5:	ffbf ffff 			; <UNDEFINED> instruction: 0xffbfffff
200057a9:	f7ff dfff 	bl	1f8057ab <__etext+0x1f7e4b4b>
200057ad:	daee      	bge.n	2000578d <screen+0x2b2c>
200057af:	ffab ffff 			; <UNDEFINED> instruction: 0xffabffff
200057b3:	ffdf 44a1 	vraddhn.i32	d20, <illegal reg q15.5>, <illegal reg q8.5>
200057b7:	1255      	asrs	r5, r2, #9
200057b9:	0008      	movs	r0, r1
200057bb:	1012      	asrs	r2, r2, #32
200057bd:	b755      			; <UNDEFINED> instruction: 0xb755
200057bf:	ffaa ebeb 			; <UNDEFINED> instruction: 0xffaaebeb
200057c3:	dbde      	blt.n	20005783 <screen+0x2b22>
200057c5:	ee77 76ef 	cdp	6, 7, cr7, cr7, cr15, {7}
200057c9:	d6d6      	bvs.n	20005779 <screen+0x2b18>
200057cb:	feea bfb7 	mcr2	15, 7, fp, cr10, cr7, {5}
200057cf:	ffff f7fe 	vqshl.u64	<illegal reg q15.5>, q15, #63	; 0x3f
200057d3:	ff7d bfdf 	vminnm.f<illegal width 64>	<illegal reg q13.5>, <illegal reg q14.5>, <illegal reg q7.5>
200057d7:	ffff 7efb 			; <UNDEFINED> instruction: 0xffff7efb
200057db:	dff6      	svc	246	; 0xf6
200057dd:	7f7f      	ldrb	r7, [r7, #29]
200057df:	6aeb      	ldr	r3, [r5, #44]	; 0x2c
200057e1:	ffdd ffff 			; <UNDEFINED> instruction: 0xffddffff
200057e5:	faff 1194 			; <UNDEFINED> instruction: 0xfaff1194
200057e9:	4000      	ands	r0, r0
200057eb:	2241      	movs	r2, #65	; 0x41
200057ed:	4a40      	ldr	r2, [pc, #256]	; (200058f0 <screen+0x2c8f>)
200057ef:	7bbb      	ldrb	r3, [r7, #14]
200057f1:	ffff 77ff 	vqshl.u64	<illegal reg q11.5>, <illegal reg q15.5>, #63	; 0x3f
200057f5:	eb7b aed7 			; <UNDEFINED> instruction: 0xeb7baed7
200057f9:	bbe7      	cbnz	r7, 20005875 <screen+0x2c14>
200057fb:	db6e      	blt.n	200058db <screen+0x2c7a>
200057fd:	df55      	svc	85	; 0x55
200057ff:	5757      	ldrsb	r7, [r2, r5]
20005801:	fff7 ffff 			; <UNDEFINED> instruction: 0xfff7ffff
20005805:	fdff fffe 	ldc2l	15, cr15, [pc, #1016]!	; 20005c00 <screen+0x2f9f>
20005809:	f7ff efbf 			; <UNDEFINED> instruction: 0xf7ffefbf
2000580d:	fdbf ffff 	ldc2	15, cr15, [pc, #1020]!	; 20005c0c <screen+0x2fab>
20005811:	aa75      	add	r2, sp, #468	; 0x1d4
20005813:	dfb6      	svc	182	; 0xb6
20005815:	ffff ebf7 			; <UNDEFINED> instruction: 0xffffebf7
20005819:	0421      	lsls	r1, r4, #16
2000581b:	0955      	lsrs	r5, r2, #5
2000581d:	0000      	movs	r0, r0
2000581f:	0001      	movs	r1, r0
20005821:	ef65 f7ef 	vabd.s32	<illegal reg q15.5>, <illegal reg q10.5>, <illegal reg q15.5>
20005825:	df7d      	svc	125	; 0x7d
20005827:	5fbf      	ldrsh	r7, [r7, r6]
20005829:	ed75 7efb 	ldcl	14, cr7, [r5, #-1004]!	; 0xfffffc14
2000582d:	e5bd      	b.n	200053ab <screen+0x274a>
2000582f:	a7fd      	add	r7, pc, #1012	; (adr r7, 20005c24 <screen+0x2fc3>)
20005831:	eadf feff 			; <UNDEFINED> instruction: 0xeadffeff
20005835:	ffff bfef 	vqrdmlsh.s<illegal width 64>	<illegal reg q13.5>, <illegal reg q15.5>, d31[0]
20005839:	fff7 deff 			; <UNDEFINED> instruction: 0xfff7deff
2000583d:	bbea      	cbnz	r2, 200058bb <screen+0x2c5a>
2000583f:	77f7      	strb	r7, [r6, #31]
20005841:	fff7 b5ee 	vmls.f<illegal width 64>	<illegal reg q13.5>, <illegal reg q11.5>, d30[0]
20005845:	6fdb      	ldr	r3, [r3, #124]	; 0x7c
20005847:	ffff 54ff 	vsri.64	<illegal reg q10.5>, <illegal reg q15.5>, #1
2000584b:	4048      	eors	r0, r1
2000584d:	4000      	ands	r0, r0
2000584f:	0008      	movs	r0, r1
20005851:	5004      	str	r4, [r0, r0]
20005853:	bd9a      	pop	{r1, r3, r4, r7, pc}
20005855:	dfbf      	svc	191	; 0xbf
20005857:	fef7 f7ff 	mrc2	7, 7, pc, cr7, cr15, {7}
2000585b:	fdfb afee 	ldc2l	15, cr10, [fp, #952]!	; 0x3b8
2000585f:	7abe      	ldrb	r6, [r7, #10]
20005861:	5af7      	ldrh	r7, [r6, r3]
20005863:	7bed      	ldrb	r5, [r5, #15]
20005865:	ffdb efff 			; <UNDEFINED> instruction: 0xffdbefff
20005869:	fffd ff7f 	vcvt.u32.f32	<illegal reg q15.5>, <illegal reg q15.5>, #3
2000586d:	fffd eeff 			; <UNDEFINED> instruction: 0xfffdeeff
20005871:	ffdd fbde 			; <UNDEFINED> instruction: 0xffddfbde
20005875:	56fa      	ldrsb	r2, [r7, r3]
20005877:	bbb5      	cbnz	r5, 200058e7 <screen+0x2c86>
20005879:	ffff 49f5 			; <UNDEFINED> instruction: 0xffff49f5
2000587d:	1212      	asrs	r2, r2, #8
2000587f:	12aa      	asrs	r2, r5, #10
20005881:	1121      	asrs	r1, r4, #4
20005883:	0410      	lsls	r0, r2, #16
20005885:	efc5 7fff 			; <UNDEFINED> instruction: 0xefc57fff
20005889:	bbff      	cbnz	r7, 2000590b <screen+0x2caa>
2000588b:	beb6      	bkpt	0x00b6
2000588d:	fafc efee 			; <UNDEFINED> instruction: 0xfafcefee
20005891:	bdf5      	pop	{r0, r2, r4, r5, r6, r7, pc}
20005893:	bd2e      	pop	{r1, r2, r3, r5, pc}
20005895:	5dbf      	ldrb	r7, [r7, r6]
20005897:	ffff fffd 			; <UNDEFINED> instruction: 0xfffffffd
2000589b:	ed7f ffed 	ldcl	15, cr15, [pc, #-948]!	; 200054e8 <screen+0x2887>
2000589f:	fdef fffe 	stc2l	15, cr15, [pc, #1016]!	; 20005c98 <screen+0x3037>
200058a3:	dfff      	svc	255	; 0xff
200058a5:	dfff      	svc	255	; 0xff
200058a7:	2bf0      	cmp	r3, #240	; 0xf0
200058a9:	ee6e b5aa 	cdp	5, 6, cr11, cr14, cr10, {5}
200058ad:	a45a      	add	r4, pc, #360	; (adr r4, 20005a18 <screen+0x2db7>)
200058af:	40a0      	lsls	r0, r4
200058b1:	8000      	strh	r0, [r0, #0]
200058b3:	0080      	lsls	r0, r0, #2
200058b5:	5001      	str	r1, [r0, r0]
200058b7:	7b25      	ldrb	r5, [r4, #12]
200058b9:	ffff fede 			; <UNDEFINED> instruction: 0xfffffede
200058bd:	fdfd 6ddf 	ldc2l	13, cr6, [sp, #892]!	; 0x37c
200058c1:	f25b affa 	bls.w	200e18b9 <__stack+0xd98b9>
200058c5:	ebaf cf7f 			; <UNDEFINED> instruction: 0xebafcf7f
200058c9:	fbfa ffbf 			; <UNDEFINED> instruction: 0xfbfaffbf
200058cd:	7fff      	ldrb	r7, [r7, #31]
200058cf:	fdff 6fbf 	ldc2l	15, cr6, [pc, #764]!	; 20005bcc <screen+0x2f6b>
200058d3:	dbf7      	blt.n	200058c5 <screen+0x2c64>
200058d5:	ff77 7f7d 	vminnm.f<illegal width 64>	<illegal reg q11.5>, <illegal reg q3.5>, <illegal reg q14.5>
200058d9:	35f8      	adds	r5, #248	; 0xf8
200058db:	bdf5      	pop	{r0, r2, r4, r5, r6, r7, pc}
200058dd:	4ada      	ldr	r2, [pc, #872]	; (20005c48 <screen+0x2fe7>)
200058df:	124a      	asrs	r2, r1, #9
200058e1:	0912      	lsrs	r2, r2, #4
200058e3:	282a      	cmp	r0, #42	; 0x2a
200058e5:	0004      	movs	r4, r0
200058e7:	4024      	ands	r4, r4
200058e9:	de05      	udf	#5
200058eb:	ffff efff 			; <UNDEFINED> instruction: 0xffffefff
200058ef:	fbf7 3fef 			; <UNDEFINED> instruction: 0xfbf73fef
200058f3:	fd5d d7eb 	ldc2l	7, cr13, [sp, #-940]	; 0xfffffc54
200058f7:	7eb5      	ldrb	r5, [r6, #26]
200058f9:	f7bb ffff 	bl	1ffc18fb <__etext+0x1ffa0c9b>
200058fd:	fff7 f7ef 	vcvt.u<illegal width 16>.f<illegal width 16>	<illegal reg q15.5>, <illegal reg q15.5>
20005901:	bfff      	itttt	<und>
20005903:	faff ffbf 			; <UNDEFINED> instruction: 0xfaffffbf
20005907:	fffe ffff 			; <UNDEFINED> instruction: 0xfffeffff
2000590b:	1ef0      	sub<und>	r0, r6, #3
2000590d:	f6ae 55ad 	subw<und>	r5, lr, #3501	; 0xdad
20005911:	4925      	ldr	r1, [pc, #148]	; (200059a8 <screen+0x2d47>)
20005913:	0048      	lsls	r0, r1, #1
20005915:	8200      	strh	r0, [r0, #16]
20005917:	4840      	ldr	r0, [pc, #256]	; (20005a18 <screen+0x2db7>)
20005919:	0081      	lsls	r1, r0, #2
2000591b:	3725      	adds	r7, #37	; 0x25
2000591d:	febf fffb 	mrc2	15, 5, pc, cr15, cr11, {7}
20005921:	f7fa d7b5 	bl	1f40088f <__etext+0x1f3dfc2f>
20005925:	bedb      	bkpt	0x00db
20005927:	6eb5      	ldr	r5, [r6, #104]	; 0x68
20005929:	dd7e      	ble.n	20005a29 <screen+0x2dc8>
2000592b:	fafe fffa 			; <UNDEFINED> instruction: 0xfafefffa
2000592f:	fbff bffd 			; <UNDEFINED> instruction: 0xfbffbffd
20005933:	ff7f dfff 	vminnm.f<illegal width 64>	<illegal reg q14.5>, <illegal reg q15.5>, <illegal reg q15.5>
20005937:	eeee f7df 	mcr	7, 7, pc, cr14, cr15, {6}	; <UNPREDICTABLE>
2000593b:	efef 2bf8 			; <UNDEFINED> instruction: 0xefef2bf8
2000593f:	bbdb      	cbnz	r3, 200059b9 <screen+0x2d58>
20005941:	9074      	str	r0, [sp, #464]	; 0x1d0
20005943:	a490      	add	r4, pc, #576	; (adr r4, 20005b84 <screen+0x2f23>)
20005945:	a580      	add	r5, pc, #512	; (adr r5, 20005b48 <screen+0x2ee7>)
20005947:	0852      	lsrs	r2, r2, #1
20005949:	0011      	movs	r1, r2
2000594b:	0808      	lsrs	r0, r1, #32
2000594d:	a502      	add	r5, pc, #8	; (adr r5, 20005958 <screen+0x2cf7>)
2000594f:	ff5b fdff 	vmul.f<illegal width 64>	<illegal reg q15.5>, <illegal reg q13.5>, <illegal reg q15.5>
20005953:	bfae      	itee	ge
20005955:	edbe eff7 	ldcge	15, cr14, [lr, #988]!	; 0x3dc
20005959:	bdba      	poplt	{r1, r3, r4, r5, r7, pc}
2000595b:	bdff      	poplt	{r0, r1, r2, r3, r4, r5, r6, r7, pc}
2000595d:	faf7 7fff 			; <UNDEFINED> instruction: 0xfaf77fff
20005961:	efff fdff 			; <UNDEFINED> instruction: 0xeffffdff
20005965:	fffb ffff 			; <UNDEFINED> instruction: 0xfffbffff
20005969:	fffb bdfb 			; <UNDEFINED> instruction: 0xfffbbdfb
2000596d:	bfff      	itttt	<und>
2000596f:	36fc      	add<und>	r6, #252	; 0xfc
20005971:	eded 4aaa 	stcl<und>	10, cr4, [sp, #680]!	; 0x2a8
20005975:	1255      	asr<und>	r5, r2, #9
20005977:	002a      	mov<und>	r2, r5
20005979:	4100      	asrs	r0, r0
2000597b:	0200      	lsls	r0, r0, #8
2000597d:	2025      	movs	r0, #37	; 0x25
2000597f:	5204      	strh	r4, [r0, r0]
20005981:	ff6f ffeb 	vpmin.f32	<illegal reg q15.5>, <illegal reg q15.5>, <illegal reg q13.5>
20005985:	5ebf      	ldrsh	r7, [r7, r2]
20005987:	f6eb 7bbf 			; <UNDEFINED> instruction: 0xf6eb7bbf
2000598b:	fbbf ebf7 			; <UNDEFINED> instruction: 0xfbbfebf7
2000598f:	fefe fd7d 	mrc2	13, 7, pc, cr14, cr13, {3}
20005993:	ffbf dffe 			; <UNDEFINED> instruction: 0xffbfdffe
20005997:	fdff f5f6 	ldc2l	5, cr15, [pc, #984]!	; 20005d70 <screen+0x310f>
2000599b:	6faf      	ldr	r7, [r5, #120]	; 0x78
2000599d:	fffe fb7b 			; <UNDEFINED> instruction: 0xfffefb7b
200059a1:	1bdc      	subs	r4, r3, r7
200059a3:	755b      	strb	r3, [r3, #21]
200059a5:	a16a      	add	r1, pc, #424	; (adr r1, 20005b50 <screen+0x2eef>)
200059a7:	a908      	add	r1, sp, #32
200059a9:	1200      	asrs	r0, r0, #8
200059ab:	08a9      	lsrs	r1, r5, #2
200059ad:	1048      	asrs	r0, r1, #1
200059af:	0000      	movs	r0, r0
200059b1:	0410      	lsls	r0, r2, #16
200059b3:	ef2f f777 	vaba.s32	<illegal reg q7.5>, <illegal reg q7.5>, <illegal reg q11.5>
200059b7:	de6b      	udf	#107	; 0x6b
200059b9:	fbbc ff6d 			; <UNDEFINED> instruction: 0xfbbcff6d
200059bd:	f7af fdbf 	bl	1ffb553f <__etext+0x1ff948df>
200059c1:	fb77 ff7f 			; <UNDEFINED> instruction: 0xfb77ff7f
200059c5:	fff7 ff77 	vcvt.u32.f32	<illegal reg q15.5>, <illegal reg q11.5>, #9
200059c9:	bfef      	iteee	al
200059cb:	bfdf      	itttt	le	; unpredictable <IT:al>
200059cd:	fbfd f77b 			; <UNDEFINED> instruction: 0xfbfdf77b
200059d1:	feff 17fc 	mrc2le	7, 7, r1, cr15, cr12, {7}
200059d5:	d6b6      	bvs.n	20005945 <screen+0x2ce4>	; unpredictable <IT:le>
200059d7:	8ab4      	ldrhle	r4, [r6, #20]
200059d9:	0452      	lsls	r2, r2, #17
200059db:	80a8      	strh	r0, [r5, #4]
200059dd:	2104      	movs	r1, #4
200059df:	0001      	movs	r1, r0
200059e1:	02a8      	lsls	r0, r5, #10
200059e3:	8000      	strh	r0, [r0, #0]
200059e5:	bf2e      	itee	cs
200059e7:	debe      	udfcs	#190	; 0xbe
200059e9:	dfff      	svccc	255	; 0xff
200059eb:	e7d7      	bcc.n	2000599d <screen+0x2d3c>
200059ed:	afaf      	add	r7, sp, #700	; 0x2bc
200059ef:	6bf1      	ldr	r1, [r6, #60]	; 0x3c
200059f1:	bedd      	bkpt	0x00dd
200059f3:	efff 7faf 			; <UNDEFINED> instruction: 0xefff7faf
200059f7:	7dff      	ldrb	r7, [r7, #23]
200059f9:	bbfd      	cbnz	r5, 20005a7b <screen+0x2e1a>
200059fb:	ffff feff 			; <UNDEFINED> instruction: 0xfffffeff
200059ff:	5fdf      	ldrsh	r7, [r3, r7]
20005a01:	fdef fbdf 	stc2l	11, cr15, [pc, #892]!	; 20005d80 <screen+0x311f>
20005a05:	1dfe      	adds	r6, r7, #7
20005a07:	6bdf      	ldr	r7, [r3, #60]	; 0x3c
20005a09:	4152      	adcs	r2, r2
20005a0b:	a924      	add	r1, sp, #144	; 0x90
20005a0d:	1502      	asrs	r2, r0, #20
20005a0f:	8450      	strh	r0, [r2, #34]	; 0x22
20005a11:	2210      	movs	r2, #16
20005a13:	4802      	ldr	r0, [pc, #8]	; (20005a1c <screen+0x2dbb>)
20005a15:	1100      	asrs	r0, r0, #4
20005a17:	ff17 7dff 	vmul.f<illegal width 64>	<illegal reg q3.5>, <illegal reg q11.5>, <illegal reg q15.5>
20005a1b:	b7f9      			; <UNDEFINED> instruction: 0xb7f9
20005a1d:	af7b      	add	r7, sp, #492	; 0x1ec
20005a1f:	ff53 affe 	vmaxnm.f<illegal width 64>	q13, <illegal reg q9.5>, q15
20005a23:	f77f f7bf 	bl	1fb859a5 <__etext+0x1fb64d45>
20005a27:	ffb5 f7ff 	vqshl.u64	<illegal reg q7.5>, <illegal reg q15.5>, #53	; 0x35
20005a2b:	ffdf ffff 			; <UNDEFINED> instruction: 0xffdfffff
20005a2f:	dbfd      	blt.n	20005a2d <screen+0x2dcc>
20005a31:	f5f7 df7f 	bl	1f5fd933 <__etext+0x1f5dccd3>
20005a35:	7f7f      	ldrb	r7, [r7, #29]
20005a37:	16fc      	asrs	r4, r7, #27
20005a39:	b5b5      	push	{r0, r2, r4, r5, r7, lr}
20005a3b:	28a9      	cmp	r0, #169	; 0xa9
20005a3d:	4492      	add	sl, r2
20005a3f:	4050      	eors	r0, r2
20005a41:	0002      	movs	r2, r0
20005a43:	0842      	lsrs	r2, r0, #1
20005a45:	00a0      	lsls	r0, r4, #2
20005a47:	0004      	movs	r4, r0
20005a49:	fe5d ffef 	cdp2	15, 5, cr15, cr13, cr15, {7}
20005a4d:	b5f7      	push	{r0, r1, r2, r4, r5, r6, r7, lr}
20005a4f:	dfd7      	svc	215	; 0xd7
20005a51:	7fbd      	ldrb	r5, [r7, #30]
20005a53:	df7f      	svc	127	; 0x7f
20005a55:	effe add7 			; <UNDEFINED> instruction: 0xeffeadd7
20005a59:	bedf      	bkpt	0x00df
20005a5b:	fffb ffff 			; <UNDEFINED> instruction: 0xfffbffff
20005a5f:	fffd fff7 			; <UNDEFINED> instruction: 0xfffdfff7
20005a63:	7ffd      	ldrb	r5, [r7, #31]
20005a65:	fbfb fffd 			; <UNDEFINED> instruction: 0xfbfbfffd
20005a69:	0fdf      	lsrs	r7, r3, #31
20005a6b:	d6da      	bvs.n	20005a23 <screen+0x2dc2>
20005a6d:	05a9      	lsls	r1, r5, #22
20005a6f:	2909      	cmp	r1, #9
20005a71:	0404      	lsls	r4, r0, #16
20005a73:	24a8      	movs	r4, #168	; 0xa8
20005a75:	8208      	strh	r0, [r1, #16]
20005a77:	0008      	movs	r0, r1
20005a79:	8010      	strh	r0, [r2, #0]
20005a7b:	df1f      	svc	31
20005a7d:	5a77      	ldrh	r7, [r6, r1]
20005a7f:	ffd6 3dff 			; <UNDEFINED> instruction: 0xffd63dff
20005a83:	7dfd      	ldrb	r5, [r7, #23]
20005a85:	ebdf fbfb 			; <UNDEFINED> instruction: 0xebdffbfb
20005a89:	7def      	ldrb	r7, [r5, #23]
20005a8b:	ff7e bfef 	vpmin.f<illegal width 64>	<illegal reg q13.5>, q15, <illegal reg q15.5>
20005a8f:	6fef      	ldr	r7, [r5, #124]	; 0x7c
20005a91:	ed77 b7ff 	ldcl	7, cr11, [r7, #-1020]!	; 0xfffffc04
20005a95:	dd6f      	ble.n	20005b77 <screen+0x2f16>
20005a97:	6ebf      	ldr	r7, [r7, #104]	; 0x68
20005a99:	fef7 0afe 	mrc2	10, 7, r0, cr7, cr14, {7}
20005a9d:	5ab7      	ldrh	r7, [r6, r2]
20005a9f:	50d2      	str	r2, [r2, r3]
20005aa1:	4250      	negs	r0, r2
20005aa3:	2051      	movs	r0, #81	; 0x51
20005aa5:	8100      	strh	r0, [r0, #8]
20005aa7:	2820      	cmp	r0, #32
20005aa9:	2441      	movs	r4, #65	; 0x41
20005aab:	0900      	lsrs	r0, r0, #4
20005aad:	bb5f      	cbnz	r7, 20005b07 <screen+0x2ea6>
20005aaf:	efee fa6e 	vmull.s32	<illegal reg q15.5>, d14, d14[1]
20005ab3:	f7fe 9fff 	b.w	1f804ab5 <__etext+0x1f7e3e55>
20005ab7:	7aff      	ldrb	r7, [r7, #11]
20005ab9:	deb7      	udf	#183	; 0xb7
20005abb:	f5f5 ffff 	bl	1fdfbabd <__etext+0x1fddae5d>
20005abf:	febf ffff 	mrc2	15, 5, pc, cr15, cr15, {7}
20005ac3:	bfff      	itttt	<und>
20005ac5:	efff effd 			; <UNDEFINED> instruction: 0xefffeffd
20005ac9:	fbff fbbf 			; <UNDEFINED> instruction: 0xfbfffbbf
20005acd:	0ffb      	lsr<und>	r3, r7, #31
20005acf:	aada      	add<und>	r2, sp, #872	; 0x368
20005ad1:	8aa4      	ldrh	r4, [r4, #20]
20005ad3:	1085      	asrs	r5, r0, #2
20005ad5:	0a00      	lsrs	r0, r0, #8
20005ad7:	10aa      	asrs	r2, r5, #2
20005ad9:	8204      	strh	r4, [r0, #16]
20005adb:	0100      	lsls	r0, r0, #4
20005add:	0000      	movs	r0, r0
20005adf:	df1d      	svc	29
20005ae1:	fbbf ffbd 			; <UNDEFINED> instruction: 0xfbbfffbd
20005ae5:	bf5e      	ittt	pl
20005ae7:	fde7 df6f 	stc2lpl	15, cr13, [r7, #444]!	; 0x1bc
20005aeb:	7fdf      	ldrbpl	r7, [r3, #31]
20005aed:	d7fe      	bvc.n	20005aed <screen+0x2e8c>	; unpredictable <IT:pl>
20005aef:	df37      	svc	55	; 0x37
20005af1:	f7ff fffd 	bl	20005aef <screen+0x2e8e>
20005af5:	ffdd bddf 			; <UNDEFINED> instruction: 0xffddbddf
20005af9:	b6ff      			; <UNDEFINED> instruction: 0xb6ff
20005afb:	aeed      	add	r6, sp, #948	; 0x3b4
20005afd:	fffb 0aef 	vtbx.8	d16, {d27-d29}, d31
20005b01:	d5b6      	bpl.n	20005a71 <screen+0x2e10>
20005b03:	2051      	movs	r0, #81	; 0x51
20005b05:	8a50      	ldrh	r0, [r2, #18]
20005b07:	40aa      	lsls	r2, r5
20005b09:	4500      	cmp	r0, r0
20005b0b:	2850      	cmp	r0, #80	; 0x50
20005b0d:	9494      	str	r4, [sp, #592]	; 0x250
20005b0f:	2002      	movs	r0, #2
20005b11:	f75f f7fd 	bl	1fb65b0f <__etext+0x1fb44eaf>
20005b15:	efdb f6ba 			; <UNDEFINED> instruction: 0xefdbf6ba
20005b19:	dff5      	svc	245	; 0xf5
20005b1b:	f7fe f5df 	bl	1fc046dd <__etext+0x1fbe3a7d>
20005b1f:	eff5 ffdf 			; <UNDEFINED> instruction: 0xeff5ffdf
20005b23:	bfff      	itttt	<und>
20005b25:	fedf f6f7 	mrc2<und>	6, 6, pc, cr15, cr7, {7}
20005b29:	ffff ffb7 			; <UNDEFINED> instruction: 0xffffffb7
20005b2d:	fbff ffef 			; <UNDEFINED> instruction: 0xfbffffef
20005b31:	0fff      	lsr<und>	r7, r7, #31
20005b33:	566b      	ldrsb	r3, [r5, r1]
20005b35:	0a84      	lsrs	r4, r0, #10
20005b37:	400a      	ands	r2, r1
20005b39:	2900      	cmp	r1, #0
20005b3b:	0052      	lsls	r2, r2, #1
20005b3d:	8002      	strh	r2, [r0, #0]
20005b3f:	0000      	movs	r0, r0
20005b41:	0010      	movs	r0, r2
20005b43:	af3e      	add	r7, sp, #248	; 0xf8
20005b45:	ddfb      	ble.n	20005b3f <screen+0x2ede>
20005b47:	fff7 efed 	vqrdmlsh.s<illegal width 64>	q15, <illegal reg q11.5>, d29[0]
20005b4b:	aff6      	add	r7, sp, #984	; 0x3d8
20005b4d:	7d7f      	ldrb	r7, [r7, #21]
20005b4f:	bfef      	iteee	al
20005b51:	f7ef fede 	blal	1fff5911 <__etext+0x1ffd4cb1>	; unpredictable branch in IT block

20005b55:	ffff fbff 			; <UNDEFINED> instruction: 0xfffffbff
20005b59:	bffe      	ittt	<und>	; unpredictable <IT:<und>>
20005b5b:	f7f7 fbfe 	bl<und>	1fffd35b <__etext+0x1ffdc6fb>	; unpredictable branch in IT block

20005b5f:	befe      	bkpt	0x00fe
20005b61:	ffbf 05bf 	vsli<und>.64	d0, d31, #63	; 0x3f
20005b65:	aaba      	add	r2, sp, #744	; 0x2e8
20005b67:	41a9      	sbcs	r1, r5
20005b69:	2a41      	cmp	r2, #65	; 0x41
20005b6b:	02a9      	lsls	r1, r5, #10
20005b6d:	aa08      	add	r2, sp, #32
20005b6f:	2a49      	cmp	r2, #73	; 0x49
20005b71:	a44a      	add	r4, pc, #296	; (adr r4, 20005c9c <screen+0x303b>)
20005b73:	0400      	lsls	r0, r0, #16
20005b75:	ff9f fef7 			; <UNDEFINED> instruction: 0xff9ffef7
20005b79:	bbf7      	cbnz	r7, 20005bf9 <screen+0x2f98>
20005b7b:	fbf5 ebdd 			; <UNDEFINED> instruction: 0xfbf5ebdd
20005b7f:	dbfd      	blt.n	20005b7d <screen+0x2f1c>
20005b81:	ebbb 7fdd 	cmp.w	fp, sp, lsr #31
20005b85:	ff5b fffe 	vmaxnm.f<illegal width 64>	<illegal reg q15.5>, <illegal reg q13.5>, q15
20005b89:	efff fbdb 			; <UNDEFINED> instruction: 0xeffffbdb
20005b8d:	fefe efdf 	mrc2	15, 7, lr, cr14, cr15, {6}
20005b91:	effb 7dff 			; <UNDEFINED> instruction: 0xeffb7dff
20005b95:	8efa      	ldrh	r2, [r7, #54]	; 0x36
20005b97:	55d5      	strb	r5, [r2, r7]
20005b99:	1442      	asrs	r2, r0, #17
20005b9b:	002a      	movs	r2, r5
20005b9d:	5004      	str	r4, [r0, r0]
20005b9f:	01a2      	lsls	r2, r4, #6
20005ba1:	0024      	movs	r4, r4
20005ba3:	0180      	lsls	r0, r0, #6
20005ba5:	8000      	strh	r0, [r0, #0]
20005ba7:	bf3f      	itttt	cc
20005ba9:	ff7f ffaf 	vpmincc.f<illegal width 64>	d31, d31, d31
20005bad:	7eed      	ldrbcc	r5, [r5, #27]
20005baf:	fdfb fbbe 	ldc2lcc	11, cr15, [fp, #760]!	; 0x2f8
20005bb3:	fffd b57f 	vslicc.32	<illegal reg q13.5>, <illegal reg q15.5>, #29
20005bb7:	ff7f fff7 	vminnm.f<illegal width 64>	<illegal reg q15.5>, <illegal reg q15.5>, <illegal reg q11.5>
20005bbb:	bffa      	itte	<und>
20005bbd:	df7f      	svc<und>	127	; 0x7f
20005bbf:	ef6f bfff 	vrsqrts<und>.f32	<illegal reg q13.5>, <illegal reg q15.5>, <illegal reg q15.5>
20005bc3:	fbbf ef7b 			; <UNDEFINED> instruction: 0xfbbfef7b
20005bc7:	0bfb      	lsrs	r3, r7, #15
20005bc9:	aa6d      	add	r2, sp, #436	; 0x1b4
20005bcb:	81a8      	strh	r0, [r5, #12]
20005bcd:	aa00      	add	r2, sp, #0
20005bcf:	04a1      	lsls	r1, r4, #18
20005bd1:	4808      	ldr	r0, [pc, #32]	; (20005bf4 <screen+0x2f93>)
20005bd3:	aa92      	add	r2, sp, #584	; 0x248
20005bd5:	a82a      	add	r0, sp, #168	; 0xa8
20005bd7:	0002      	movs	r2, r0
20005bd9:	dfbd      	svc	189	; 0xbd
20005bdb:	bfef      	iteee	al
20005bdd:	df5f      	svcal	95	; 0x5f
20005bdf:	7bb7      	ldrb<und>	r7, [r6, #14]
20005be1:	ffde 6eef 	vqrdmlah<und>.s16	q11, q15, d7[3]
20005be5:	7fff      	ldrb<und>	r7, [r7, #31]
20005be7:	fdff ffeb 	ldc2l	15, cr15, [pc, #940]!	; 20005f94 <screen+0x3333>
20005beb:	fedf 7da5 	cdp2	13, 13, cr7, cr15, cr5, {5}
20005bef:	fbed fdff 			; <UNDEFINED> instruction: 0xfbedfdff
20005bf3:	fff7 5ff7 			; <UNDEFINED> instruction: 0xfff75ff7
20005bf7:	ffdf cded 	vqrdmulh.s16	q14, <illegal reg q15.5>, d5[3]
20005bfb:	55b5      	strb	r5, [r6, r6]
20005bfd:	2822      	cmp	r0, #34	; 0x22
20005bff:	00aa      	lsls	r2, r5, #2
20005c01:	5248      	strh	r0, [r1, r1]
20005c03:	15a1      	asrs	r1, r4, #22
20005c05:	0020      	movs	r0, r4
20005c07:	0280      	lsls	r0, r0, #10
20005c09:	0810      	lsrs	r0, r2, #32
20005c0b:	ff3f fede 	vacgt.f<illegal width 64>	<illegal reg q7.5>, <illegal reg q15.5>, q7
20005c0f:	fbeb 9fef 			; <UNDEFINED> instruction: 0xfbeb9fef
20005c13:	bebf      	bkpt	0x00bf
20005c15:	dffb      	svc	251	; 0xfb
20005c17:	fdff be77 	ldc2l	14, cr11, [pc, #476]!	; 20005df4 <screen+0x3193>
20005c1b:	7fff      	ldrb	r7, [r7, #31]
20005c1d:	aaff      	add	r2, sp, #1020	; 0x3fc
20005c1f:	1b94      	subs	r4, r2, r6
20005c21:	7fff      	ldrb	r7, [r7, #31]
20005c23:	bfbb      	ittet	lt
20005c25:	ffbe fb7f 			; <UNDEFINED> instruction: 0xffbefb7f
20005c29:	ff7f 4bfb 	vqrdmlahlt.s<illegal width 64>	q10, <illegal reg q15.5>, <illegal reg q13.5>
20005c2d:	5455      	strbge	r5, [r2, r1]
20005c2f:	0288      	lsllt	r0, r1, #10
20005c31:	aa00      	add	r2, sp, #0
20005c33:	0012      	movs	r2, r2
20005c35:	4408      	add	r0, r1
20005c37:	aa8a      	add	r2, sp, #552	; 0x228
20005c39:	8824      	ldrh	r4, [r4, #0]
20005c3b:	0100      	lsls	r0, r0, #4
20005c3d:	ff75 fdef 	vabd.f<illegal width 64>	<illegal reg q15.5>, <illegal reg q10.5>, <illegal reg q15.5>
20005c41:	fffa efbf 			; <UNDEFINED> instruction: 0xfffaefbf
20005c45:	fbfb fbef 			; <UNDEFINED> instruction: 0xfbfbfbef
20005c49:	abdf      	add	r3, sp, #892	; 0x37c
20005c4b:	effd fdff 			; <UNDEFINED> instruction: 0xeffdfdff
20005c4f:	5154      	str	r4, [r2, r5]
20005c51:	8f42      	ldrh	r2, [r0, #58]	; 0x3a
20005c53:	ee5b f6fe 	mrc	6, 2, APSR_nzcv, cr11, cr14, {7}
20005c57:	ffff ffef 	vqrdmlsh.s<illegal width 64>	<illegal reg q15.5>, <illegal reg q15.5>, d31[0]
20005c5b:	ffff adf5 			; <UNDEFINED> instruction: 0xffffadf5
20005c5f:	aaaa      	add	r2, sp, #680	; 0x2a8
20005c61:	90a2      	str	r0, [sp, #648]	; 0x288
20005c63:	01aa      	lsls	r2, r5, #6
20005c65:	aa44      	add	r2, sp, #272	; 0x110
20005c67:	28a5      	cmp	r0, #165	; 0xa5
20005c69:	0050      	lsls	r0, r2, #1
20005c6b:	0000      	movs	r0, r0
20005c6d:	2000      	movs	r0, #0
20005c6f:	aff6      	add	r7, sp, #984	; 0x3d8
20005c71:	ffeb fffd 			; <UNDEFINED> instruction: 0xffebfffd
20005c75:	f2d9 f7fe 	bl	206dfc75 <__stack+0x6d7c75>
20005c79:	effe ffff 			; <UNDEFINED> instruction: 0xeffeffff
20005c7d:	ffef a5aa 	vabal.u32	q13, d31, d26
20005c81:	8a52      	ldrh	r2, [r2, #18]
20005c83:	2f28      	cmp	r7, #40	; 0x28
20005c85:	fffe ffef 	vqrdmlsh.s<illegal width 64>	<illegal reg q15.5>, q15, d31[0]
20005c89:	fbfb b7bd 			; <UNDEFINED> instruction: 0xfbfbb7bd
20005c8d:	7ff7      	ldrb	r7, [r6, #31]
20005c8f:	16f9      	asrs	r1, r7, #27
20005c91:	a4d6      	add	r4, pc, #856	; (adr r4, 20005fec <screen+0x338b>)
20005c93:	0490      	lsls	r0, r2, #18
20005c95:	4801      	ldr	r0, [pc, #4]	; (20005c9c <screen+0x303b>)
20005c97:	1111      	asrs	r1, r2, #4
20005c99:	4511      	cmp	r1, r2
20005c9b:	5105      	str	r5, [r0, r4]
20005c9d:	2010      	movs	r0, #16
20005c9f:	0211      	lsls	r1, r2, #8
20005ca1:	fffb fbff 			; <UNDEFINED> instruction: 0xfffbfbff
20005ca5:	7ede      	ldrb	r6, [r3, #27]
20005ca7:	bfb6      	itet	lt
20005ca9:	f7df bfff 	blt.w	1ffe5cab <__etext+0x1ffc504b>	; unpredictable branch in IT block

20005cad:	ebff a4fa 			; <UNDEFINED> instruction: 0xebffa4fa
20005cb1:	4854      	ldrlt	r0, [pc, #336]	; (20005e04 <screen+0x31a3>)
20005cb3:	2088      	movs	r0, #136	; 0x88
20005cb5:	0581      	lsls	r1, r0, #22
20005cb7:	bbdb      	cbnz	r3, 20005d31 <screen+0x30d0>
20005cb9:	6fff      	ldr	r7, [r7, #124]	; 0x7c
20005cbb:	ffff feff 			; <UNDEFINED> instruction: 0xfffffeff
20005cbf:	ffff 4bfa 			; <UNDEFINED> instruction: 0xffff4bfa
20005cc3:	955a      	str	r5, [sp, #360]	; 0x168
20005cc5:	a144      	add	r1, pc, #272	; (adr r1, 20005dd8 <screen+0x3177>)
20005cc7:	1254      	asrs	r4, r2, #9
20005cc9:	4a88      	ldr	r2, [pc, #544]	; (20005eec <screen+0x328b>)
20005ccb:	204a      	movs	r0, #74	; 0x4a
20005ccd:	00a0      	lsls	r0, r4, #2
20005ccf:	0002      	movs	r2, r0
20005cd1:	0100      	lsls	r0, r0, #4
20005cd3:	f7ed f7fa 	bl	1fbf3ccb <__etext+0x1fbd306b>
20005cd7:	9eb7      	ldr	r6, [sp, #732]	; 0x2dc
20005cd9:	fbff df77 			; <UNDEFINED> instruction: 0xfbffdf77
20005cdd:	effd ff6f 	vext.8	<illegal reg q15.5>, <illegal reg q6.5>, <illegal reg q15.5>, #15
20005ce1:	5255      	strh	r5, [r2, r1]
20005ce3:	9282      	str	r2, [sp, #520]	; 0x208
20005ce5:	8822      	ldrh	r2, [r4, #0]
20005ce7:	2710      	movs	r7, #16
20005ce9:	ef7e fa7b 	vpmin.s<illegal width 64>	<illegal reg q15.5>, q7, <illegal reg q13.5>
20005ced:	dfdf      	svc	223	; 0xdf
20005cef:	fbff ffff 			; <UNDEFINED> instruction: 0xfbffffff
20005cf3:	25f9      	movs	r5, #249	; 0xf9
20005cf5:	5265      	strh	r5, [r4, r1]
20005cf7:	0822      	lsrs	r2, r4, #32
20005cf9:	8002      	strh	r2, [r0, #0]
20005cfb:	a152      	add	r1, pc, #328	; (adr r1, 20005e44 <screen+0x31e3>)
20005cfd:	9440      	str	r4, [sp, #256]	; 0x100
20005cff:	8408      	strh	r0, [r1, #32]
20005d01:	0840      	lsrs	r0, r0, #1
20005d03:	0900      	lsrs	r0, r0, #4
20005d05:	fbfe bffe 			; <UNDEFINED> instruction: 0xfbfebffe
20005d09:	ebff 5fd7 			; <UNDEFINED> instruction: 0xebff5fd7
20005d0d:	fffd f5f7 	vsli.64	<illegal reg q15.5>, <illegal reg q11.5>, #61	; 0x3d
20005d11:	51ff      	str	r7, [r7, r7]
20005d13:	484a      	ldr	r0, [pc, #296]	; (20005e3c <screen+0x31db>)
20005d15:	0028      	movs	r0, r5
20005d17:	2280      	movs	r2, #128	; 0x80
20005d19:	8144      	strh	r4, [r0, #10]
20005d1b:	7ff7      	ldrb	r7, [r6, #31]
20005d1d:	dfee      	svc	238	; 0xee
20005d1f:	fdfd dfdb 	ldc2l	15, cr13, [sp, #876]!	; 0x36c
20005d23:	dfff      	svc	255	; 0xff
20005d25:	8bfc      	ldrh	r4, [r7, #30]
20005d27:	4aaa      	ldr	r2, [pc, #680]	; (20005fd0 <screen+0x336f>)
20005d29:	2290      	movs	r2, #144	; 0x90
20005d2b:	55a8      	strb	r0, [r5, r6]
20005d2d:	1504      	asrs	r4, r0, #20
20005d2f:	022a      	lsls	r2, r5, #8
20005d31:	1082      	asrs	r2, r0, #2
20005d33:	8008      	strh	r0, [r1, #0]
20005d35:	2312      	movs	r3, #18
20005d37:	fdfd aeb7 	ldc2l	14, cr10, [sp, #732]!	; 0x2dc
20005d3b:	d7b5      	bvc.n	20005ca9 <screen+0x3048>
20005d3d:	efdf bfff 			; <UNDEFINED> instruction: 0xefdfbfff
20005d41:	ffdf 4cf5 			; <UNDEFINED> instruction: 0xffdf4cf5
20005d45:	0221      	lsls	r1, r4, #8
20005d47:	4a82      	ldr	r2, [pc, #520]	; (20005f50 <screen+0x32ef>)
20005d49:	8014      	strh	r4, [r2, #0]
20005d4b:	0200      	lsls	r0, r0, #8
20005d4d:	dafd      	bge.n	20005d4b <screen+0x30ea>
20005d4f:	ffff b7f7 	vqshl.u64	<illegal reg q13.5>, <illegal reg q11.5>, #63	; 0x3f
20005d53:	ffff ffdd 			; <UNDEFINED> instruction: 0xffffffdd
20005d57:	25da      	movs	r5, #218	; 0xda
20005d59:	5255      	strh	r5, [r2, r1]
20005d5b:	0049      	lsls	r1, r1, #1
20005d5d:	0012      	movs	r2, r2
20005d5f:	a8a9      	add	r0, sp, #676	; 0x2a4
20005d61:	a884      	add	r0, sp, #528	; 0x210
20005d63:	0120      	lsls	r0, r4, #4
20005d65:	2220      	movs	r2, #32
20005d67:	0700      	lsls	r0, r0, #28
20005d69:	beef      	bkpt	0x00ef
20005d6b:	efff 7bff 			; <UNDEFINED> instruction: 0xefff7bff
20005d6f:	7df5      	ldrb	r5, [r6, #23]
20005d71:	df7e      	svc	126	; 0x7e
20005d73:	69ff      	ldr	r7, [r7, #28]
20005d75:	2209      	movs	r2, #9
20005d77:	2088      	movs	r0, #136	; 0x88
20005d79:	0010      	movs	r0, r2
20005d7b:	0440      	lsls	r0, r0, #17
20005d7d:	1190      	asrs	r0, r2, #6
20005d7f:	efd7 b6bb 			; <UNDEFINED> instruction: 0xefd7b6bb
20005d83:	ffdf fff7 			; <UNDEFINED> instruction: 0xffdffff7
20005d87:	ff7f 42fd 	vqsub.u64	q10, <illegal reg q15.5>, <illegal reg q14.5>
20005d8b:	49a9      	ldr	r1, [pc, #676]	; (20006030 <screen+0x33cf>)
20005d8d:	4a24      	ldr	r2, [pc, #144]	; (20005e20 <screen+0x31bf>)
20005d8f:	aaa4      	add	r2, sp, #656	; 0x290
20005d91:	4514      	cmp	r4, r2
20005d93:	0028      	movs	r0, r5
20005d95:	8408      	strh	r0, [r1, #32]
20005d97:	8004      	strh	r4, [r0, #0]
20005d99:	0f00      	lsrs	r0, r0, #28
20005d9b:	fbfd f7fd 			; <UNDEFINED> instruction: 0xfbfdf7fd
20005d9f:	f6b5 ffff 	bl	1febbda1 <__etext+0x1fe9b141>
20005da3:	efbf aa7e 			; <UNDEFINED> instruction: 0xefbfaa7e
20005da7:	90a8      	str	r0, [sp, #672]	; 0x2a0
20005da9:	0822      	lsrs	r2, r4, #32
20005dab:	5242      	strh	r2, [r0, r1]
20005dad:	2002      	movs	r0, #2
20005daf:	4002      	ands	r2, r0
20005db1:	bbfe      	cbnz	r6, 20005e33 <screen+0x31d2>
20005db3:	ffef fefe 			; <UNDEFINED> instruction: 0xffeffefe
20005db7:	77df      	strb	r7, [r3, #31]
20005db9:	ffff 93fe 	vrsra.u64	<illegal reg q12.5>, q15, #1
20005dbd:	2a55      	cmp	r2, #85	; 0x55
20005dbf:	8090      	strh	r0, [r2, #4]
20005dc1:	4412      	add	r2, r2
20005dc3:	28a3      	cmp	r0, #163	; 0xa3
20005dc5:	9242      	str	r2, [sp, #264]	; 0x108
20005dc7:	2042      	movs	r0, #66	; 0x42
20005dc9:	0880      	lsrs	r0, r0, #2
20005dcb:	9b10      	ldr	r3, [sp, #64]	; 0x40
20005dcd:	f677 efee 	blx	1fe7ddad <__etext+0x1fe5d14d>
20005dd1:	efff f55e 	vshl.s32	<illegal reg q15.5>, q7, #31
20005dd5:	fafd d0fa 			; <UNDEFINED> instruction: 0xfafdd0fa
20005dd9:	0492      	lsls	r2, r2, #18
20005ddb:	8280      	strh	r0, [r0, #20]
20005ddd:	0000      	movs	r0, r0
20005ddf:	0020      	movs	r0, r4
20005de1:	0000      	movs	r0, r0
20005de3:	ee6f effe 	mcr	15, 3, lr, cr15, cr14, {7}
20005de7:	db77      	blt.n	20005ed9 <screen+0x3278>
20005de9:	ffff ffff 			; <UNDEFINED> instruction: 0xffffffff
20005ded:	010e      	lsls	r6, r1, #4
20005def:	a454      	add	r4, pc, #336	; (adr r4, 20005f40 <screen+0x32df>)
20005df1:	2944      	cmp	r1, #68	; 0x44
20005df3:	2949      	cmp	r1, #73	; 0x49
20005df5:	8548      	strh	r0, [r1, #42]	; 0x2a
20005df7:	0010      	movs	r0, r2
20005df9:	0808      	lsrs	r0, r1, #32
20005dfb:	422a      	tst	r2, r5
20005dfd:	2f00      	cmp	r7, #0
20005dff:	effd daff 			; <UNDEFINED> instruction: 0xeffddaff
20005e03:	dfd7      	svc	215	; 0xd7
20005e05:	fff5 7ff7 			; <UNDEFINED> instruction: 0xfff57ff7
20005e09:	8aca      	ldrh	r2, [r1, #22]
20005e0b:	a040      	add	r0, pc, #256	; (adr r0, 20005f0c <screen+0x32ab>)
20005e0d:	1004      	asrs	r4, r0, #32
20005e0f:	0112      	lsls	r2, r2, #4
20005e11:	8904      	ldrh	r4, [r0, #8]
20005e13:	0024      	movs	r4, r4
20005e15:	bb7b      	cbnz	r3, 20005e77 <screen+0x3216>
20005e17:	fdbb ffff 	ldc2	15, cr15, [fp, #1020]!	; 0x3fc
20005e1b:	fdfb bff7 	ldc2l	15, cr11, [fp, #988]!	; 0x3dc
20005e1f:	a957      	add	r1, sp, #348	; 0x15c
20005e21:	9252      	str	r2, [sp, #328]	; 0x148
20005e23:	0492      	lsls	r2, r2, #18
20005e25:	92a4      	str	r2, [sp, #656]	; 0x290
20005e27:	2825      	cmp	r0, #37	; 0x25
20005e29:	2489      	movs	r4, #137	; 0x89
20005e2b:	2281      	movs	r2, #129	; 0x81
20005e2d:	1080      	asrs	r0, r0, #2
20005e2f:	3f02      	subs	r7, #2
20005e31:	dfff      	svc	255	; 0xff
20005e33:	df7d      	svc	125	; 0x7d
20005e35:	ffff bdfe 			; <UNDEFINED> instruction: 0xffffbdfe
20005e39:	deff      	udf	#255	; 0xff
20005e3b:	2055      	movs	r0, #85	; 0x55
20005e3d:	0414      	lsls	r4, r2, #16
20005e3f:	0020      	movs	r0, r4
20005e41:	4880      	ldr	r0, [pc, #512]	; (20006044 <screen+0x33e3>)
20005e43:	0000      	movs	r0, r0
20005e45:	1200      	asrs	r0, r0, #8
20005e47:	fe2e b7ff 	mcr2	7, 1, fp, cr14, cr15, {7}
20005e4b:	ffb6 dfff 			; <UNDEFINED> instruction: 0xffb6dfff
20005e4f:	feff 4192 	mrc2	1, 7, r4, cr15, cr2, {4}
20005e53:	494a      	ldr	r1, [pc, #296]	; (20005f7c <screen+0x331b>)
20005e55:	5224      	strh	r4, [r4, r0]
20005e57:	a912      	add	r1, sp, #72	; 0x48
20005e59:	8448      	strh	r0, [r1, #34]	; 0x22
20005e5b:	0040      	lsls	r0, r0, #1
20005e5d:	4024      	ands	r4, r4
20005e5f:	4012      	ands	r2, r2
20005e61:	ff00 fff7 	vmaxnm.f32	<illegal reg q7.5>, q8, <illegal reg q11.5>
20005e65:	bfdb      	ittet	le
20005e67:	5fff      	ldrshle	r7, [r7, r7]
20005e69:	dfef      	svcle	239	; 0xef
20005e6b:	f5fb 0a50 			; <UNDEFINED> instruction: 0xf5fb0a50
20005e6f:	1081      	asrle	r1, r0, #2
20005e71:	8280      	strh	r0, [r0, #20]
20005e73:	0001      	movs	r1, r0
20005e75:	2040      	movs	r0, #64	; 0x40
20005e77:	8000      	strh	r0, [r0, #0]
20005e79:	d71f      	bvc.n	20005ebb <screen+0x325a>
20005e7b:	feee eeff 	mcr2	14, 7, lr, cr14, cr15, {7}
20005e7f:	ffef feff 			; <UNDEFINED> instruction: 0xffeffeff
20005e83:	047b      	lsls	r3, r7, #17
20005e85:	2aa9      	cmp	r2, #169	; 0xa9
20005e87:	0949      	lsrs	r1, r1, #5
20005e89:	2455      	movs	r4, #85	; 0x55
20005e8b:	5224      	strh	r4, [r4, r0]
20005e8d:	5525      	strb	r5, [r4, r4]
20005e8f:	0811      	lsrs	r1, r2, #32
20005e91:	0440      	lsls	r0, r0, #17
20005e93:	ff20 fffd 	vminnm.f32	<illegal reg q7.5>, q8, <illegal reg q14.5>
20005e97:	ffff 7fdf 			; <UNDEFINED> instruction: 0xffff7fdf
20005e9b:	efff a8df 			; <UNDEFINED> instruction: 0xefffa8df
20005e9f:	a08a      	add	r0, pc, #552	; (adr r0, 200060c8 <screen+0x3467>)
20005ea1:	4048      	eors	r0, r1
20005ea3:	1008      	asrs	r0, r1, #32
20005ea5:	0210      	lsls	r0, r2, #8
20005ea7:	0209      	lsls	r1, r1, #8
20005ea9:	0048      	lsls	r0, r1, #1
20005eab:	7d1f      	ldrb	r7, [r3, #20]
20005ead:	dbbf      	blt.n	20005e2f <screen+0x31ce>
20005eaf:	ffff ffff 			; <UNDEFINED> instruction: 0xffffffff
20005eb3:	ffbf d171 	vsra.u32	<illegal reg q6.5>, <illegal reg q8.5>, #1
20005eb7:	9124      	str	r1, [sp, #144]	; 0x90
20005eb9:	4420      	add	r0, r4
20005ebb:	4292      	cmp	r2, r2
20005ebd:	0892      	lsrs	r2, r2, #2
20005ebf:	0080      	lsls	r0, r0, #2
20005ec1:	2240      	movs	r2, #64	; 0x40
20005ec3:	0000      	movs	r0, r0
20005ec5:	db02      	blt.n	20005ecd <screen+0x326c>
20005ec7:	fff7 7fdf 			; <UNDEFINED> instruction: 0xfff77fdf
20005ecb:	fffe fbbd 			; <UNDEFINED> instruction: 0xfffefbbd
20005ecf:	92fa      	str	r2, [sp, #1000]	; 0x3e8
20005ed1:	1550      	asrs	r0, r2, #21
20005ed3:	0422      	lsls	r2, r4, #16
20005ed5:	0021      	movs	r1, r4
20005ed7:	1000      	asrs	r0, r0, #32
20005ed9:	0000      	movs	r0, r0
20005edb:	0000      	movs	r0, r0
20005edd:	fe17 fffb 	mrc2	15, 0, pc, cr7, cr11, {7}
20005ee1:	bfed      	iteet	al
20005ee3:	7f7f      	ldrbal	r7, [r7, #29]
20005ee5:	feff 4275 	mrc2<und>	2, 7, r4, cr15, cr5, {3}
20005ee9:	48aa      	ldr<und>	r0, [pc, #680]	; (20006194 <screen+0x3533>)
20005eeb:	1195      	asral	r5, r2, #6
20005eed:	9424      	str	r4, [sp, #144]	; 0x90
20005eef:	5249      	strh	r1, [r1, r1]
20005ef1:	4414      	add	r4, r2
20005ef3:	8014      	strh	r4, [r2, #0]
20005ef5:	2002      	movs	r0, #2
20005ef7:	ff03 7fff 	vmaxnm.f32	<illegal reg q3.5>, <illegal reg q9.5>, <illegal reg q15.5>
20005efb:	fffe fdfd 			; <UNDEFINED> instruction: 0xfffefdfd
20005eff:	feff 4aea 	vcvtm.s32.f32	s9, s21
20005f03:	ca8a      	ldmia	r2!, {r1, r3, r7}
20005f05:	4188      	sbcs	r0, r1
20005f07:	0400      	lsls	r0, r0, #16
20005f09:	4084      	lsls	r4, r0
20005f0b:	1000      	asrs	r0, r0, #32
20005f0d:	0801      	lsrs	r1, r0, #32
20005f0f:	ef8d 77df 	vqshl.s64	<illegal reg q3.5>, <illegal reg q7.5>, #13
20005f13:	ff7f fdfb 			; <UNDEFINED> instruction: 0xff7ffdfb
20005f17:	ffff 9001 	vaddl.u<illegal width 64>	<illegal reg q12.5>, d15, d1
20005f1b:	a592      	add	r5, pc, #584	; (adr r5, 20006164 <screen+0x3503>)
20005f1d:	8040      	strh	r0, [r0, #2]
20005f1f:	0241      	lsls	r1, r0, #9
20005f21:	0020      	movs	r0, r4
20005f23:	1141      	asrs	r1, r0, #5
20005f25:	0040      	lsls	r0, r0, #1
20005f27:	0220      	lsls	r0, r4, #8
20005f29:	fb07 dfef 			; <UNDEFINED> instruction: 0xfb07dfef
20005f2d:	fff5 fff7 			; <UNDEFINED> instruction: 0xfff5fff7
20005f31:	7ff7      	ldrb	r7, [r6, #31]
20005f33:	5255      	strh	r5, [r2, r1]
20005f35:	2452      	movs	r4, #82	; 0x52
20005f37:	1022      	asrs	r2, r4, #32
20005f39:	4000      	ands	r0, r0
20005f3b:	0010      	movs	r0, r2
20005f3d:	8090      	strh	r0, [r2, #4]
20005f3f:	0040      	lsls	r0, r0, #1
20005f41:	7b07      	ldrb	r7, [r0, #12]
20005f43:	ff7b f7fe 	vaba.u<illegal width 64>	<illegal reg q15.5>, <illegal reg q13.5>, q15
20005f47:	efff ffff 			; <UNDEFINED> instruction: 0xefffffff
20005f4b:	ca54      	ldmia	r2, {r2, r4, r6}
20005f4d:	4854      	ldr	r0, [pc, #336]	; (200060a0 <screen+0x343f>)
20005f4f:	552a      	strb	r2, [r5, r4]
20005f51:	5414      	strb	r4, [r2, r0]
20005f53:	a98a      	add	r1, sp, #552	; 0x228
20005f55:	0004      	movs	r4, r0
20005f57:	0901      	lsrs	r1, r0, #4
20005f59:	0804      	lsrs	r4, r0, #32
20005f5b:	bf13      	iteet	ne
20005f5d:	fffe ffff 			; <UNDEFINED> instruction: 0xfffeffff
20005f61:	fffe e9ff 			; <UNDEFINED> instruction: 0xfffee9ff
20005f65:	aa52      	addeq	r2, sp, #328	; 0x148
20005f67:	a9aa      	addne	r1, sp, #680	; 0x2a8
20005f69:	8448      	strh	r0, [r1, #34]	; 0x22
20005f6b:	0049      	lsls	r1, r1, #1
20005f6d:	0200      	lsls	r0, r0, #8
20005f6f:	0200      	lsls	r0, r0, #8
20005f71:	0004      	movs	r4, r0
20005f73:	ff03 dddf 	vmul.f32	<illegal reg q6.5>, <illegal reg q9.5>, <illegal reg q7.5>
20005f77:	ffdb ffbf 			; <UNDEFINED> instruction: 0xffdbffbf
20005f7b:	efff 5142 	vext.8	<illegal reg q10.5>, <illegal reg q7.5>, q1, #1
20005f7f:	2549      	movs	r5, #73	; 0x49
20005f81:	0241      	lsls	r1, r0, #9
20005f83:	2149      	movs	r1, #73	; 0x49
20005f85:	0020      	movs	r0, r4
20005f87:	4a20      	ldr	r2, [pc, #128]	; (20006008 <screen+0x33a7>)
20005f89:	2010      	movs	r0, #16
20005f8b:	8020      	strh	r0, [r4, #0]
20005f8d:	fe07 feff 	mcr2	14, 0, pc, cr7, cr15, {7}	; <UNPREDICTABLE>
20005f91:	fded ffff 	stc2l	15, cr15, [sp, #1020]!	; 0x3fc
20005f95:	566f      	ldrsb	r7, [r5, r1]
20005f97:	aaaa      	add	r2, sp, #680	; 0x2a8
20005f99:	92a4      	str	r2, [sp, #656]	; 0x290
20005f9b:	1022      	asrs	r2, r4, #32
20005f9d:	0400      	lsls	r0, r0, #16
20005f9f:	0801      	lsrs	r1, r0, #32
20005fa1:	0002      	movs	r2, r0
20005fa3:	2000      	movs	r0, #0
20005fa5:	dd01      	ble.n	20005fab <screen+0x334a>
20005fa7:	fffb ffff 			; <UNDEFINED> instruction: 0xfffbffff
20005fab:	bfef      	iteee	al
20005fad:	7ff7      	ldrbal	r7, [r6, #31]
20005faf:	a4a8      	add<und>	r4, pc, #672	; (adr r4, 20006250 <screen+0x35ef>)
20005fb1:	52a5      	strh<und>	r5, [r4, r2]
20005fb3:	5414      	strb<und>	r4, [r2, r0]
20005fb5:	8a90      	ldrh	r0, [r2, #20]
20005fb7:	5215      	strh	r5, [r2, r0]
20005fb9:	0009      	movs	r1, r1
20005fbb:	0482      	lsls	r2, r0, #18
20005fbd:	0080      	lsls	r0, r0, #2
20005fbf:	ff0f ff6e 	vpmax.f32	<illegal reg q7.5>, <illegal reg q7.5>, q15
20005fc3:	7fff      	ldrb	r7, [r7, #31]
20005fc5:	57fb      	ldrsb	r3, [r7, r7]
20005fc7:	aafa      	add	r2, sp, #1000	; 0x3e8
20005fc9:	1095      	asrs	r5, r2, #2
20005fcb:	0849      	lsrs	r1, r1, #1
20005fcd:	4080      	lsls	r0, r0
20005fcf:	0000      	movs	r0, r0
20005fd1:	0084      	lsls	r4, r0, #2
20005fd3:	1000      	asrs	r0, r0, #32
20005fd5:	0210      	lsls	r0, r2, #8
20005fd7:	ff12 b75e 	vaba.u16	<illegal reg q5.5>, q1, q7
20005fdb:	dd76      	ble.n	200060cb <screen+0x346a>
20005fdd:	ffff fbff 			; <UNDEFINED> instruction: 0xfffffbff
20005fe1:	5292      	strh	r2, [r2, r2]
20005fe3:	0992      	lsrs	r2, r2, #6
20005fe5:	0841      	lsrs	r1, r0, #1
20005fe7:	2445      	movs	r4, #69	; 0x45
20005fe9:	00a0      	lsls	r0, r4, #2
20005feb:	2080      	movs	r0, #128	; 0x80
20005fed:	2000      	movs	r0, #0
20005fef:	2012      	movs	r0, #18
20005ff1:	ef1f dfff 	vrecps.f<illegal width 64>	<illegal reg q6.5>, <illegal reg q15.5>, <illegal reg q15.5>
20005ff5:	bfdf      	itttt	le
20005ff7:	fbff a9ea 			; <UNDEFINED> instruction: 0xfbffa9ea
20005ffb:	a548      	addle	r5, pc, #288	; (adr r5, 2000611c <screen+0x34bb>)
20005ffd:	4010      	andle	r0, r2
20005fff:	0112      	lslle	r2, r2, #4
20006001:	9010      	str	r0, [sp, #64]	; 0x40
20006003:	2010      	movs	r0, #16
20006005:	0020      	movs	r0, r4
20006007:	0080      	lsls	r0, r0, #2
20006009:	ef00 fff7 	vrecps.f32	<illegal reg q7.5>, q8, <illegal reg q11.5>
2000600d:	ffff ffbf 			; <UNDEFINED> instruction: 0xffffffbf
20006011:	f5ff 49c0 			; <UNDEFINED> instruction: 0xf5ff49c0
20006015:	5255      	strh	r5, [r2, r1]
20006017:	a228      	add	r2, pc, #160	; (adr r2, 200060b8 <screen+0x3457>)
20006019:	5192      	str	r2, [r2, r6]
2000601b:	880a      	ldrh	r2, [r1, #0]
2000601d:	0922      	lsrs	r2, r4, #4
2000601f:	8924      	ldrh	r4, [r4, #8]
20006021:	0400      	lsls	r0, r0, #16
20006023:	fb0f ffbd 			; <UNDEFINED> instruction: 0xfb0fffbd
20006027:	efff fdff 			; <UNDEFINED> instruction: 0xeffffdff
2000602b:	442a      	add	r2, r5
2000602d:	0022      	movs	r2, r4
2000602f:	1244      	asrs	r4, r0, #9
20006031:	0440      	lsls	r0, r0, #17
20006033:	0002      	movs	r2, r0
20006035:	0000      	movs	r0, r0
20006037:	8280      	strh	r0, [r0, #20]
20006039:	1001      	asrs	r1, r0, #32
2000603b:	fd00 fddb 	stc2	13, cr15, [r0, #-876]	; 0xfffffc94
2000603f:	dbed      	blt.n	2000601d <screen+0x33bc>
20006041:	bffd      	ittte	<und>
20006043:	e2df      	b<und>.n	20006605 <screen+0x39a4>	; unpredictable branch in IT block

20006045:	24a9      	mov<und>	r4, #169	; 0xa9
20006047:	2991      	cmp<und>	r1, #145	; 0x91
20006049:	1104      	asral	r4, r0, #4
2000604b:	8424      	strh	r4, [r4, #32]
2000604d:	2240      	movs	r2, #64	; 0x40
2000604f:	4008      	ands	r0, r1
20006051:	2000      	movs	r0, #0
20006053:	8048      	strh	r0, [r1, #2]
20006055:	ff1b bfff 	vmaxnm.f<illegal width 64>	<illegal reg q5.5>, <illegal reg q13.5>, <illegal reg q15.5>
20006059:	f57d eaef 			; <UNDEFINED> instruction: 0xf57deaef
2000605d:	92a4      	str	r2, [sp, #656]	; 0x290
2000605f:	9488      	str	r4, [sp, #544]	; 0x220
20006061:	0001      	movs	r1, r0
20006063:	2001      	movs	r0, #1
20006065:	0100      	lsls	r0, r0, #4
20006067:	0200      	lsls	r0, r0, #8
20006069:	0802      	lsrs	r2, r0, #32
2000606b:	0000      	movs	r0, r0
2000606d:	7780      	strb	r0, [r0, #30]
2000606f:	b7fd      			; <UNDEFINED> instruction: 0xb7fd
20006071:	7fbf      	ldrb	r7, [r7, #30]
20006073:	fdff eaff 	ldc2l	10, cr14, [pc, #1020]!	; 20006470 <screen+0x380f>
20006077:	22d0      	movs	r2, #208	; 0xd0
20006079:	844a      	strh	r2, [r1, #34]	; 0x22
2000607b:	4aa9      	ldr	r2, [pc, #676]	; (20006320 <screen+0x36bf>)
2000607d:	2912      	cmp	r1, #18
2000607f:	0012      	movs	r2, r2
20006081:	0480      	lsls	r0, r0, #18
20006083:	8422      	strh	r2, [r4, #32]
20006085:	1000      	asrs	r0, r0, #32
20006087:	df3e      	svc	62	; 0x3e
20006089:	ffef ffff 			; <UNDEFINED> instruction: 0xffefffff
2000608d:	94fe      	str	r4, [sp, #1016]	; 0x3f8
2000608f:	2491      	movs	r4, #145	; 0x91
20006091:	0122      	lsls	r2, r4, #4
20006093:	4420      	add	r0, r4
20006095:	0010      	movs	r0, r2
20006097:	0440      	lsls	r0, r0, #17
20006099:	4002      	ands	r2, r0
2000609b:	0008      	movs	r0, r1
2000609d:	0004      	movs	r4, r0
2000609f:	5f08      	ldrsh	r0, [r1, r4]
200060a1:	ffb7 eff7 			; <UNDEFINED> instruction: 0xffb7eff7
200060a5:	ffef ceff 			; <UNDEFINED> instruction: 0xffefceff
200060a9:	12e2      	asrs	r2, r4, #11
200060ab:	52a9      	strh	r1, [r5, r2]
200060ad:	2122      	movs	r1, #34	; 0x22
200060af:	0249      	lsls	r1, r1, #9
200060b1:	4440      	add	r0, r8
200060b3:	4002      	ands	r2, r0
200060b5:	2188      	movs	r1, #136	; 0x88
200060b7:	0222      	lsls	r2, r4, #8
200060b9:	fb1f ffbe 			; <UNDEFINED> instruction: 0xfb1fffbe
200060bd:	bff7      	itett	<und>
200060bf:	527a      	strh<und>	r2, [r7, r1]
200060c1:	4104      	asral	r4, r0
200060c3:	4008      	and<und>	r0, r1
200060c5:	0004      	mov<und>	r4, r0
200060c7:	0480      	lsls	r0, r0, #18
200060c9:	4008      	ands	r0, r1
200060cb:	0020      	movs	r0, r4
200060cd:	0000      	movs	r0, r0
200060cf:	2210      	movs	r2, #16
200060d1:	3b01      	subs	r3, #1
200060d3:	ddff      	ble.n	200060d5 <screen+0x3474>
200060d5:	7d6d      	ldrb	r5, [r5, #21]
200060d7:	ff7f deff 	vacgt.f<illegal width 64>	<illegal reg q14.5>, <illegal reg q15.5>, <illegal reg q15.5>
200060db:	a550      	add	r5, pc, #320	; (adr r5, 2000621c <screen+0x35bb>)
200060dd:	4924      	ldr	r1, [pc, #144]	; (20006170 <screen+0x350f>)
200060df:	9448      	str	r4, [sp, #288]	; 0x120
200060e1:	a844      	add	r0, sp, #272	; 0x110
200060e3:	1009      	asrs	r1, r1, #32
200060e5:	1220      	asrs	r0, r4, #8
200060e7:	8802      	ldrh	r2, [r0, #0]
200060e9:	4000      	ands	r0, r0
200060eb:	ff3f ffff 	vminnm.f<illegal width 64>	<illegal reg q7.5>, <illegal reg q15.5>, <illegal reg q15.5>
200060ef:	ffff 21a5 	vaddw.u<illegal width 64>	q9, <illegal reg q15.5>, d21
200060f3:	1051      	asrs	r1, r2, #1
200060f5:	0840      	lsrs	r0, r0, #1
200060f7:	1000      	asrs	r0, r0, #32
200060f9:	9004      	str	r0, [sp, #16]
200060fb:	0001      	movs	r1, r0
200060fd:	1200      	asrs	r0, r0, #8
200060ff:	2020      	movs	r0, #32
20006101:	0040      	lsls	r0, r0, #1
20006103:	2f00      	cmp	r7, #0
20006105:	ef76 dfff 	vrsqrts.f<illegal width 64>	<illegal reg q14.5>, q11, <illegal reg q15.5>
20006109:	fffe c6ff 	vqshlu.s64	q14, <illegal reg q15.5>, #62	; 0x3e
2000610d:	086a      	lsrs	r2, r5, #1
2000610f:	a4aa      	add	r4, pc, #680	; (adr r4, 200063b8 <screen+0x3757>)
20006111:	4212      	tst	r2, r2
20006113:	0592      	lsls	r2, r2, #22
20006115:	0020      	movs	r0, r4
20006117:	8084      	strh	r4, [r0, #4]
20006119:	0029      	movs	r1, r5
2000611b:	0008      	movs	r0, r1
2000611d:	f737 77df 			; <UNDEFINED> instruction: 0xf73777df
20006121:	fdfb 8850 	ldc2l	8, cr8, [fp, #320]!	; 0x140
20006125:	0404      	lsls	r4, r0, #16
20006127:	0101      	lsls	r1, r0, #4
20006129:	0021      	movs	r1, r4
2000612b:	0000      	movs	r0, r0
2000612d:	0990      	lsrs	r0, r2, #6
2000612f:	0009      	movs	r1, r1
20006131:	8200      	strh	r0, [r0, #16]
20006133:	8000      	strh	r0, [r0, #0]
20006135:	1f20      	subs	r0, r4, #4
20006137:	bbdf      	cbnz	r7, 200061b1 <screen+0x3550>
20006139:	ff57 fffb 	vmaxnm.f<illegal width 64>	<illegal reg q15.5>, <illegal reg q11.5>, <illegal reg q13.5>
2000613d:	e9ff 4230 	ldrd	r4, r2, [pc, #192]!	; 20006200 <screen+0x359f>	; 0xc0
20006141:	5292      	strh	r2, [r2, r2]
20006143:	14a1      	asrs	r1, r4, #18
20006145:	5049      	str	r1, [r1, r1]
20006147:	4204      	tst	r4, r0
20006149:	0800      	lsrs	r0, r0, #32
2000614b:	2284      	movs	r2, #132	; 0x84
2000614d:	0841      	lsrs	r1, r0, #1
2000614f:	ff1d dfff 	vmaxnm.f<illegal width 64>	<illegal reg q6.5>, <illegal reg q14.5>, <illegal reg q15.5>
20006153:	a4ff      	add	r4, pc, #1020	; (adr r4, 20006550 <screen+0x38ef>)
20006155:	228a      	movs	r2, #138	; 0x8a
20006157:	91a0      	str	r1, [sp, #640]	; 0x280
20006159:	2010      	movs	r0, #16
2000615b:	0204      	lsls	r4, r0, #8
2000615d:	0040      	lsls	r0, r0, #1
2000615f:	2000      	movs	r0, #0
20006161:	2020      	movs	r0, #32
20006163:	0082      	lsls	r2, r0, #2
20006165:	0400      	lsls	r0, r0, #16
20006167:	4d04      	ldr	r5, [pc, #16]	; (20006178 <screen+0x3517>)
20006169:	ef7a dbfd 	vpadd.i<illegal width 64>	<illegal reg q14.5>, q13, <illegal reg q14.5>
2000616d:	ffff d2ff 	vrshr.u64	<illegal reg q14.5>, <illegal reg q15.5>, #1
20006171:	2a52      	cmp	r2, #82	; 0x52
20006173:	24a9      	movs	r4, #169	; 0xa9
20006175:	494a      	ldr	r1, [pc, #296]	; (200062a0 <screen+0x363f>)
20006177:	0424      	lsls	r4, r4, #16
20006179:	0891      	lsrs	r1, r2, #2
2000617b:	4012      	ands	r2, r2
2000617d:	8812      	ldrh	r2, [r2, #0]
2000617f:	0000      	movs	r0, r0
20006181:	ff4f ffbf 	vmaxnm.f32	d31, d31, d31
20006185:	aafe      	add	r2, sp, #1016	; 0x3f8
20006187:	8820      	ldrh	r0, [r4, #0]
20006189:	0008      	movs	r0, r1
2000618b:	0000      	movs	r0, r0
2000618d:	1000      	asrs	r0, r0, #32
2000618f:	2209      	movs	r2, #9
20006191:	0022      	movs	r2, r4
20006193:	8280      	strh	r0, [r0, #20]
20006195:	0808      	lsrs	r0, r1, #32
20006197:	1004      	asrs	r4, r0, #32
20006199:	0f00      	lsrs	r0, r0, #28
2000619b:	daef      	bge.n	2000617d <screen+0x351c>
2000619d:	ffdf ffbf 			; <UNDEFINED> instruction: 0xffdfffbf
200061a1:	e8ff 8298 	ldrd	r8, r2, [pc], #608	; 20006404 <screen+0x37a3>	; 0x260
200061a5:	49a5      	ldr	r1, [pc, #660]	; (2000643c <screen+0x37db>)
200061a7:	9210      	str	r2, [sp, #64]	; 0x40
200061a9:	5051      	str	r1, [r2, r1]
200061ab:	0000      	movs	r0, r0
200061ad:	0980      	lsrs	r0, r0, #6
200061af:	002a      	movs	r2, r5
200061b1:	2010      	movs	r0, #16
200061b3:	ef27 7cfe 	vfms.f32	<illegal reg q3.5>, <illegal reg q11.5>, q15
200061b7:	91ea      	str	r1, [sp, #936]	; 0x3a8
200061b9:	210a      	movs	r1, #10
200061bb:	2002      	movs	r0, #2
200061bd:	0404      	lsls	r4, r0, #16
200061bf:	4080      	lsls	r0, r0
200061c1:	0000      	movs	r0, r0
200061c3:	8a00      	ldrh	r0, [r0, #16]
200061c5:	0808      	lsrs	r0, r1, #32
200061c7:	0100      	lsls	r0, r0, #4
200061c9:	4020      	ands	r0, r4
200061cb:	0691      	lsls	r1, r2, #26
200061cd:	7ffd      	ldrb	r5, [r7, #31]
200061cf:	fefe ffff 	mrc2	15, 7, pc, cr14, cr15, {7}
200061d3:	f2ff 551a 			; <UNDEFINED> instruction: 0xf2ff551a
200061d7:	a454      	add	r4, pc, #336	; (adr r4, 20006328 <screen+0x36c7>)
200061d9:	24a5      	movs	r4, #165	; 0xa5
200061db:	0588      	lsls	r0, r1, #22
200061dd:	9248      	str	r2, [sp, #288]	; 0x120
200061df:	4012      	ands	r2, r2
200061e1:	0109      	lsls	r1, r1, #4
200061e3:	0202      	lsls	r2, r0, #8
200061e5:	ff9f 187e 	vqrshrun.s32	d1, q15, #1
200061e9:	2429      	movs	r4, #41	; 0x29
200061eb:	8440      	strh	r0, [r0, #34]	; 0x22
200061ed:	0420      	lsls	r0, r4, #16
200061ef:	8090      	strh	r0, [r2, #4]
200061f1:	0010      	movs	r0, r2
200061f3:	0980      	lsrs	r0, r0, #6
200061f5:	2024      	movs	r0, #36	; 0x24
200061f7:	2022      	movs	r0, #34	; 0x22
200061f9:	2041      	movs	r0, #65	; 0x41
200061fb:	0001      	movs	r1, r0
200061fd:	2700      	movs	r7, #0
200061ff:	d6af      	bvs.n	20006161 <screen+0x3500>
20006201:	ffff ffff 			; <UNDEFINED> instruction: 0xffffffff
20006205:	e9ff 8a2a 	ldrd	r8, sl, [pc, #168]!	; 200062b0 <screen+0x364f>	; 0xa8
20006209:	52aa      	strh	r2, [r5, r2]
2000620b:	4948      	ldr	r1, [pc, #288]	; (2000632c <screen+0x36cb>)
2000620d:	5025      	str	r5, [r4, r0]
2000620f:	0002      	movs	r2, r0
20006211:	0240      	lsls	r0, r0, #9
20006213:	a454      	add	r4, pc, #336	; (adr r4, 20006364 <screen+0x3703>)
20006215:	4020      	ands	r0, r4
20006217:	ff56 5a9c 	vpmin.u16	d21, d22, d12
2000621b:	8154      	strh	r4, [r2, #10]
2000621d:	0012      	movs	r2, r2
2000621f:	8000      	strh	r0, [r0, #0]
20006221:	0000      	movs	r0, r0
20006223:	0201      	lsls	r1, r0, #8
20006225:	4012      	ands	r2, r2
20006227:	0401      	lsls	r1, r0, #16
20006229:	8280      	strh	r0, [r0, #20]
2000622b:	0414      	lsls	r4, r2, #16
2000622d:	0408      	lsls	r0, r1, #16
2000622f:	0b04      	lsrs	r4, r0, #12
20006231:	bffd      	ittte	<und>
20006233:	f7ef ffff 	bl<und>	1fff6235 <__etext+0x1ffd55d5>	; unpredictable branch in IT block

20006237:	f4ff 4a04 			; <UNDEFINED> instruction: 0xf4ff4a04
2000623b:	8992      	ldrh<und>	r2, [r2, #12]
2000623d:	9222      	stral	r2, [sp, #136]	; 0x88
2000623f:	0010      	movs	r0, r2
20006241:	4920      	ldr	r1, [pc, #128]	; (200062c4 <screen+0x3663>)
20006243:	9004      	str	r0, [sp, #16]
20006245:	002a      	movs	r2, r5
20006247:	0001      	movs	r1, r0
20006249:	ffff 080c 	vtbl.8	d16, {d15}, d12
2000624d:	2822      	cmp	r0, #34	; 0x22
2000624f:	2240      	movs	r2, #64	; 0x40
20006251:	1048      	asrs	r0, r1, #1
20006253:	1000      	asrs	r0, r0, #32
20006255:	0840      	lsrs	r0, r0, #1
20006257:	0900      	lsrs	r0, r0, #4
20006259:	5028      	str	r0, [r5, r0]
2000625b:	1028      	asrs	r0, r5, #32
2000625d:	1080      	asrs	r0, r0, #2
2000625f:	1080      	asrs	r0, r0, #2
20006261:	8290      	strh	r0, [r2, #20]
20006263:	fbdf bfbd 			; <UNDEFINED> instruction: 0xfbdfbfbd
20006267:	ffff fa7e 			; <UNDEFINED> instruction: 0xfffffa7e
2000626b:	2595      	movs	r5, #149	; 0x95
2000626d:	5255      	strh	r5, [r2, r1]
2000626f:	2489      	movs	r4, #137	; 0x89
20006271:	4aa5      	ldr	r2, [pc, #660]	; (20006508 <screen+0x38a7>)
20006273:	0404      	lsls	r4, r0, #16
20006275:	0110      	lsls	r0, r2, #4
20006277:	0015      	movs	r5, r2
20006279:	0888      	lsrs	r0, r1, #2
2000627b:	ffef 2805 	vmlal.u32	q9, d15, d5
2000627f:	8288      	strh	r0, [r1, #20]
20006281:	8808      	ldrh	r0, [r1, #0]
20006283:	0100      	lsls	r0, r0, #4
20006285:	0221      	lsls	r1, r4, #8
20006287:	2008      	movs	r0, #8
20006289:	2021      	movs	r0, #33	; 0x21
2000628b:	0545      	lsls	r5, r0, #21
2000628d:	8a42      	ldrh	r2, [r0, #18]
2000628f:	4022      	ands	r2, r4
20006291:	8024      	strh	r4, [r4, #0]
20006293:	2500      	movs	r5, #0
20006295:	7eff      	ldrb	r7, [r7, #27]
20006297:	fff7 fdff 			; <UNDEFINED> instruction: 0xfff7fdff
2000629b:	f8ff 9202 	ldr??.w	r9, [pc, #514]	; 2000649e <screen+0x383d>
2000629f:	48aa      	ldr	r0, [pc, #680]	; (20006548 <screen+0x38e7>)
200062a1:	1152      	asrs	r2, r2, #5
200062a3:	2000      	movs	r0, #0
200062a5:	9080      	str	r0, [sp, #512]	; 0x200
200062a7:	4882      	ldr	r0, [pc, #520]	; (200064b0 <screen+0x384f>)
200062a9:	9254      	str	r2, [sp, #336]	; 0x150
200062ab:	2000      	movs	r0, #0
200062ad:	fefd 8a48 	vcvtn.u32.f32	s17, s16
200062b1:	1022      	asrs	r2, r4, #32
200062b3:	0022      	movs	r2, r4
200062b5:	4002      	ands	r2, r0
200062b7:	2004      	movs	r0, #4
200062b9:	0102      	lsls	r2, r0, #4
200062bb:	0a04      	lsrs	r4, r0, #8
200062bd:	a890      	add	r0, sp, #576	; 0x240
200062bf:	4094      	lsls	r4, r2
200062c1:	0488      	lsls	r0, r1, #18
200062c3:	2480      	movs	r4, #128	; 0x80
200062c5:	028a      	lsls	r2, r1, #10
200062c7:	efed ffff 			; <UNDEFINED> instruction: 0xefedffff
200062cb:	f7ff fde7 	bl	20005e9d <screen+0x323c>
200062cf:	4b52      	ldr	r3, [pc, #328]	; (20006418 <screen+0x37b7>)
200062d1:	2555      	movs	r5, #85	; 0x55
200062d3:	a448      	add	r4, pc, #288	; (adr r4, 200063f4 <screen+0x3793>)
200062d5:	0055      	lsls	r5, r2, #1
200062d7:	0212      	lsls	r2, r2, #8
200062d9:	0128      	lsls	r0, r5, #4
200062db:	0052      	lsls	r2, r2, #1
200062dd:	0201      	lsls	r1, r0, #8
200062df:	feff 2405 	cdp2	4, 15, cr2, cr15, cr5, {0}
200062e3:	4190      	sbcs	r0, r2
200062e5:	0100      	lsls	r0, r0, #4
200062e7:	0820      	lsrs	r0, r4, #32
200062e9:	0400      	lsls	r0, r0, #16
200062eb:	94a0      	str	r4, [sp, #640]	; 0x280
200062ed:	a048      	add	r0, pc, #288	; (adr r0, 20006410 <screen+0x37af>)
200062ef:	924a      	str	r2, [sp, #296]	; 0x128
200062f1:	2a21      	cmp	r2, #33	; 0x21
200062f3:	5045      	str	r5, [r0, r1]
200062f5:	0012      	movs	r2, r2
200062f7:	9220      	str	r2, [sp, #128]	; 0x80
200062f9:	ffff 77bb 	vqshl.u64	d23, d27, #63	; 0x3f
200062fd:	bf6f      	iteee	vs
200062ff:	fc83 0409 	stc2vs	4, cr0, [r3], {9}
20006303:	55a9      	strbvc	r1, [r5, r6]
20006305:	1225      	asrvc	r5, r4, #8
20006307:	4a00      	ldrvc	r2, [pc, #0]	; (20006308 <screen+0x36a7>)
20006309:	2000      	movs	r0, #0
2000630b:	0401      	lsls	r1, r0, #16
2000630d:	8850      	ldrh	r0, [r2, #2]
2000630f:	0044      	lsls	r4, r0, #1
20006311:	dddf      	ble.n	200062d3 <screen+0x3672>
20006313:	0810      	lsrs	r0, r2, #32
20006315:	0804      	lsrs	r4, r0, #32
20006317:	4810      	ldr	r0, [pc, #64]	; (20006358 <screen+0x36f7>)
20006319:	0204      	lsls	r4, r0, #8
2000631b:	2051      	movs	r0, #81	; 0x51
2000631d:	210a      	movs	r1, #10
2000631f:	4d12      	ldr	r5, [pc, #72]	; (20006368 <screen+0x3707>)
20006321:	49aa      	ldr	r1, [pc, #680]	; (200065cc <screen+0x396b>)
20006323:	924a      	str	r2, [sp, #296]	; 0x128
20006325:	0528      	lsls	r0, r5, #20
20006327:	a500      	add	r5, pc, #0	; (adr r5, 20006328 <screen+0x36c7>)
20006329:	0902      	lsrs	r2, r0, #4
2000632b:	ffbf ffff 			; <UNDEFINED> instruction: 0xffbfffff
2000632f:	fffd fab9 			; <UNDEFINED> instruction: 0xfffdfab9
20006333:	42a4      	cmp	r4, r4
20006335:	a2aa      	add	r2, pc, #680	; (adr r2, 200065e0 <screen+0x397f>)
20006337:	a440      	add	r4, pc, #256	; (adr r4, 20006438 <screen+0x37d7>)
20006339:	00aa      	lsls	r2, r5, #2
2000633b:	8a40      	ldrh	r0, [r0, #18]
2000633d:	20a4      	movs	r0, #164	; 0xa4
2000633f:	218a      	movs	r1, #138	; 0x8a
20006341:	1000      	asrs	r0, r0, #32
20006343:	7afb      	ldrb	r3, [r7, #11]
20006345:	a50a      	add	r5, pc, #40	; (adr r5, 20006370 <screen+0x370f>)
20006347:	2149      	movs	r1, #73	; 0x49
20006349:	0002      	movs	r2, r0
2000634b:	8000      	strh	r0, [r0, #0]
2000634d:	0a04      	lsrs	r4, r0, #8
2000634f:	4aa1      	ldr	r2, [pc, #644]	; (200065d4 <screen+0x3973>)
20006351:	2a49      	cmp	r2, #73	; 0x49
20006353:	24a9      	movs	r4, #169	; 0xa9
20006355:	4920      	ldr	r1, [pc, #128]	; (200063d8 <screen+0x3777>)
20006357:	5045      	str	r5, [r0, r1]
20006359:	08aa      	lsrs	r2, r5, #2
2000635b:	4450      	add	r0, sl
2000635d:	bbf7      	cbnz	r7, 200063dd <screen+0x377c>
2000635f:	edfe ffdf 	ldcl	15, cr15, [lr, #892]!	; 0x37c
20006363:	fd6b 9010 	stc2l	0, cr9, [fp, #-64]!	; 0xffffffc0
20006367:	95aa      	str	r5, [sp, #680]	; 0x2a8
20006369:	122a      	asrs	r2, r5, #8
2000636b:	2401      	movs	r4, #1
2000636d:	0008      	movs	r0, r1
2000636f:	8000      	strh	r0, [r0, #0]
20006371:	00a0      	lsls	r0, r4, #2
20006373:	4210      	tst	r0, r2
20006375:	aaff      	add	r2, sp, #1020	; 0x3fc
20006377:	5044      	str	r4, [r0, r1]
20006379:	0000      	movs	r0, r0
2000637b:	1140      	asrs	r0, r0, #5
2000637d:	2920      	cmp	r1, #32
2000637f:	a110      	add	r1, pc, #64	; (adr r1, 200063c0 <screen+0x375f>)
20006381:	a914      	add	r1, sp, #80	; 0x50
20006383:	b56d      	push	{r0, r2, r3, r5, r6, lr}
20006385:	9224      	str	r2, [sp, #144]	; 0x90
20006387:	a496      	add	r4, pc, #600	; (adr r4, 200065e0 <screen+0x397f>)
20006389:	25a9      	movs	r5, #169	; 0xa9
2000638b:	a210      	add	r2, pc, #64	; (adr r2, 200063cc <screen+0x376b>)
2000638d:	2a0a      	cmp	r2, #10
2000638f:	ffbf bfff 			; <UNDEFINED> instruction: 0xffbfbfff
20006393:	ff7b e6b8 	vmin.u<illegal width 64>	d30, d27, d24
20006397:	44a4      	add	ip, r4
20006399:	5055      	str	r5, [r2, r1]
2000639b:	a892      	add	r0, sp, #584	; 0x248
2000639d:	00a8      	lsls	r0, r5, #2
2000639f:	1000      	asrs	r0, r0, #32
200063a1:	0a92      	lsrs	r2, r2, #10
200063a3:	944a      	str	r4, [sp, #296]	; 0x128
200063a5:	0001      	movs	r1, r0
200063a7:	54ea      	strb	r2, [r5, r3]
200063a9:	1513      	asrs	r3, r2, #20
200063ab:	4454      	add	r4, sl
200063ad:	8008      	strh	r0, [r1, #0]
200063af:	0004      	movs	r4, r0
200063b1:	1442      	asrs	r2, r0, #17
200063b3:	aaaa      	add	r2, sp, #680	; 0x2a8
200063b5:	a4a4      	add	r4, pc, #656	; (adr r4, 20006648 <screen+0x39e7>)
200063b7:	5595      	strb	r5, [r2, r6]
200063b9:	1249      	asrs	r1, r1, #9
200063bb:	9454      	str	r4, [sp, #336]	; 0x150
200063bd:	11a5      	asrs	r5, r4, #6
200063bf:	4141      	adcs	r1, r0
200063c1:	df6f      	svc	111	; 0x6f
200063c3:	fbed ffff 			; <UNDEFINED> instruction: 0xfbedffff
200063c7:	f252 8192 	bls.w	200186ef <__stack+0x106ef>
200063cb:	aa2a      	add	r2, sp, #168	; 0xa8
200063cd:	42a8      	cmp	r0, r5
200063cf:	9204      	str	r2, [sp, #16]
200063d1:	4242      	negs	r2, r0
200063d3:	2108      	movs	r1, #8
200063d5:	0120      	lsls	r0, r4, #4
200063d7:	0020      	movs	r0, r4
200063d9:	10a9      	asrs	r1, r5, #2
200063db:	5414      	strb	r4, [r2, r0]
200063dd:	0000      	movs	r0, r0
200063df:	0420      	lsls	r0, r4, #16
200063e1:	1211      	asrs	r1, r2, #8
200063e3:	4511      	cmp	r1, r2
200063e5:	4a25      	ldr	r2, [pc, #148]	; (2000647c <screen+0x381b>)
200063e7:	5bab      	ldrh	r3, [r5, r6]
200063e9:	aa6a      	add	r2, sp, #424	; 0x1a8
200063eb:	aaaa      	add	r2, sp, #680	; 0x2a8
200063ed:	aa8a      	add	r2, sp, #552	; 0x228
200063ef:	a448      	add	r4, pc, #288	; (adr r4, 20006510 <screen+0x38af>)
200063f1:	9554      	str	r5, [sp, #336]	; 0x150
200063f3:	7eff      	ldrb	r7, [r7, #27]
200063f5:	b7ff      			; <UNDEFINED> instruction: 0xb7ff
200063f7:	ffff a580 	vabal.u<illegal width 64>	q13, d31, d0
200063fb:	1048      	asrs	r0, r1, #1
200063fd:	5555      	strb	r5, [r2, r5]
200063ff:	2905      	cmp	r1, #5
20006401:	0050      	lsls	r0, r2, #1
20006403:	0008      	movs	r0, r1
20006405:	0041      	lsls	r1, r0, #1
20006407:	4080      	lsls	r0, r0
20006409:	0804      	lsrs	r4, r0, #32
2000640b:	5a12      	ldrh	r2, [r2, r0]
2000640d:	1192      	asrs	r2, r2, #6
2000640f:	2212      	movs	r2, #18
20006411:	2002      	movs	r0, #2
20006413:	4080      	lsls	r0, r0
20006415:	2888      	cmp	r0, #136	; 0x88
20006417:	aaaa      	add	r2, sp, #680	; 0x2a8
20006419:	ffff ffff 			; <UNDEFINED> instruction: 0xffffffff
2000641d:	ffff 5275 	vrshr.u32	<illegal reg q10.5>, <illegal reg q10.5>, #1
20006421:	12a5      	asrs	r5, r4, #10
20006423:	4a92      	ldr	r2, [pc, #584]	; (2000666c <screen+0x3a0b>)
20006425:	ffbf fffd 			; <UNDEFINED> instruction: 0xffbffffd
20006429:	ffff 52d4 	vrshr.u64	<illegal reg q10.5>, q2, #1
2000642d:	8452      	strh	r2, [r2, #34]	; 0x22
2000642f:	5215      	strh	r5, [r2, r0]
20006431:	84a8      	strh	r0, [r5, #36]	; 0x24
20006433:	4805      	ldr	r0, [pc, #20]	; (20006448 <screen+0x37e7>)
20006435:	0100      	lsls	r0, r0, #4
20006437:	4a14      	ldr	r2, [pc, #80]	; (20006488 <screen+0x3827>)
20006439:	0955      	lsrs	r5, r2, #5
2000643b:	4010      	ands	r0, r2
2000643d:	2441      	movs	r4, #65	; 0x41
2000643f:	a82a      	add	r0, sp, #168	; 0xa8
20006441:	8140      	strh	r0, [r0, #10]
20006443:	0240      	lsls	r0, r0, #9
20006445:	0404      	lsls	r4, r0, #16
20006447:	4625      	mov	r5, r4
20006449:	55aa      	strb	r2, [r5, r6]
2000644b:	9dff      	ldr	r5, [sp, #1020]	; 0x3fc
2000644d:	7fff      	ldrb	r7, [r7, #31]
2000644f:	ffff fdff 			; <UNDEFINED> instruction: 0xfffffdff
20006453:	d55a      	bpl.n	2000650b <screen+0x38aa>
20006455:	ab4a      	add	r3, sp, #296	; 0x128
20006457:	effb ffaf 			; <UNDEFINED> instruction: 0xeffbffaf
2000645b:	ffbf 21d2 	vsra.u64	q1, q1, #1
2000645f:	1024      	asrs	r4, r4, #32
20006461:	5485      	strb	r5, [r0, r2]
20006463:	29a5      	cmp	r1, #165	; 0xa5
20006465:	0150      	lsls	r0, r2, #5
20006467:	1020      	asrs	r0, r4, #32
20006469:	0101      	lsls	r1, r0, #4
2000646b:	0000      	movs	r0, r0
2000646d:	0240      	lsls	r0, r0, #9
2000646f:	3014      	adds	r0, #20
20006471:	150a      	asrs	r2, r1, #20
20006473:	0808      	lsrs	r0, r1, #32
20006475:	1011      	asrs	r1, r2, #32
20006477:	2121      	movs	r1, #33	; 0x21
20006479:	2a11      	cmp	r2, #17
2000647b:	5ba5      	ldrh	r5, [r4, r6]
2000647d:	bbff      	cbnz	r7, 200064ff <screen+0x389e>
2000647f:	ffff ffff 			; <UNDEFINED> instruction: 0xffffffff
20006483:	ffff ffff 			; <UNDEFINED> instruction: 0xffffffff
20006487:	ffff bdef 	vqrdmulh.s<illegal width 64>	<illegal reg q13.5>, <illegal reg q15.5>, d31[0]
2000648b:	feff ffff 	mrc2	15, 7, pc, cr15, cr15, {7}
2000648f:	94e4      	str	r4, [sp, #912]	; 0x390
20006491:	4042      	eors	r2, r0
20006493:	aa12      	add	r2, sp, #72	; 0x48
20006495:	8492      	strh	r2, [r2, #36]	; 0x24
20006497:	4404      	add	r4, r0
20006499:	0201      	lsls	r1, r0, #8
2000649b:	5448      	strb	r0, [r1, r1]
2000649d:	1044      	asrs	r4, r0, #1
2000649f:	0801      	lsrs	r1, r0, #32
200064a1:	9202      	str	r2, [sp, #8]
200064a3:	9454      	str	r4, [sp, #336]	; 0x150
200064a5:	4524      	cmp	r4, r4
200064a7:	0044      	lsls	r4, r0, #1
200064a9:	0884      	lsrs	r4, r0, #2
200064ab:	aaa4      	add	r2, sp, #656	; 0x290
200064ad:	7f95      	ldrb	r5, [r2, #30]
200064af:	7fef      	ldrb	r7, [r5, #31]
200064b1:	ff6f ffff 	vminnm.f32	<illegal reg q15.5>, <illegal reg q15.5>, <illegal reg q15.5>
200064b5:	effd deff 			; <UNDEFINED> instruction: 0xeffddeff
200064b9:	ffff ff7f 	vcvt.u32.f32	<illegal reg q15.5>, <illegal reg q15.5>, #1
200064bd:	effe fff7 			; <UNDEFINED> instruction: 0xeffefff7
200064c1:	01f0      	lsls	r0, r6, #7
200064c3:	0414      	lsls	r4, r2, #16
200064c5:	5545      	strb	r5, [r0, r5]
200064c7:	2949      	cmp	r1, #73	; 0x49
200064c9:	0051      	lsls	r1, r2, #1
200064cb:	0008      	movs	r0, r1
200064cd:	5202      	strh	r2, [r0, r0]
200064cf:	4210      	tst	r0, r2
200064d1:	2004      	movs	r0, #4
200064d3:	0848      	lsrs	r0, r1, #1
200064d5:	5124      	str	r4, [r4, r4]
200064d7:	0202      	lsls	r2, r0, #8
200064d9:	4a00      	ldr	r2, [pc, #0]	; (200064dc <screen+0x387b>)
200064db:	a510      	add	r5, pc, #64	; (adr r5, 2000651c <screen+0x38bb>)
200064dd:	5415      	strb	r5, [r2, r0]
200064df:	ffaa fdff 			; <UNDEFINED> instruction: 0xffaafdff
200064e3:	ffff ffff 			; <UNDEFINED> instruction: 0xffffffff
200064e7:	ffef fbfe 			; <UNDEFINED> instruction: 0xffeffbfe
200064eb:	dff6      	svc	246	; 0xf6
200064ed:	fffe ffff 			; <UNDEFINED> instruction: 0xfffeffff
200064f1:	ffff a8fa 			; <UNDEFINED> instruction: 0xffffa8fa
200064f5:	1121      	asrs	r1, r4, #4
200064f7:	5401      	strb	r1, [r0, r0]
200064f9:	42aa      	cmp	r2, r5
200064fb:	1000      	asrs	r0, r0, #32
200064fd:	2080      	movs	r0, #128	; 0x80
200064ff:	9920      	ldr	r1, [sp, #128]	; 0x80
20006501:	0042      	lsls	r2, r0, #1
20006503:	0020      	movs	r0, r4
20006505:	200a      	movs	r0, #10
20006507:	9a4a      	ldr	r2, [sp, #296]	; 0x128
20006509:	2a48      	cmp	r2, #72	; 0x48
2000650b:	0012      	movs	r2, r2
2000650d:	1202      	asrs	r2, r0, #8
2000650f:	5555      	strb	r5, [r2, r5]
20006511:	d75d      	bvc.n	200065cf <screen+0x396e>
20006513:	fffe 7fdf 			; <UNDEFINED> instruction: 0xfffe7fdf
20006517:	f7ff dfbf 	bl	1f806499 <__etext+0x1f7e5839>
2000651b:	ffdb fdff 			; <UNDEFINED> instruction: 0xffdbfdff
2000651f:	fdff fbff 	ldc2l	11, cr15, [pc, #1020]!	; 2000691c <APP_TIMER_BUF.8659+0xb0>
20006523:	ef5d 04fa 	vqshl.s16	q8, q13, <illegal reg q14.5>
20006527:	0088      	lsls	r0, r1, #2
20006529:	b614      			; <UNDEFINED> instruction: 0xb614
2000652b:	94a4      	str	r4, [sp, #656]	; 0x290
2000652d:	8254      	strh	r4, [r2, #18]
2000652f:	0401      	lsls	r1, r0, #16
20006531:	4884      	ldr	r0, [pc, #528]	; (20006744 <impure_data+0x20>)
20006533:	0008      	movs	r0, r1
20006535:	0000      	movs	r0, r0
20006537:	1028      	asrs	r0, r5, #32
20006539:	1020      	asrs	r0, r4, #32
2000653b:	0502      	lsls	r2, r0, #20
2000653d:	8800      	ldrh	r0, [r0, #0]
2000653f:	49a9      	ldr	r1, [pc, #676]	; (200067e4 <mp_ble_evt_buffer>)
20006541:	5255      	strh	r5, [r2, r1]
20006543:	dffe      	svc	254	; 0xfe
20006545:	f67f ffff 	bl	1fe86547 <__etext+0x1fe658e7>
20006549:	ffff fdff 			; <UNDEFINED> instruction: 0xfffffdff
2000654d:	df7f      	svc	127	; 0x7f
2000654f:	ff7b eff7 	vminnm.f<illegal width 64>	q15, <illegal reg q13.5>, <illegal reg q11.5>
20006553:	dfef      	svc	239	; 0xef
20006555:	bfff      	itttt	<und>
20006557:	51fd      	str<und>	r5, [r7, r7]
20006559:	4822      	ldr<und>	r0, [pc, #136]	; (200065e4 <screen+0x3983>)
2000655b:	5501      	strb<und>	r1, [r0, r4]
2000655d:	4152      	adc<und>	r2, r2
2000655f:	0800      	lsrs	r0, r0, #32
20006561:	0024      	movs	r4, r4
20006563:	3501      	adds	r5, #1
20006565:	9220      	str	r2, [sp, #128]	; 0x80
20006567:	1201      	asrs	r1, r0, #8
20006569:	4410      	add	r0, r2
2000656b:	4b54      	ldr	r3, [pc, #336]	; (200066bc <screen+0x3a5b>)
2000656d:	9420      	str	r4, [sp, #128]	; 0x80
2000656f:	224a      	movs	r2, #74	; 0x4a
20006571:	aa04      	add	r2, sp, #16
20006573:	afaa      	add	r7, sp, #680	; 0x2a8
20006575:	7fbd      	ldrb	r5, [r7, #30]
20006577:	7b9d      	ldrb	r5, [r3, #14]
20006579:	ff7e ffff 	vminnm.f<illegal width 64>	<illegal reg q15.5>, q15, <illegal reg q15.5>
2000657d:	efff f7fe 	vqshl.s64	<illegal reg q15.5>, q15, #63	; 0x3f
20006581:	b7df      			; <UNDEFINED> instruction: 0xb7df
20006583:	7fbf      	ldrb	r7, [r7, #30]
20006585:	ff7e fff7 	vminnm.f<illegal width 64>	<illegal reg q15.5>, q15, <illegal reg q11.5>
20006589:	88f6      	ldrh	r6, [r6, #6]
2000658b:	0210      	lsls	r0, r2, #8
2000658d:	5540      	strb	r0, [r0, r5]
2000658f:	2a55      	cmp	r2, #85	; 0x55
20006591:	2049      	movs	r0, #73	; 0x49
20006593:	1000      	asrs	r0, r0, #32
20006595:	9000      	str	r0, [sp, #0]
20006597:	0000      	movs	r0, r0
20006599:	0048      	lsls	r0, r1, #1
2000659b:	2052      	movs	r0, #82	; 0x52
2000659d:	1441      	asrs	r1, r0, #17
2000659f:	260a      	movs	r6, #10
200065a1:	0801      	lsrs	r1, r0, #32
200065a3:	aaaa      	add	r2, sp, #680	; 0x2a8
200065a5:	5da5      	ldrb	r5, [r4, r6]
200065a7:	56ff      	ldrsb	r7, [r7, r3]
200065a9:	fdf7 ffab 	ldc2l	15, cr15, [r7, #684]!	; 0x2ac
200065ad:	eeff bdef 	cdp	13, 15, cr11, cr15, cr15, {7}
200065b1:	fdd7 fefd 	ldc2l	14, cr15, [r7, #1012]	; 0x3f4
200065b5:	fbfd ffff 			; <UNDEFINED> instruction: 0xfbfdffff
200065b9:	ffff a4fa 	vsri.64	q13, q13, #1
200065bd:	2080      	movs	r0, #128	; 0x80
200065bf:	ab14      	add	r3, sp, #80	; 0x50
200065c1:	4855      	ldr	r0, [pc, #340]	; (20006718 <LED2>)
200065c3:	0180      	lsls	r0, r0, #6
200065c5:	4000      	ands	r0, r0
200065c7:	5448      	strb	r0, [r1, r1]
200065c9:	4884      	ldr	r0, [pc, #528]	; (200067dc <text_value+0x1c>)
200065cb:	4000      	ands	r0, r0
200065cd:	5248      	strh	r0, [r1, r1]
200065cf:	0854      	lsrs	r4, r2, #1
200065d1:	8a80      	ldrh	r0, [r0, #20]
200065d3:	a500      	add	r5, pc, #0	; (adr r5, 200065d4 <screen+0x3973>)
200065d5:	5555      	strb	r5, [r2, r5]
200065d7:	fe56 ddf7 	mrc2	13, 2, sp, cr6, cr7, {7}
200065db:	fd6f ffff 	stc2l	15, cr15, [pc, #-1020]!	; 200061e0 <screen+0x357f>
200065df:	ffff f7ff 	vqshl.u64	<illegal reg q15.5>, <illegal reg q15.5>, #63	; 0x3f
200065e3:	dffe      	svc	254	; 0xfe
200065e5:	afb7      	add	r7, sp, #732	; 0x2dc
200065e7:	dfff      	svc	255	; 0xff
200065e9:	ffdf ef7e 			; <UNDEFINED> instruction: 0xffdfef7e
200065ed:	52d5      	strh	r5, [r2, r3]
200065ef:	084a      	lsrs	r2, r1, #1
200065f1:	1540      	asrs	r0, r0, #21
200065f3:	92aa      	str	r2, [sp, #680]	; 0x2a8
200065f5:	0829      	lsrs	r1, r5, #32
200065f7:	0211      	lsls	r1, r2, #8
200065f9:	a102      	add	r1, pc, #8	; (adr r1, 20006604 <screen+0x39a3>)
200065fb:	0120      	lsls	r0, r4, #4
200065fd:	0400      	lsls	r0, r0, #16
200065ff:	4850      	ldr	r0, [pc, #320]	; (20006740 <impure_data+0x1c>)
20006601:	2a40      	cmp	r2, #64	; 0x40
20006603:	1581      	asrs	r1, r0, #22
20006605:	1224      	asrs	r4, r4, #8
20006607:	4aaa      	ldr	r2, [pc, #680]	; (200068b0 <APP_TIMER_BUF.8659+0x44>)
20006609:	ffbf e6ff 	vqshlu.s64	q7, <illegal reg q15.5>, #63	; 0x3f
2000660d:	7bff      	ldrb	r7, [r7, #15]
2000660f:	ff7f ffff 	vminnm.f<illegal width 64>	<illegal reg q15.5>, <illegal reg q15.5>, <illegal reg q15.5>
20006613:	fede fbdb 	mrc2	11, 6, pc, cr14, cr11, {6}
20006617:	fbff feef 			; <UNDEFINED> instruction: 0xfbfffeef
2000661b:	b7fb      			; <UNDEFINED> instruction: 0xb7fb
2000661d:	ffdf 49ea 	vmul.f<illegal width 16>	q10, <illegal reg q15.5>, d2[3]
20006621:	4100      	asrs	r0, r0
20006623:	4e02      	ldr	r6, [pc, #8]	; (2000662c <screen+0x39cb>)
20006625:	48d5      	ldr	r0, [pc, #852]	; (2000697c <APP_TIMER_BUF.8659+0x110>)
20006627:	4080      	lsls	r0, r0
20006629:	0040      	lsls	r0, r0, #1
2000662b:	5401      	strb	r1, [r0, r0]
2000662d:	0001      	movs	r1, r0
2000662f:	0011      	movs	r1, r2
20006631:	40a0      	lsls	r0, r4
20006633:	0a52      	lsrs	r2, r2, #9
20006635:	4a48      	ldr	r2, [pc, #288]	; (20006758 <impure_data+0x34>)
20006637:	0a80      	lsrs	r0, r0, #10
20006639:	ab52      	add	r3, sp, #328	; 0x148
2000663b:	f7ff fbd7 	bl	20005ded <screen+0x318c>
2000663f:	fbbf ffaf 			; <UNDEFINED> instruction: 0xfbbfffaf
20006643:	fbff dbfb 			; <UNDEFINED> instruction: 0xfbffdbfb
20006647:	feff 6fdd 	mrc2	15, 7, r6, cr15, cr13, {6}
2000664b:	efbd ffff 			; <UNDEFINED> instruction: 0xefbdffff
2000664f:	dfff      	svc	255	; 0xff
20006651:	2455      	movs	r4, #85	; 0x55
20006653:	0020      	movs	r0, r4
20006655:	0208      	lsls	r0, r1, #8
20006657:	a4ba      	add	r4, pc, #744	; (adr r4, 20006940 <APP_TIMER_BUF.8659+0xd4>)
20006659:	0224      	lsls	r4, r4, #8
2000665b:	0800      	lsrs	r0, r0, #32
2000665d:	2024      	movs	r0, #36	; 0x24
2000665f:	1088      	asrs	r0, r1, #2
20006661:	1040      	asrs	r0, r0, #1
20006663:	a840      	add	r0, sp, #256	; 0x100
20006665:	0948      	lsrs	r0, r1, #5
20006667:	929a      	str	r2, [sp, #616]	; 0x268
20006669:	9500      	str	r5, [sp, #0]
2000666b:	bf4a      	itet	mi
2000666d:	fbfb fcbe 			; <UNDEFINED> instruction: 0xfbfbfcbe
20006671:	f6bd ffff 	blpl	1fec4673 <__etext+0x1fea3a13>	; unpredictable branch in IT block

20006675:	ffff ff7f 	vcvtmi.u32.f32	<illegal reg q15.5>, <illegal reg q15.5>, #1
20006679:	b7db      			; <UNDEFINED> instruction: 0xb7db
2000667b:	fff7 7dff 			; <UNDEFINED> instruction: 0xfff77dff
2000667f:	feb6 fffd 	mrc2	15, 5, pc, cr6, cr13, {7}
20006683:	91b4      	str	r1, [sp, #720]	; 0x2d0
20006685:	4402      	add	r2, r0
20006687:	2a00      	cmp	r2, #0
20006689:	52d5      	strh	r5, [r2, r3]
2000668b:	1089      	asrs	r1, r1, #2
2000668d:	2004      	movs	r0, #4
2000668f:	8882      	ldrh	r2, [r0, #4]
20006691:	0200      	lsls	r0, r0, #8
20006693:	4000      	ands	r0, r0
20006695:	a1a0      	add	r1, pc, #640	; (adr r1, 20006918 <APP_TIMER_BUF.8659+0xac>)
20006697:	8c20      	ldrh	r0, [r4, #32]
20006699:	95c0      	str	r5, [sp, #768]	; 0x300
2000669b:	0590      	lsls	r0, r2, #22
2000669d:	ef5b fdf7 	vmla.f<illegal width 64>	<illegal reg q15.5>, <illegal reg q13.5>, <illegal reg q11.5>
200066a1:	bddf      	pop	{r0, r1, r2, r3, r4, r6, r7, pc}
200066a3:	bfbf      	itttt	lt
200066a5:	ffdf ffff 			; <UNDEFINED> instruction: 0xffdfffff
200066a9:	6eef      	ldrlt	r7, [r5, #108]	; 0x6c
200066ab:	fdff bbbf 	ldc2llt	11, cr11, [pc, #764]!	; 200069a8 <APP_TIMER_BUF.8659+0x13c>
200066af:	f7ef efff 			; <UNDEFINED> instruction: 0xf7efefff
200066b3:	fff7 24a9 	vraddhn.i<illegal width 128>	d18, <illegal reg q11.5>, <illegal reg q12.5>
200066b7:	0008      	movs	r0, r1
200066b9:	0281      	lsls	r1, r0, #10
200066bb:	90da      	str	r0, [sp, #872]	; 0x368
200066bd:	0040      	lsls	r0, r0, #1
200066bf:	8010      	strh	r0, [r2, #0]
200066c1:	4205      	tst	r5, r0
200066c3:	2042      	movs	r0, #66	; 0x42
200066c5:	0209      	lsls	r1, r1, #8
200066c7:	9082      	str	r0, [sp, #520]	; 0x208
200066c9:	0952      	lsrs	r2, r2, #5
200066cb:	4a28      	ldr	r2, [pc, #160]	; (2000676c <impure_data+0x48>)
200066cd:	4a80      	ldr	r2, [pc, #512]	; (200068d0 <APP_TIMER_BUF.8659+0x64>)
200066cf:	ffff fbef 	vtbx.8	d31, {d31-<overflow reg d34}, d31
200066d3:	fb7e f5d7 			; <UNDEFINED> instruction: 0xfb7ef5d7
200066d7:	ffff ffff 			; <UNDEFINED> instruction: 0xffffffff
200066db:	fffd dbde 			; <UNDEFINED> instruction: 0xfffddbde
200066df:	ffed 7f7b 	vcvt.u32.f32	<illegal reg q11.5>, <illegal reg q13.5>, #19
200066e3:	7fef      	ldrb	r7, [r5, #31]
200066e5:	ffdf 00a2 	vaddl.u16	q8, d31, d18
200066e9:	0040      	lsls	r0, r0, #1
200066eb:	0210      	lsls	r0, r2, #8
200066ed:	cab6      	ldmia	r2, {r1, r2, r4, r5, r7}
200066ef:	8994      	ldrh	r4, [r2, #12]
200066f1:	0000      	movs	r0, r0
200066f3:	2011      	movs	r0, #17
200066f5:	0008      	movs	r0, r1
200066f7:	0020      	movs	r0, r4
200066f9:	0000      	movs	r0, r0
	...

200066fc <nTC_CS>:
200066fc:	0016      	movs	r6, r2
	...

20006700 <LED0>:
20006700:	0012      	movs	r2, r2
	...

20006704 <nTC_BUSY>:
20006704:	0017      	movs	r7, r2
	...

20006708 <nTC_EN>:
20006708:	0018      	movs	r0, r3
	...

2000670c <_spi>:
2000670c:	3000      	adds	r0, #0
2000670e:	4000      	ands	r0, r0
20006710:	0003      	movs	r3, r0
	...

20006714 <LED1>:
20006714:	0013      	movs	r3, r2
	...

20006718 <LED2>:
20006718:	0014      	movs	r4, r2
	...

2000671c <tx>:
2000671c:	0130      	lsls	r0, r6, #4
2000671e:	0001      	movs	r1, r0
20006720:	0000      	movs	r0, r0
	...

20006724 <impure_data>:
	...
20006744:	0c4c      	lsrs	r4, r1, #17
20006746:	0002      	movs	r2, r0
	...

20006784 <_impure_ptr>:
20006784:	6724      	str	r4, [r4, #112]	; 0x70
20006786:	2000      	movs	r0, #0

Disassembly of section .bss:

20006788 <__bss_start__>:
	...

2000678a <qrcode_value>:
	...

200067be <text_y_coordinate_value>:
	...

200067c0 <text_value>:
	...

200067de <m_softdevice_enabled>:
	...

200067e0 <m_ble_evt_buffer_size>:
200067e0:	0000      	movs	r0, r0
	...

200067e4 <mp_ble_evt_buffer>:
200067e4:	0000      	movs	r0, r0
	...

200067e8 <m_sys_evt_handler>:
200067e8:	0000      	movs	r0, r0
	...

200067ec <m_ble_evt_handler>:
200067ec:	0000      	movs	r0, r0
	...

200067f0 <m_evt_schedule_func>:
200067f0:	0000      	movs	r0, r0
	...

200067f4 <m_change_param>:
	...

200067f6 <m_current_conn_params>:
	...

200067fe <m_update_count>:
	...

20006800 <m_conn_params_config>:
	...

2000681c <m_conn_params_timer_id_data>:
	...

2000683c <m_conn_handle>:
	...

2000683e <m_preferred_conn_params>:
	...

20006848 <m_ticks_latest>:
20006848:	0000      	movs	r0, r0
	...

2000684c <mp_timer_id_head>:
2000684c:	0000      	movs	r0, r0
	...

20006850 <m_evt_schedule_func>:
20006850:	0000      	movs	r0, r0
	...

20006854 <m_user_array_size>:
20006854:	0000      	movs	r0, r0
	...

20006858 <mp_users>:
20006858:	0000      	movs	r0, r0
	...

2000685c <m_ticks_elapsed_q_read_ind>:
	...

2000685d <m_ticks_elapsed_q_write_ind>:
	...

2000685e <m_rtc1_reset>:
	...

20006860 <m_ticks_elapsed>:
	...

20006868 <m_rtc1_running>:
20006868:	0000      	movs	r0, r0
	...

2000686c <APP_TIMER_BUF.8659>:
	...

20006b54 <BLE_EVT_BUFFER.8625>:
	...

20006b9c <ble_config>:
20006b9c:	0000      	movs	r0, r0
	...

20006ba0 <m_cb>:
	...

20006bc0 <m_cb>:
	...

20006bf8 <rx>:
	...

20006cf8 <generator>:
	...

2000707b <generatorInitialized>:
	...

20007098 <alpha>:
	...

20007198 <initialized>:
20007198:	0000      	movs	r0, r0
	...

2000719c <aindex>:
	...

2000729c <__malloc_sbrk_start>:
2000729c:	0000      	movs	r0, r0
	...

200072a0 <__malloc_free_list>:
200072a0:	0000      	movs	r0, r0
	...

200072a4 <heap_end.4167>:
200072a4:	0000      	movs	r0, r0
	...

200072a8 <nrf_nvic_state>:
	...

200072b0 <m_adv_params>:
	...

200072c8 <app>:
200072c8:	0000      	movs	r0, r0
	...

200072cc <errno>:
200072cc:	0000      	movs	r0, r0
	...

Disassembly of section .heap:

200072d0 <__HeapBase>:
	...

Disassembly of section .stack_dummy:

200072d0 <.stack_dummy>:
	...

Disassembly of section .ARM.attributes:

00000000 <.ARM.attributes>:
   0:	2741      	movs	r7, #65	; 0x41
   2:	0000      	movs	r0, r0
   4:	6100      	str	r0, [r0, #16]
   6:	6165      	str	r5, [r4, #20]
   8:	6962      	ldr	r2, [r4, #20]
   a:	0100      	lsls	r0, r0, #4
   c:	001d      	movs	r5, r3
   e:	0000      	movs	r0, r0
  10:	3605      	adds	r6, #5
  12:	2d53      	cmp	r5, #83	; 0x53
  14:	004d      	lsls	r5, r1, #1
  16:	0c06      	lsrs	r6, r0, #16
  18:	4d07      	ldr	r5, [pc, #28]	; (38 <NRF_POWER_RAMON_RAM1ON_ONMODE_Msk+0x35>)
  1a:	0109      	lsls	r1, r1, #4
  1c:	0412      	lsls	r2, r2, #16
  1e:	0114      	lsls	r4, r2, #4
  20:	0115      	lsls	r5, r2, #4
  22:	0317      	lsls	r7, r2, #12
  24:	0118      	lsls	r0, r3, #4
  26:	011a      	lsls	r2, r3, #4

Disassembly of section .comment:

00000000 <.comment>:
   0:	4347      	muls	r7, r0
   2:	3a43      	subs	r2, #67	; 0x43
   4:	2820      	cmp	r0, #32
   6:	4e47      	ldr	r6, [pc, #284]	; (124 <Heap_Size+0x24>)
   8:	2055      	movs	r0, #85	; 0x55
   a:	6f54      	ldr	r4, [r2, #116]	; 0x74
   c:	6c6f      	ldr	r7, [r5, #68]	; 0x44
   e:	2073      	movs	r0, #115	; 0x73
  10:	6f66      	ldr	r6, [r4, #116]	; 0x74
  12:	2072      	movs	r0, #114	; 0x72
  14:	5241      	strh	r1, [r0, r1]
  16:	204d      	movs	r0, #77	; 0x4d
  18:	6d45      	ldr	r5, [r0, #84]	; 0x54
  1a:	6562      	str	r2, [r4, #84]	; 0x54
  1c:	6464      	str	r4, [r4, #68]	; 0x44
  1e:	6465      	str	r5, [r4, #68]	; 0x44
  20:	5020      	str	r0, [r4, r0]
  22:	6f72      	ldr	r2, [r6, #116]	; 0x74
  24:	6563      	str	r3, [r4, #84]	; 0x54
  26:	7373      	strb	r3, [r6, #13]
  28:	726f      	strb	r7, [r5, #9]
  2a:	2973      	cmp	r1, #115	; 0x73
  2c:	3520      	adds	r5, #32
  2e:	332e      	adds	r3, #46	; 0x2e
  30:	312e      	adds	r1, #46	; 0x2e
  32:	3220      	adds	r2, #32
  34:	3130      	adds	r1, #48	; 0x30
  36:	3036      	adds	r0, #54	; 0x36
  38:	3033      	adds	r0, #51	; 0x33
  3a:	2037      	movs	r0, #55	; 0x37
  3c:	7228      	strb	r0, [r5, #8]
  3e:	6c65      	ldr	r5, [r4, #68]	; 0x44
  40:	6165      	str	r5, [r4, #20]
  42:	6573      	str	r3, [r6, #84]	; 0x54
  44:	2029      	movs	r0, #41	; 0x29
  46:	415b      	adcs	r3, r3
  48:	4d52      	ldr	r5, [pc, #328]	; (194 <Heap_Size+0x94>)
  4a:	652f      	str	r7, [r5, #80]	; 0x50
  4c:	626d      	str	r5, [r5, #36]	; 0x24
  4e:	6465      	str	r5, [r4, #68]	; 0x44
  50:	6564      	str	r4, [r4, #84]	; 0x54
  52:	2d64      	cmp	r5, #100	; 0x64
  54:	2d35      	cmp	r5, #53	; 0x35
  56:	7262      	strb	r2, [r4, #9]
  58:	6e61      	ldr	r1, [r4, #100]	; 0x64
  5a:	6863      	ldr	r3, [r4, #4]
  5c:	7220      	strb	r0, [r4, #8]
  5e:	7665      	strb	r5, [r4, #25]
  60:	7369      	strb	r1, [r5, #13]
  62:	6f69      	ldr	r1, [r5, #116]	; 0x74
  64:	206e      	movs	r0, #110	; 0x6e
  66:	3332      	adds	r3, #50	; 0x32
  68:	3534      	adds	r5, #52	; 0x34
  6a:	3938      	subs	r1, #56	; 0x38
  6c:	005d      	lsls	r5, r3, #1

Disassembly of section .debug_frame:

00000000 <.debug_frame>:
   0:	000c      	movs	r4, r1
   2:	0000      	movs	r0, r0
   4:	ffff ffff 			; <UNDEFINED> instruction: 0xffffffff
   8:	0001      	movs	r1, r0
   a:	7c01      	ldrb	r1, [r0, #16]
   c:	0c0e      	lsrs	r6, r1, #16
   e:	000d      	movs	r5, r1
  10:	000c      	movs	r4, r1
  12:	0000      	movs	r0, r0
  14:	0000      	movs	r0, r0
  16:	0000      	movs	r0, r0
  18:	f831 0001 	ldrh.w	r0, [r1, r1]
  1c:	01cc      	lsls	r4, r1, #7
  1e:	0000      	movs	r0, r0
  20:	000c      	movs	r4, r1
  22:	0000      	movs	r0, r0
  24:	ffff ffff 			; <UNDEFINED> instruction: 0xffffffff
  28:	0001      	movs	r1, r0
  2a:	7c02      	ldrb	r2, [r0, #16]
  2c:	0c0e      	lsrs	r6, r1, #16
  2e:	000d      	movs	r5, r1
  30:	0014      	movs	r4, r2
  32:	0000      	movs	r0, r0
  34:	0020      	movs	r0, r4
  36:	0000      	movs	r0, r0
  38:	fa08 0001 			; <UNDEFINED> instruction: 0xfa080001
  3c:	0014      	movs	r4, r2
  3e:	0000      	movs	r0, r0
  40:	0e41      	lsrs	r1, r0, #25
  42:	8408      	strh	r0, [r1, #32]
  44:	8e02      	ldrh	r2, [r0, #48]	; 0x30
  46:	0001      	movs	r1, r0
  48:	000c      	movs	r4, r1
  4a:	0000      	movs	r0, r0
  4c:	ffff ffff 			; <UNDEFINED> instruction: 0xffffffff
  50:	0001      	movs	r1, r0
  52:	7c02      	ldrb	r2, [r0, #16]
  54:	0c0e      	lsrs	r6, r1, #16
  56:	000d      	movs	r5, r1
  58:	000c      	movs	r4, r1
  5a:	0000      	movs	r0, r0
  5c:	0048      	lsls	r0, r1, #1
  5e:	0000      	movs	r0, r0
  60:	fa1c 0001 			; <UNDEFINED> instruction: 0xfa1c0001
  64:	000c      	movs	r4, r1
  66:	0000      	movs	r0, r0
  68:	000c      	movs	r4, r1
  6a:	0000      	movs	r0, r0
  6c:	ffff ffff 			; <UNDEFINED> instruction: 0xffffffff
  70:	0001      	movs	r1, r0
  72:	7c02      	ldrb	r2, [r0, #16]
  74:	0c0e      	lsrs	r6, r1, #16
  76:	000d      	movs	r5, r1
  78:	0014      	movs	r4, r2
  7a:	0000      	movs	r0, r0
  7c:	0068      	lsls	r0, r5, #1
  7e:	0000      	movs	r0, r0
  80:	fa28 0001 			; <UNDEFINED> instruction: 0xfa280001
  84:	002c      	movs	r4, r5
  86:	0000      	movs	r0, r0
  88:	0e42      	lsrs	r2, r0, #25
  8a:	8408      	strh	r0, [r1, #32]
  8c:	8e02      	ldrh	r2, [r0, #48]	; 0x30
  8e:	0001      	movs	r1, r0
  90:	000c      	movs	r4, r1
  92:	0000      	movs	r0, r0
  94:	ffff ffff 			; <UNDEFINED> instruction: 0xffffffff
  98:	0001      	movs	r1, r0
  9a:	7c02      	ldrb	r2, [r0, #16]
  9c:	0c0e      	lsrs	r6, r1, #16
  9e:	000d      	movs	r5, r1
  a0:	0018      	movs	r0, r3
  a2:	0000      	movs	r0, r0
  a4:	0090      	lsls	r0, r2, #2
  a6:	0000      	movs	r0, r0
  a8:	fa54 0001 			; <UNDEFINED> instruction: 0xfa540001
  ac:	004c      	lsls	r4, r1, #1
  ae:	0000      	movs	r0, r0
  b0:	0e42      	lsrs	r2, r0, #25
  b2:	8410      	strh	r0, [r2, #32]
  b4:	8504      	strh	r4, [r0, #40]	; 0x28
  b6:	8603      	strh	r3, [r0, #48]	; 0x30
  b8:	8e02      	ldrh	r2, [r0, #48]	; 0x30
  ba:	0001      	movs	r1, r0
  bc:	000c      	movs	r4, r1
  be:	0000      	movs	r0, r0
  c0:	ffff ffff 			; <UNDEFINED> instruction: 0xffffffff
  c4:	0001      	movs	r1, r0
  c6:	7c02      	ldrb	r2, [r0, #16]
  c8:	0c0e      	lsrs	r6, r1, #16
  ca:	000d      	movs	r5, r1
  cc:	0014      	movs	r4, r2
  ce:	0000      	movs	r0, r0
  d0:	00bc      	lsls	r4, r7, #2
  d2:	0000      	movs	r0, r0
  d4:	faa0 0001 			; <UNDEFINED> instruction: 0xfaa00001
  d8:	0014      	movs	r4, r2
  da:	0000      	movs	r0, r0
  dc:	0e41      	lsrs	r1, r0, #25
  de:	8408      	strh	r0, [r1, #32]
  e0:	8e02      	ldrh	r2, [r0, #48]	; 0x30
  e2:	0001      	movs	r1, r0
  e4:	0014      	movs	r4, r2
  e6:	0000      	movs	r0, r0
  e8:	00bc      	lsls	r4, r7, #2
  ea:	0000      	movs	r0, r0
  ec:	fab4 0001 			; <UNDEFINED> instruction: 0xfab40001
  f0:	0014      	movs	r4, r2
  f2:	0000      	movs	r0, r0
  f4:	0e41      	lsrs	r1, r0, #25
  f6:	8408      	strh	r0, [r1, #32]
  f8:	8e02      	ldrh	r2, [r0, #48]	; 0x30
  fa:	0001      	movs	r1, r0
  fc:	000c      	movs	r4, r1
  fe:	0000      	movs	r0, r0
 100:	ffff ffff 			; <UNDEFINED> instruction: 0xffffffff
 104:	0001      	movs	r1, r0
 106:	7c02      	ldrb	r2, [r0, #16]
 108:	0c0e      	lsrs	r6, r1, #16
 10a:	000d      	movs	r5, r1
 10c:	0014      	movs	r4, r2
 10e:	0000      	movs	r0, r0
 110:	00fc      	lsls	r4, r7, #3
 112:	0000      	movs	r0, r0
 114:	fac8 0001 			; <UNDEFINED> instruction: 0xfac80001
 118:	0012      	movs	r2, r2
 11a:	0000      	movs	r0, r0
 11c:	0e42      	lsrs	r2, r0, #25
 11e:	8408      	strh	r0, [r1, #32]
 120:	8e02      	ldrh	r2, [r0, #48]	; 0x30
 122:	0001      	movs	r1, r0
 124:	000c      	movs	r4, r1
 126:	0000      	movs	r0, r0
 128:	ffff ffff 			; <UNDEFINED> instruction: 0xffffffff
 12c:	0001      	movs	r1, r0
 12e:	7c02      	ldrb	r2, [r0, #16]
 130:	0c0e      	lsrs	r6, r1, #16
 132:	000d      	movs	r5, r1
 134:	0014      	movs	r4, r2
 136:	0000      	movs	r0, r0
 138:	0124      	lsls	r4, r4, #4
 13a:	0000      	movs	r0, r0
 13c:	fada 0001 			; <UNDEFINED> instruction: 0xfada0001
 140:	002a      	movs	r2, r5
 142:	0000      	movs	r0, r0
 144:	0e41      	lsrs	r1, r0, #25
 146:	8408      	strh	r0, [r1, #32]
 148:	8e02      	ldrh	r2, [r0, #48]	; 0x30
 14a:	0001      	movs	r1, r0
 14c:	000c      	movs	r4, r1
 14e:	0000      	movs	r0, r0
 150:	ffff ffff 			; <UNDEFINED> instruction: 0xffffffff
 154:	0001      	movs	r1, r0
 156:	7c02      	ldrb	r2, [r0, #16]
 158:	0c0e      	lsrs	r6, r1, #16
 15a:	000d      	movs	r5, r1
 15c:	000c      	movs	r4, r1
 15e:	0000      	movs	r0, r0
 160:	014c      	lsls	r4, r1, #5
 162:	0000      	movs	r0, r0
 164:	fb04 0001 	mla	r0, r4, r1, r0
 168:	0010      	movs	r0, r2
 16a:	0000      	movs	r0, r0
 16c:	000c      	movs	r4, r1
 16e:	0000      	movs	r0, r0
 170:	ffff ffff 			; <UNDEFINED> instruction: 0xffffffff
 174:	0001      	movs	r1, r0
 176:	7c02      	ldrb	r2, [r0, #16]
 178:	0c0e      	lsrs	r6, r1, #16
 17a:	000d      	movs	r5, r1
 17c:	0018      	movs	r0, r3
 17e:	0000      	movs	r0, r0
 180:	016c      	lsls	r4, r5, #5
 182:	0000      	movs	r0, r0
 184:	fb14 0001 	smlabb	r0, r4, r1, r0
 188:	001c      	movs	r4, r3
 18a:	0000      	movs	r0, r0
 18c:	0e42      	lsrs	r2, r0, #25
 18e:	8410      	strh	r0, [r2, #32]
 190:	8504      	strh	r4, [r0, #40]	; 0x28
 192:	8603      	strh	r3, [r0, #48]	; 0x30
 194:	8e02      	ldrh	r2, [r0, #48]	; 0x30
 196:	0001      	movs	r1, r0
 198:	000c      	movs	r4, r1
 19a:	0000      	movs	r0, r0
 19c:	ffff ffff 			; <UNDEFINED> instruction: 0xffffffff
 1a0:	0001      	movs	r1, r0
 1a2:	7c02      	ldrb	r2, [r0, #16]
 1a4:	0c0e      	lsrs	r6, r1, #16
 1a6:	000d      	movs	r5, r1
 1a8:	0018      	movs	r0, r3
 1aa:	0000      	movs	r0, r0
 1ac:	0198      	lsls	r0, r3, #6
 1ae:	0000      	movs	r0, r0
 1b0:	fb30 0001 	smlawb	r0, r0, r1, r0
 1b4:	008c      	lsls	r4, r1, #2
 1b6:	0000      	movs	r0, r0
 1b8:	0e41      	lsrs	r1, r0, #25
 1ba:	840c      	strh	r4, [r1, #32]
 1bc:	8503      	strh	r3, [r0, #40]	; 0x28
 1be:	8e02      	ldrh	r2, [r0, #48]	; 0x30
 1c0:	0001      	movs	r1, r0
 1c2:	0000      	movs	r0, r0
 1c4:	000c      	movs	r4, r1
 1c6:	0000      	movs	r0, r0
 1c8:	ffff ffff 			; <UNDEFINED> instruction: 0xffffffff
 1cc:	0001      	movs	r1, r0
 1ce:	7c02      	ldrb	r2, [r0, #16]
 1d0:	0c0e      	lsrs	r6, r1, #16
 1d2:	000d      	movs	r5, r1
 1d4:	0018      	movs	r0, r3
 1d6:	0000      	movs	r0, r0
 1d8:	01c4      	lsls	r4, r0, #7
 1da:	0000      	movs	r0, r0
 1dc:	fbbc 0001 			; <UNDEFINED> instruction: 0xfbbc0001
 1e0:	00ac      	lsls	r4, r5, #2
 1e2:	0000      	movs	r0, r0
 1e4:	0e42      	lsrs	r2, r0, #25
 1e6:	8410      	strh	r0, [r2, #32]
 1e8:	8504      	strh	r4, [r0, #40]	; 0x28
 1ea:	8603      	strh	r3, [r0, #48]	; 0x30
 1ec:	8e02      	ldrh	r2, [r0, #48]	; 0x30
 1ee:	0001      	movs	r1, r0
 1f0:	000c      	movs	r4, r1
 1f2:	0000      	movs	r0, r0
 1f4:	ffff ffff 			; <UNDEFINED> instruction: 0xffffffff
 1f8:	0001      	movs	r1, r0
 1fa:	7c02      	ldrb	r2, [r0, #16]
 1fc:	0c0e      	lsrs	r6, r1, #16
 1fe:	000d      	movs	r5, r1
 200:	0014      	movs	r4, r2
 202:	0000      	movs	r0, r0
 204:	01f0      	lsls	r0, r6, #7
 206:	0000      	movs	r0, r0
 208:	fc68 0001 	stc2l	0, cr0, [r8], #-4
 20c:	0014      	movs	r4, r2
 20e:	0000      	movs	r0, r0
 210:	0e41      	lsrs	r1, r0, #25
 212:	8408      	strh	r0, [r1, #32]
 214:	8e02      	ldrh	r2, [r0, #48]	; 0x30
 216:	0001      	movs	r1, r0
 218:	000c      	movs	r4, r1
 21a:	0000      	movs	r0, r0
 21c:	ffff ffff 			; <UNDEFINED> instruction: 0xffffffff
 220:	0001      	movs	r1, r0
 222:	7c02      	ldrb	r2, [r0, #16]
 224:	0c0e      	lsrs	r6, r1, #16
 226:	000d      	movs	r5, r1
 228:	0018      	movs	r0, r3
 22a:	0000      	movs	r0, r0
 22c:	0218      	lsls	r0, r3, #8
 22e:	0000      	movs	r0, r0
 230:	fc7c 0001 	ldc2l	0, cr0, [ip], #-4
 234:	0024      	movs	r4, r4
 236:	0000      	movs	r0, r0
 238:	0e42      	lsrs	r2, r0, #25
 23a:	8410      	strh	r0, [r2, #32]
 23c:	8504      	strh	r4, [r0, #40]	; 0x28
 23e:	8603      	strh	r3, [r0, #48]	; 0x30
 240:	8e02      	ldrh	r2, [r0, #48]	; 0x30
 242:	0001      	movs	r1, r0
 244:	000c      	movs	r4, r1
 246:	0000      	movs	r0, r0
 248:	ffff ffff 			; <UNDEFINED> instruction: 0xffffffff
 24c:	0001      	movs	r1, r0
 24e:	7c02      	ldrb	r2, [r0, #16]
 250:	0c0e      	lsrs	r6, r1, #16
 252:	000d      	movs	r5, r1
 254:	001c      	movs	r4, r3
 256:	0000      	movs	r0, r0
 258:	0244      	lsls	r4, r0, #9
 25a:	0000      	movs	r0, r0
 25c:	fcae 0001 	stc2	0, cr0, [lr], #4
 260:	004c      	lsls	r4, r1, #1
 262:	0000      	movs	r0, r0
 264:	0e41      	lsrs	r1, r0, #25
 266:	8318      	strh	r0, [r3, #24]
 268:	8406      	strh	r6, [r0, #32]
 26a:	8505      	strh	r5, [r0, #40]	; 0x28
 26c:	8604      	strh	r4, [r0, #48]	; 0x30
 26e:	8703      	strh	r3, [r0, #56]	; 0x38
 270:	8e02      	ldrh	r2, [r0, #48]	; 0x30
 272:	0001      	movs	r1, r0
 274:	000c      	movs	r4, r1
 276:	0000      	movs	r0, r0
 278:	ffff ffff 			; <UNDEFINED> instruction: 0xffffffff
 27c:	0001      	movs	r1, r0
 27e:	7c02      	ldrb	r2, [r0, #16]
 280:	0c0e      	lsrs	r6, r1, #16
 282:	000d      	movs	r5, r1
 284:	0018      	movs	r0, r3
 286:	0000      	movs	r0, r0
 288:	0274      	lsls	r4, r6, #9
 28a:	0000      	movs	r0, r0
 28c:	0000      	movs	r0, r0
 28e:	0000      	movs	r0, r0
 290:	001a      	movs	r2, r3
 292:	0000      	movs	r0, r0
 294:	0e41      	lsrs	r1, r0, #25
 296:	8410      	strh	r0, [r2, #32]
 298:	8504      	strh	r4, [r0, #40]	; 0x28
 29a:	8603      	strh	r3, [r0, #48]	; 0x30
 29c:	8e02      	ldrh	r2, [r0, #48]	; 0x30
 29e:	0001      	movs	r1, r0
 2a0:	0018      	movs	r0, r3
 2a2:	0000      	movs	r0, r0
 2a4:	0274      	lsls	r4, r6, #9
 2a6:	0000      	movs	r0, r0
 2a8:	0000      	movs	r0, r0
 2aa:	0000      	movs	r0, r0
 2ac:	00cc      	lsls	r4, r1, #3
 2ae:	0000      	movs	r0, r0
 2b0:	0e42      	lsrs	r2, r0, #25
 2b2:	8410      	strh	r0, [r2, #32]
 2b4:	8504      	strh	r4, [r0, #40]	; 0x28
 2b6:	8603      	strh	r3, [r0, #48]	; 0x30
 2b8:	8e02      	ldrh	r2, [r0, #48]	; 0x30
 2ba:	0001      	movs	r1, r0
 2bc:	000c      	movs	r4, r1
 2be:	0000      	movs	r0, r0
 2c0:	ffff ffff 			; <UNDEFINED> instruction: 0xffffffff
 2c4:	0001      	movs	r1, r0
 2c6:	7c02      	ldrb	r2, [r0, #16]
 2c8:	0c0e      	lsrs	r6, r1, #16
 2ca:	000d      	movs	r5, r1
 2cc:	000c      	movs	r4, r1
 2ce:	0000      	movs	r0, r0
 2d0:	02bc      	lsls	r4, r7, #10
 2d2:	0000      	movs	r0, r0
 2d4:	fcfa 0001 	ldc2l	0, cr0, [sl], #4
 2d8:	0016      	movs	r6, r2
 2da:	0000      	movs	r0, r0
 2dc:	000c      	movs	r4, r1
 2de:	0000      	movs	r0, r0
 2e0:	ffff ffff 			; <UNDEFINED> instruction: 0xffffffff
 2e4:	0001      	movs	r1, r0
 2e6:	7c02      	ldrb	r2, [r0, #16]
 2e8:	0c0e      	lsrs	r6, r1, #16
 2ea:	000d      	movs	r5, r1
 2ec:	000c      	movs	r4, r1
 2ee:	0000      	movs	r0, r0
 2f0:	02dc      	lsls	r4, r3, #11
 2f2:	0000      	movs	r0, r0
 2f4:	fd10 0001 	ldc2	0, cr0, [r0, #-4]
 2f8:	001c      	movs	r4, r3
 2fa:	0000      	movs	r0, r0
 2fc:	000c      	movs	r4, r1
 2fe:	0000      	movs	r0, r0
 300:	ffff ffff 			; <UNDEFINED> instruction: 0xffffffff
 304:	0001      	movs	r1, r0
 306:	7c02      	ldrb	r2, [r0, #16]
 308:	0c0e      	lsrs	r6, r1, #16
 30a:	000d      	movs	r5, r1
 30c:	000c      	movs	r4, r1
 30e:	0000      	movs	r0, r0
 310:	02fc      	lsls	r4, r7, #11
 312:	0000      	movs	r0, r0
 314:	fd2c 0001 	stc2	0, cr0, [ip, #-4]!
 318:	0002      	movs	r2, r0
	...
